ARM GAS  /tmp/ccudpb7o.s 			page 1


   1              		.syntax unified
   2              		.cpu cortex-m4
   3              		.eabi_attribute 27, 1
   4              		.eabi_attribute 28, 1
   5              		.fpu fpv4-sp-d16
   6              		.eabi_attribute 20, 1
   7              		.eabi_attribute 21, 1
   8              		.eabi_attribute 23, 3
   9              		.eabi_attribute 24, 1
  10              		.eabi_attribute 25, 1
  11              		.eabi_attribute 26, 1
  12              		.eabi_attribute 30, 2
  13              		.eabi_attribute 34, 1
  14              		.eabi_attribute 18, 4
  15              		.thumb
  16              		.file	"app.c"
  17              		.text
  18              	.Ltext0:
  19              		.cfi_sections	.debug_frame
  20              		.section	.text.app_get_configuration,"ax",%progbits
  21              		.align	2
  22              		.p2align 4,,15
  23              		.global	app_get_configuration
  24              		.thumb
  25              		.thumb_func
  26              		.type	app_get_configuration, %function
  27              	app_get_configuration:
  28              	.LFB257:
  29              		.file 1 "applications/app.c"
  30              		.loc 1 85 0
  31              		.cfi_startproc
  32              		@ args = 0, pretend = 0, frame = 0
  33              		@ frame_needed = 0, uses_anonymous_args = 0
  34              		@ link register save eliminated.
  35              		.loc 1 87 0
  36 0000 0048     		ldr	r0, .L2
  37 0002 7047     		bx	lr
  38              	.L3:
  39              		.align	2
  40              	.L2:
  41 0004 00000000 		.word	.LANCHOR0
  42              		.cfi_endproc
  43              	.LFE257:
  44              		.size	app_get_configuration, .-app_get_configuration
  45              		.section	.text.app_set_configuration,"ax",%progbits
  46              		.align	2
  47              		.p2align 4,,15
  48              		.global	app_set_configuration
  49              		.thumb
  50              		.thumb_func
  51              		.type	app_set_configuration, %function
  52              	app_set_configuration:
  53              	.LFB258:
  54              		.loc 1 96 0
  55              		.cfi_startproc
  56              		@ args = 0, pretend = 0, frame = 0
  57              		@ frame_needed = 0, uses_anonymous_args = 0
ARM GAS  /tmp/ccudpb7o.s 			page 2


  58              	.LVL0:
  59 0000 10B5     		push	{r4, lr}
  60              		.cfi_def_cfa_offset 8
  61              		.cfi_offset 4, -8
  62              		.cfi_offset 14, -4
  63              		.loc 1 97 0
  64 0002 0D4C     		ldr	r4, .L6
  65              		.loc 1 96 0
  66 0004 0146     		mov	r1, r0
  67              		.loc 1 97 0
  68 0006 A022     		movs	r2, #160
  69 0008 2046     		mov	r0, r4
  70              	.LVL1:
  71 000a FFF7FEFF 		bl	memcpy
  72              	.LVL2:
  73              		.loc 1 98 0
  74 000e 04F11800 		add	r0, r4, #24
  75 0012 FFF7FEFF 		bl	app_ppm_configure
  76              	.LVL3:
  77              		.loc 1 99 0
  78 0016 04F14000 		add	r0, r4, #64
  79 001a FFF7FEFF 		bl	app_adc_configure
  80              	.LVL4:
  81              		.loc 1 100 0
  82 001e E06E     		ldr	r0, [r4, #108]
  83 0020 FFF7FEFF 		bl	app_uartcomm_configure
  84              	.LVL5:
  85              		.loc 1 101 0
  86 0024 04F17000 		add	r0, r4, #112
  87 0028 FFF7FEFF 		bl	app_nunchuk_configure
  88              	.LVL6:
  89              		.loc 1 102 0
  90 002c 04F19400 		add	r0, r4, #148
  91              		.loc 1 103 0
  92 0030 BDE81040 		pop	{r4, lr}
  93              		.cfi_restore 14
  94              		.cfi_restore 4
  95              		.cfi_def_cfa_offset 0
  96              		.loc 1 102 0
  97 0034 FFF7FEBF 		b	rfhelp_update_conf
  98              	.LVL7:
  99              	.L7:
 100              		.align	2
 101              	.L6:
 102 0038 00000000 		.word	.LANCHOR0
 103              		.cfi_endproc
 104              	.LFE258:
 105              		.size	app_set_configuration, .-app_set_configuration
 106              		.section	.text.app_init,"ax",%progbits
 107              		.align	2
 108              		.p2align 4,,15
 109              		.global	app_init
 110              		.thumb
 111              		.thumb_func
 112              		.type	app_init, %function
 113              	app_init:
 114              	.LFB256:
ARM GAS  /tmp/ccudpb7o.s 			page 3


 115              		.loc 1 34 0
 116              		.cfi_startproc
 117              		@ args = 0, pretend = 0, frame = 0
 118              		@ frame_needed = 0, uses_anonymous_args = 0
 119              	.LVL8:
 120 0000 08B5     		push	{r3, lr}
 121              		.cfi_def_cfa_offset 8
 122              		.cfi_offset 3, -8
 123              		.cfi_offset 14, -4
 124              		.loc 1 35 0
 125 0002 FFF7FEFF 		bl	app_set_configuration
 126              	.LVL9:
 127              		.loc 1 37 0
 128 0006 1D4B     		ldr	r3, .L21
 129 0008 1B7D     		ldrb	r3, [r3, #20]	@ zero_extendqisi2
 130 000a 013B     		subs	r3, r3, #1
 131 000c 072B     		cmp	r3, #7
 132 000e 33D8     		bhi	.L8
 133 0010 DFE803F0 		tbb	[pc, r3]
 134              	.L11:
 135 0014 08       		.byte	(.L10-.L11)/2
 136 0015 0C       		.byte	(.L12-.L11)/2
 137 0016 11       		.byte	(.L13-.L11)/2
 138 0017 17       		.byte	(.L14-.L11)/2
 139 0018 1F       		.byte	(.L15-.L11)/2
 140 0019 28       		.byte	(.L16-.L11)/2
 141 001a 2C       		.byte	(.L17-.L11)/2
 142 001b 04       		.byte	(.L18-.L11)/2
 143              		.p2align 1
 144              	.L18:
 145              		.loc 1 83 0
 146 001c BDE80840 		pop	{r3, lr}
 147              		.cfi_remember_state
 148              		.cfi_restore 14
 149              		.cfi_restore 3
 150              		.cfi_def_cfa_offset 0
 151              		.loc 1 77 0
 152 0020 FFF7FEBF 		b	app_example_init
 153              	.LVL10:
 154              	.L10:
 155              		.cfi_restore_state
 156              		.loc 1 83 0
 157 0024 BDE80840 		pop	{r3, lr}
 158              		.cfi_remember_state
 159              		.cfi_restore 14
 160              		.cfi_restore 3
 161              		.cfi_def_cfa_offset 0
 162              		.loc 1 39 0
 163 0028 FFF7FEBF 		b	app_ppm_start
 164              	.LVL11:
 165              	.L12:
 166              		.cfi_restore_state
 167              		.loc 1 43 0
 168 002c 0120     		movs	r0, #1
 169              		.loc 1 83 0
 170 002e BDE80840 		pop	{r3, lr}
 171              		.cfi_remember_state
ARM GAS  /tmp/ccudpb7o.s 			page 4


 172              		.cfi_restore 14
 173              		.cfi_restore 3
 174              		.cfi_def_cfa_offset 0
 175              		.loc 1 43 0
 176 0032 FFF7FEBF 		b	app_adc_start
 177              	.LVL12:
 178              	.L13:
 179              		.cfi_restore_state
 180              		.loc 1 47 0
 181 0036 FFF7FEFF 		bl	hw_stop_i2c
 182              	.LVL13:
 183              		.loc 1 83 0
 184 003a BDE80840 		pop	{r3, lr}
 185              		.cfi_remember_state
 186              		.cfi_restore 14
 187              		.cfi_restore 3
 188              		.cfi_def_cfa_offset 0
 189              		.loc 1 48 0
 190 003e FFF7FEBF 		b	app_uartcomm_start
 191              	.LVL14:
 192              	.L14:
 193              		.cfi_restore_state
 194              		.loc 1 52 0
 195 0042 FFF7FEFF 		bl	hw_stop_i2c
 196              	.LVL15:
 197              		.loc 1 53 0
 198 0046 FFF7FEFF 		bl	app_ppm_start
 199              	.LVL16:
 200              		.loc 1 83 0
 201 004a BDE80840 		pop	{r3, lr}
 202              		.cfi_remember_state
 203              		.cfi_restore 14
 204              		.cfi_restore 3
 205              		.cfi_def_cfa_offset 0
 206              		.loc 1 54 0
 207 004e FFF7FEBF 		b	app_uartcomm_start
 208              	.LVL17:
 209              	.L15:
 210              		.cfi_restore_state
 211              		.loc 1 58 0
 212 0052 FFF7FEFF 		bl	hw_stop_i2c
 213              	.LVL18:
 214              		.loc 1 59 0
 215 0056 0020     		movs	r0, #0
 216 0058 FFF7FEFF 		bl	app_adc_start
 217              	.LVL19:
 218              		.loc 1 83 0
 219 005c BDE80840 		pop	{r3, lr}
 220              		.cfi_remember_state
 221              		.cfi_restore 14
 222              		.cfi_restore 3
 223              		.cfi_def_cfa_offset 0
 224              		.loc 1 60 0
 225 0060 FFF7FEBF 		b	app_uartcomm_start
 226              	.LVL20:
 227              	.L16:
 228              		.cfi_restore_state
ARM GAS  /tmp/ccudpb7o.s 			page 5


 229              		.loc 1 83 0
 230 0064 BDE80840 		pop	{r3, lr}
 231              		.cfi_remember_state
 232              		.cfi_restore 14
 233              		.cfi_restore 3
 234              		.cfi_def_cfa_offset 0
 235              		.loc 1 64 0
 236 0068 FFF7FEBF 		b	app_nunchuk_start
 237              	.LVL21:
 238              	.L17:
 239              		.cfi_restore_state
 240              		.loc 1 68 0
 241 006c FFF7FEFF 		bl	nrf_driver_init
 242              	.LVL22:
 243              		.loc 1 83 0
 244 0070 BDE80840 		pop	{r3, lr}
 245              		.cfi_restore 14
 246              		.cfi_restore 3
 247              		.cfi_def_cfa_offset 0
 248              		.loc 1 69 0
 249 0074 FFF7FEBF 		b	rfhelp_restart
 250              	.LVL23:
 251              	.L8:
 252 0078 08BD     		pop	{r3, pc}
 253              	.L22:
 254 007a 00BF     		.align	2
 255              	.L21:
 256 007c 00000000 		.word	.LANCHOR0
 257              		.cfi_endproc
 258              	.LFE256:
 259              		.size	app_init, .-app_init
 260              		.section	.bss.appconf,"aw",%nobits
 261              		.align	2
 262              		.set	.LANCHOR0,. + 0
 263              		.type	appconf, %object
 264              		.size	appconf, 160
 265              	appconf:
 266 0000 00000000 		.space	160
 266      00000000 
 266      00000000 
 266      00000000 
 266      00000000 
 267              		.text
 268              	.Letext0:
 269              		.file 2 "/usr/arm-none-eabi/include/machine/_default_types.h"
 270              		.file 3 "/usr/arm-none-eabi/include/sys/_stdint.h"
 271              		.file 4 "/usr/lib/gcc/arm-none-eabi/4.9.3/include/stddef.h"
 272              		.file 5 "ChibiOS_3.0.2/os/rt/ports/ARMCMx/compilers/GCC/chtypes.h"
 273              		.file 6 "ChibiOS_3.0.2/os/rt/include/chsystypes.h"
 274              		.file 7 "ChibiOS_3.0.2/os/rt/include/chschd.h"
 275              		.file 8 "ChibiOS_3.0.2/os/rt/ports/ARMCMx/chcore.h"
 276              		.file 9 "ChibiOS_3.0.2/os/rt/ports/ARMCMx/chcore_v7m.h"
 277              		.file 10 "ChibiOS_3.0.2/os/rt/include/chtm.h"
 278              		.file 11 "ChibiOS_3.0.2/os/rt/include/chsem.h"
 279              		.file 12 "ChibiOS_3.0.2/os/rt/include/chmtx.h"
 280              		.file 13 "./datatypes.h"
 281              		.file 14 "applications/app.h"
ARM GAS  /tmp/ccudpb7o.s 			page 6


 282              		.file 15 "nrf/rfhelp.h"
 283              		.file 16 "hwconf/hw.h"
 284              		.file 17 "nrf/nrf_driver.h"
 285              		.file 18 "ChibiOS_3.0.2/os/ext/CMSIS/include/core_cm4.h"