ARM GAS  /tmp/ccmx2qiC.s 			page 1


   1              		.syntax unified
   2              		.cpu cortex-m4
   3              		.eabi_attribute 27, 1
   4              		.eabi_attribute 28, 1
   5              		.fpu fpv4-sp-d16
   6              		.eabi_attribute 20, 1
   7              		.eabi_attribute 21, 1
   8              		.eabi_attribute 23, 3
   9              		.eabi_attribute 24, 1
  10              		.eabi_attribute 25, 1
  11              		.eabi_attribute 26, 1
  12              		.eabi_attribute 30, 2
  13              		.eabi_attribute 34, 1
  14              		.eabi_attribute 18, 4
  15              		.thumb
  16              		.file	"app_example.c"
  17              		.text
  18              	.Ltext0:
  19              		.cfi_sections	.debug_frame
  20              		.section	.text.example_thread,"ax",%progbits
  21              		.align	2
  22              		.p2align 4,,15
  23              		.thumb
  24              		.thumb_func
  25              		.type	example_thread, %function
  26              	example_thread:
  27              	.LFB257:
  28              		.file 1 "applications/app_example.c"
  29              		.loc 1 21 0
  30              		.cfi_startproc
  31              		@ args = 0, pretend = 0, frame = 0
  32              		@ frame_needed = 0, uses_anonymous_args = 0
  33              	.LVL0:
  34 0000 F8B5     		push	{r3, r4, r5, r6, r7, lr}
  35              		.cfi_def_cfa_offset 24
  36              		.cfi_offset 3, -24
  37              		.cfi_offset 4, -20
  38              		.cfi_offset 5, -16
  39              		.cfi_offset 6, -12
  40              		.cfi_offset 7, -8
  41              		.cfi_offset 14, -4
  42              	.LBB7:
  43              	.LBB8:
  44              		.file 2 "ChibiOS_3.0.2/os/rt/include/chregistry.h"
  45              		.loc 2 135 0
  46 0002 174B     		ldr	r3, .L11
  47 0004 174A     		ldr	r2, .L11+4
  48 0006 9B69     		ldr	r3, [r3, #24]
  49              	.LBE8:
  50              	.LBE7:
  51              	.LBB10:
  52              		.loc 1 60 0
  53 0008 174C     		ldr	r4, .L11+8
  54              	.LBE10:
  55              	.LBB11:
  56              	.LBB9:
  57              		.loc 2 135 0
ARM GAS  /tmp/ccmx2qiC.s 			page 2


  58 000a 9A61     		str	r2, [r3, #24]
  59              	.LVL1:
  60              	.L5:
  61              	.LBE9:
  62              	.LBE11:
  63              	.LBB12:
  64              		.loc 1 60 0
  65 000c 8026     		movs	r6, #128
  66 000e 3746     		mov	r7, r6	@ movhi
  67              	.LBE12:
  68              		.loc 1 21 0
  69 0010 FA25     		movs	r5, #250
  70              	.LVL2:
  71              	.L2:
  72              	.LBB13:
  73              		.loc 1 61 0 discriminator 3
  74 0012 B420     		movs	r0, #180
  75              		.loc 1 60 0 discriminator 3
  76 0014 6783     		strh	r7, [r4, #26]	@ movhi
  77              		.loc 1 61 0 discriminator 3
  78 0016 FFF7FEFF 		bl	chThdSleep
  79              	.LVL3:
  80              		.loc 1 62 0 discriminator 3
  81 001a 2683     		strh	r6, [r4, #24]	@ movhi
  82              		.loc 1 63 0 discriminator 3
  83 001c 1420     		movs	r0, #20
  84 001e FFF7FEFF 		bl	chThdSleep
  85              	.LVL4:
  86              		.loc 1 58 0 discriminator 3
  87 0022 013D     		subs	r5, r5, #1
  88              	.LVL5:
  89 0024 F5D1     		bne	.L2
  90              	.LBE13:
  91              	.LBB14:
  92              		.loc 1 67 0
  93 0026 8026     		movs	r6, #128
  94 0028 3746     		mov	r7, r6	@ movhi
  95              	.LBE14:
  96              	.LBB15:
  97 002a FA25     		movs	r5, #250
  98              	.LVL6:
  99              	.L3:
 100              	.LBE15:
 101              	.LBB16:
 102              		.loc 1 68 0 discriminator 3
 103 002c B420     		movs	r0, #180
 104              		.loc 1 67 0 discriminator 3
 105 002e 6783     		strh	r7, [r4, #26]	@ movhi
 106              		.loc 1 68 0 discriminator 3
 107 0030 FFF7FEFF 		bl	chThdSleep
 108              	.LVL7:
 109              		.loc 1 69 0 discriminator 3
 110 0034 2683     		strh	r6, [r4, #24]	@ movhi
 111              		.loc 1 70 0 discriminator 3
 112 0036 0A20     		movs	r0, #10
 113 0038 FFF7FEFF 		bl	chThdSleep
 114              	.LVL8:
ARM GAS  /tmp/ccmx2qiC.s 			page 3


 115              		.loc 1 65 0 discriminator 3
 116 003c 013D     		subs	r5, r5, #1
 117              	.LVL9:
 118 003e F5D1     		bne	.L3
 119              	.LBE16:
 120              	.LBB17:
 121              		.loc 1 74 0
 122 0040 8026     		movs	r6, #128
 123 0042 3746     		mov	r7, r6	@ movhi
 124              	.LBE17:
 125              	.LBB18:
 126 0044 FA25     		movs	r5, #250
 127              	.LVL10:
 128              	.L4:
 129              	.LBE18:
 130              	.LBB19:
 131              		.loc 1 75 0 discriminator 3
 132 0046 BE20     		movs	r0, #190
 133              		.loc 1 74 0 discriminator 3
 134 0048 6783     		strh	r7, [r4, #26]	@ movhi
 135              		.loc 1 75 0 discriminator 3
 136 004a FFF7FEFF 		bl	chThdSleep
 137              	.LVL11:
 138              		.loc 1 76 0 discriminator 3
 139 004e 2683     		strh	r6, [r4, #24]	@ movhi
 140              		.loc 1 77 0 discriminator 3
 141 0050 0A20     		movs	r0, #10
 142 0052 FFF7FEFF 		bl	chThdSleep
 143              	.LVL12:
 144              		.loc 1 72 0 discriminator 3
 145 0056 013D     		subs	r5, r5, #1
 146              	.LVL13:
 147 0058 F5D1     		bne	.L4
 148              	.LBE19:
 149              		.loc 1 83 0
 150 005a FFF7FEFF 		bl	timeout_reset
 151              	.LVL14:
 152              		.loc 1 84 0
 153 005e D5E7     		b	.L5
 154              	.L12:
 155              		.align	2
 156              	.L11:
 157 0060 00000000 		.word	ch
 158 0064 00000000 		.word	.LC0
 159 0068 00080240 		.word	1073874944
 160              		.cfi_endproc
 161              	.LFE257:
 162              		.size	example_thread, .-example_thread
 163              		.section	.text.app_example_init,"ax",%progbits
 164              		.align	2
 165              		.p2align 4,,15
 166              		.global	app_example_init
 167              		.thumb
 168              		.thumb_func
 169              		.type	app_example_init, %function
 170              	app_example_init:
 171              	.LFB256:
ARM GAS  /tmp/ccmx2qiC.s 			page 4


 172              		.loc 1 11 0
 173              		.cfi_startproc
 174              		@ args = 0, pretend = 0, frame = 0
 175              		@ frame_needed = 0, uses_anonymous_args = 0
 176 0000 10B5     		push	{r4, lr}
 177              		.cfi_def_cfa_offset 8
 178              		.cfi_offset 4, -8
 179              		.cfi_offset 14, -4
 180              		.loc 1 13 0
 181 0002 0B4C     		ldr	r4, .L15
 182 0004 4021     		movs	r1, #64
 183              		.loc 1 11 0
 184 0006 82B0     		sub	sp, sp, #8
 185              		.cfi_def_cfa_offset 16
 186              		.loc 1 13 0
 187 0008 2046     		mov	r0, r4
 188 000a 0A46     		mov	r2, r1
 189 000c FFF7FEFF 		bl	_pal_lld_setgroupmode
 190              	.LVL15:
 191              		.loc 1 14 0
 192 0010 2046     		mov	r0, r4
 193 0012 8021     		movs	r1, #128
 194 0014 0122     		movs	r2, #1
 195 0016 FFF7FEFF 		bl	_pal_lld_setgroupmode
 196              	.LVL16:
 197              		.loc 1 17 0
 198 001a 0023     		movs	r3, #0
 199 001c 0093     		str	r3, [sp]
 200 001e 40F69811 		movw	r1, #2456
 201 0022 044B     		ldr	r3, .L15+4
 202 0024 0448     		ldr	r0, .L15+8
 203 0026 4022     		movs	r2, #64
 204 0028 FFF7FEFF 		bl	chThdCreateStatic
 205              	.LVL17:
 206              		.loc 1 19 0
 207 002c 02B0     		add	sp, sp, #8
 208              		.cfi_def_cfa_offset 8
 209              		@ sp needed
 210 002e 10BD     		pop	{r4, pc}
 211              	.L16:
 212              		.align	2
 213              	.L15:
 214 0030 00080240 		.word	1073874944
 215 0034 00000000 		.word	example_thread
 216 0038 00000000 		.word	.LANCHOR0
 217              		.cfi_endproc
 218              	.LFE256:
 219              		.size	app_example_init, .-app_example_init
 220              		.section	.rodata.str1.4,"aMS",%progbits,1
 221              		.align	2
 222              	.LC0:
 223 0000 4150505F 		.ascii	"APP_EXAMPLE\000"
 223      4558414D 
 223      504C4500 
 224              		.section	.bss.example_thread_wa,"aw",%nobits
 225              		.align	3
 226              		.set	.LANCHOR0,. + 0
ARM GAS  /tmp/ccmx2qiC.s 			page 5


 227              		.type	example_thread_wa, %object
 228              		.size	example_thread_wa, 2456
 229              	example_thread_wa:
 230 0000 00000000 		.space	2456
 230      00000000 
 230      00000000 
 230      00000000 
 230      00000000 
 231              		.text
 232              	.Letext0:
 233              		.file 3 "/usr/lib/gcc/arm-none-eabi/4.9.3/include/stddef.h"
 234              		.file 4 "/usr/arm-none-eabi/include/machine/_default_types.h"
 235              		.file 5 "/usr/arm-none-eabi/include/sys/_stdint.h"
 236              		.file 6 "ChibiOS_3.0.2/os/rt/ports/ARMCMx/compilers/GCC/chtypes.h"
 237              		.file 7 "ChibiOS_3.0.2/os/rt/include/chsystypes.h"
 238              		.file 8 "ChibiOS_3.0.2/os/rt/include/chschd.h"
 239              		.file 9 "ChibiOS_3.0.2/os/rt/ports/ARMCMx/chcore.h"
 240              		.file 10 "ChibiOS_3.0.2/os/rt/ports/ARMCMx/chcore_v7m.h"
 241              		.file 11 "ChibiOS_3.0.2/os/rt/include/chtm.h"
 242              		.file 12 "ChibiOS_3.0.2/os/rt/include/chsem.h"
 243              		.file 13 "ChibiOS_3.0.2/os/rt/include/chmtx.h"
 244              		.file 14 "ChibiOS_3.0.2/os/rt/include/chthreads.h"
 245              		.file 15 "ChibiOS_3.0.2/os/hal/ports/STM32/LLD/GPIOv2/pal_lld.h"
 246              		.file 16 "ChibiOS_3.0.2/os/ext/CMSIS/include/core_cm4.h"
 247              		.file 17 "./timeout.h"