ARM GAS  /tmp/ccy8OeyM.s 			page 1


   1              		.syntax unified
   2              		.cpu cortex-m4
   3              		.eabi_attribute 27, 1
   4              		.eabi_attribute 28, 1
   5              		.fpu fpv4-sp-d16
   6              		.eabi_attribute 20, 1
   7              		.eabi_attribute 21, 1
   8              		.eabi_attribute 23, 3
   9              		.eabi_attribute 24, 1
  10              		.eabi_attribute 25, 1
  11              		.eabi_attribute 26, 1
  12              		.eabi_attribute 30, 2
  13              		.eabi_attribute 34, 1
  14              		.eabi_attribute 18, 4
  15              		.thumb
  16              		.file	"commands.c"
  17              		.text
  18              	.Ltext0:
  19              		.cfi_sections	.debug_frame
  20              		.section	.text.detect_thread,"ax",%progbits
  21              		.align	2
  22              		.p2align 4,,15
  23              		.thumb
  24              		.thumb_func
  25              		.type	detect_thread, %function
  26              	detect_thread:
  27              	.LFB267:
  28              		.file 1 "commands.c"
  29              		.loc 1 870 0
  30              		.cfi_startproc
  31              		@ args = 0, pretend = 0, frame = 16
  32              		@ frame_needed = 0, uses_anonymous_args = 0
  33              	.LVL0:
  34 0000 2DE9F04F 		push	{r4, r5, r6, r7, r8, r9, r10, fp, lr}
  35              		.cfi_def_cfa_offset 36
  36              		.cfi_offset 4, -36
  37              		.cfi_offset 5, -32
  38              		.cfi_offset 6, -28
  39              		.cfi_offset 7, -24
  40              		.cfi_offset 8, -20
  41              		.cfi_offset 9, -16
  42              		.cfi_offset 10, -12
  43              		.cfi_offset 11, -8
  44              		.cfi_offset 14, -4
  45              	.LBB59:
  46              	.LBB60:
  47              		.file 2 "ChibiOS_3.0.2/os/rt/include/chregistry.h"
  48              		.loc 2 135 0
  49 0004 304B     		ldr	r3, .L11
  50              	.LBE60:
  51              	.LBE59:
  52              		.loc 1 875 0
  53 0006 314A     		ldr	r2, .L11+4
  54              	.LBB63:
  55              	.LBB61:
  56              		.loc 2 135 0
  57 0008 9B69     		ldr	r3, [r3, #24]
ARM GAS  /tmp/ccy8OeyM.s 			page 2


  58 000a 3149     		ldr	r1, .L11+8
  59 000c DFF8E4B0 		ldr	fp, .L11+44
  60 0010 DFF8E4A0 		ldr	r10, .L11+48
  61 0014 DFF8E490 		ldr	r9, .L11+52
  62 0018 DFF8CC80 		ldr	r8, .L11+32
  63 001c 2D4C     		ldr	r4, .L11+12
  64 001e 2E4F     		ldr	r7, .L11+16
  65              	.LBE61:
  66              	.LBE63:
  67              	.LBB64:
  68              		.loc 1 880 0
  69 0020 2E4E     		ldr	r6, .L11+20
  70              	.LBE64:
  71              		.loc 1 870 0
  72 0022 2DED028B 		fstmfdd	sp!, {d8}
  73              		.cfi_def_cfa_offset 44
  74              		.cfi_offset 80, -44
  75              		.cfi_offset 81, -40
  76              	.LBB75:
  77              		.loc 1 883 0
  78 0026 DFED2E8A 		flds	s17, .L11+24
  79 002a 9FED2E8A 		flds	s16, .L11+28
  80              	.LBE75:
  81              	.LBB76:
  82              	.LBB62:
  83              		.loc 2 135 0
  84 002e 9961     		str	r1, [r3, #24]
  85              	.LBE62:
  86              	.LBE76:
  87              		.loc 1 870 0
  88 0030 85B0     		sub	sp, sp, #20
  89              		.cfi_def_cfa_offset 64
  90              		.loc 1 875 0
  91 0032 1360     		str	r3, [r2]
  92              	.LVL1:
  93              	.L5:
  94              	.LBB77:
  95              		.loc 1 880 0
  96 0034 2C4D     		ldr	r5, .L11+32
  97              		.loc 1 878 0
  98 0036 0120     		movs	r0, #1
  99 0038 FFF7FEFF 		bl	chEvtWaitAny
 100              	.LVL2:
 101              		.loc 1 880 0
 102 003c 2946     		mov	r1, r5
 103 003e 9BED000A 		flds	s0, [fp]
 104 0042 DAED000A 		flds	s1, [r10]
 105 0046 99ED001A 		flds	s2, [r9]
 106 004a 2448     		ldr	r0, .L11+20
 107 004c 274A     		ldr	r2, .L11+36
 108 004e 224B     		ldr	r3, .L11+16
 109 0050 FFF7FEFF 		bl	conf_general_detect_motor_param
 110              	.LVL3:
 111 0054 0028     		cmp	r0, #0
 112 0056 31D0     		beq	.L2
 113 0058 D6ED007A 		flds	s15, [r6]
 114 005c 67EE887A 		fmuls	s15, s15, s16
ARM GAS  /tmp/ccy8OeyM.s 			page 3


 115 0060 FDEEE77A 		ftosizs	s15, s15
 116 0064 CDED017A 		fsts	s15, [sp, #4]	@ int
 117              	.L3:
 118              		.loc 1 888 0
 119 0068 0122     		movs	r2, #1
 120 006a 1723     		movs	r3, #23
 121              		.loc 1 889 0
 122 006c 1948     		ldr	r0, .L11+12
 123              		.loc 1 888 0
 124 006e 0392     		str	r2, [sp, #12]
 125              		.loc 1 889 0
 126 0070 0199     		ldr	r1, [sp, #4]
 127              		.loc 1 888 0
 128 0072 2370     		strb	r3, [r4]
 129              		.loc 1 889 0
 130 0074 03AA     		add	r2, sp, #12
 131 0076 FFF7FEFF 		bl	buffer_append_int32
 132              	.LVL4:
 133              		.loc 1 890 0
 134 007a D8ED007A 		flds	s15, [r8]
 135 007e 1548     		ldr	r0, .L11+12
 136 0080 67EE887A 		fmuls	s15, s15, s16
 137 0084 03AA     		add	r2, sp, #12
 138 0086 FDEEE77A 		ftosizs	s15, s15
 139 008a 17EE901A 		fmrs	r1, s15	@ int
 140 008e FFF7FEFF 		bl	buffer_append_int32
 141              	.LVL5:
 142              	.LBB65:
 143              	.LBB66:
 144              		.loc 1 94 0
 145 0092 1749     		ldr	r1, .L11+40
 146              	.LBE66:
 147              	.LBE65:
 148              		.loc 1 891 0
 149 0094 154A     		ldr	r2, .L11+36
 150 0096 039B     		ldr	r3, [sp, #12]
 151              	.LBB71:
 152              	.LBB67:
 153              		.loc 1 94 0
 154 0098 0D68     		ldr	r5, [r1]
 155              	.LBE67:
 156              	.LBE71:
 157              		.loc 1 891 0
 158 009a 03CA     		ldmia	r2!, {r0, r1}
 159 009c 04EB030E 		add	lr, r4, r3
 160 00a0 E050     		str	r0, [r4, r3]	@ unaligned
 161              		.loc 1 893 0
 162 00a2 3A68     		ldr	r2, [r7]
 163              		.loc 1 891 0
 164 00a4 CEF80410 		str	r1, [lr, #4]	@ unaligned
 165              		.loc 1 893 0
 166 00a8 0933     		adds	r3, r3, #9
 167              	.LBB72:
 168              	.LBB68:
 169              		.loc 1 95 0
 170 00aa 0A48     		ldr	r0, .L11+12
 171              	.LBE68:
ARM GAS  /tmp/ccy8OeyM.s 			page 4


 172              	.LBE72:
 173              		.loc 1 893 0
 174 00ac 0393     		str	r3, [sp, #12]
 175              	.LBB73:
 176              	.LBB69:
 177              		.loc 1 95 0
 178 00ae 1946     		mov	r1, r3
 179              	.LBE69:
 180              	.LBE73:
 181              		.loc 1 893 0
 182 00b0 8EF80820 		strb	r2, [lr, #8]
 183              	.LVL6:
 184              	.LBB74:
 185              	.LBB70:
 186              		.loc 1 94 0
 187 00b4 002D     		cmp	r5, #0
 188 00b6 BDD0     		beq	.L5
 189              		.loc 1 95 0
 190 00b8 A847     		blx	r5
 191              	.LVL7:
 192              	.LBE70:
 193              	.LBE74:
 194              	.LBE77:
 195              		.loc 1 895 0
 196 00ba BBE7     		b	.L5
 197              	.LVL8:
 198              	.L2:
 199              	.LBB78:
 200              		.loc 1 883 0
 201 00bc C6ED008A 		fsts	s17, [r6]
 202              		.loc 1 884 0
 203 00c0 C5ED008A 		fsts	s17, [r5]
 204 00c4 0190     		str	r0, [sp, #4]
 205 00c6 CFE7     		b	.L3
 206              	.L12:
 207              		.align	2
 208              	.L11:
 209 00c8 00000000 		.word	ch
 210 00cc 00000000 		.word	.LANCHOR0
 211 00d0 00000000 		.word	.LC0
 212 00d4 00000000 		.word	.LANCHOR8
 213 00d8 00000000 		.word	.LANCHOR7
 214 00dc 00000000 		.word	.LANCHOR4
 215 00e0 00000000 		.word	0
 216 00e4 00007A44 		.word	1148846080
 217 00e8 00000000 		.word	.LANCHOR5
 218 00ec 00000000 		.word	.LANCHOR6
 219 00f0 00000000 		.word	.LANCHOR9
 220 00f4 00000000 		.word	.LANCHOR1
 221 00f8 00000000 		.word	.LANCHOR2
 222 00fc 00000000 		.word	.LANCHOR3
 223              	.LBE78:
 224              		.cfi_endproc
 225              	.LFE267:
 226              		.size	detect_thread, .-detect_thread
 227              		.section	.text.commands_init,"ax",%progbits
 228              		.align	2
ARM GAS  /tmp/ccy8OeyM.s 			page 5


 229              		.p2align 4,,15
 230              		.global	commands_init
 231              		.thumb
 232              		.thumb_func
 233              		.type	commands_init, %function
 234              	commands_init:
 235              	.LFB256:
 236              		.loc 1 70 0
 237              		.cfi_startproc
 238              		@ args = 0, pretend = 0, frame = 0
 239              		@ frame_needed = 0, uses_anonymous_args = 0
 240 0000 00B5     		push	{lr}
 241              		.cfi_def_cfa_offset 4
 242              		.cfi_offset 14, -4
 243 0002 83B0     		sub	sp, sp, #12
 244              		.cfi_def_cfa_offset 16
 245              		.loc 1 71 0
 246 0004 0023     		movs	r3, #0
 247 0006 0093     		str	r3, [sp]
 248 0008 40F69811 		movw	r1, #2456
 249 000c 034B     		ldr	r3, .L15
 250 000e 0448     		ldr	r0, .L15+4
 251 0010 4022     		movs	r2, #64
 252 0012 FFF7FEFF 		bl	chThdCreateStatic
 253              	.LVL9:
 254              		.loc 1 72 0
 255 0016 03B0     		add	sp, sp, #12
 256              		.cfi_def_cfa_offset 4
 257              		@ sp needed
 258 0018 5DF804FB 		ldr	pc, [sp], #4
 259              	.L16:
 260              		.align	2
 261              	.L15:
 262 001c 00000000 		.word	detect_thread
 263 0020 00000000 		.word	.LANCHOR10
 264              		.cfi_endproc
 265              	.LFE256:
 266              		.size	commands_init, .-commands_init
 267              		.section	.text.commands_set_send_func,"ax",%progbits
 268              		.align	2
 269              		.p2align 4,,15
 270              		.global	commands_set_send_func
 271              		.thumb
 272              		.thumb_func
 273              		.type	commands_set_send_func, %function
 274              	commands_set_send_func:
 275              	.LFB257:
 276              		.loc 1 80 0
 277              		.cfi_startproc
 278              		@ args = 0, pretend = 0, frame = 0
 279              		@ frame_needed = 0, uses_anonymous_args = 0
 280              		@ link register save eliminated.
 281              	.LVL10:
 282              		.loc 1 81 0
 283 0000 014B     		ldr	r3, .L18
 284 0002 1860     		str	r0, [r3]
 285 0004 7047     		bx	lr
ARM GAS  /tmp/ccy8OeyM.s 			page 6


 286              	.L19:
 287 0006 00BF     		.align	2
 288              	.L18:
 289 0008 00000000 		.word	.LANCHOR9
 290              		.cfi_endproc
 291              	.LFE257:
 292              		.size	commands_set_send_func, .-commands_set_send_func
 293              		.section	.text.commands_send_packet,"ax",%progbits
 294              		.align	2
 295              		.p2align 4,,15
 296              		.global	commands_send_packet
 297              		.thumb
 298              		.thumb_func
 299              		.type	commands_send_packet, %function
 300              	commands_send_packet:
 301              	.LFB258:
 302              		.loc 1 93 0
 303              		.cfi_startproc
 304              		@ args = 0, pretend = 0, frame = 0
 305              		@ frame_needed = 0, uses_anonymous_args = 0
 306              		@ link register save eliminated.
 307              	.LVL11:
 308              		.loc 1 94 0
 309 0000 024B     		ldr	r3, .L22
 310 0002 1B68     		ldr	r3, [r3]
 311 0004 03B1     		cbz	r3, .L20
 312              		.loc 1 95 0
 313 0006 1847     		bx	r3	@ indirect register sibling call
 314              	.LVL12:
 315              	.L20:
 316 0008 7047     		bx	lr
 317              	.L23:
 318 000a 00BF     		.align	2
 319              	.L22:
 320 000c 00000000 		.word	.LANCHOR9
 321              		.cfi_endproc
 322              	.LFE258:
 323              		.size	commands_send_packet, .-commands_send_packet
 324              		.section	.text.commands_process_packet,"ax",%progbits
 325              		.align	2
 326              		.p2align 4,,15
 327              		.global	commands_process_packet
 328              		.thumb
 329              		.thumb_func
 330              		.type	commands_process_packet, %function
 331              	commands_process_packet:
 332              	.LFB259:
 333              		.loc 1 108 0
 334              		.cfi_startproc
 335              		@ args = 0, pretend = 0, frame = 176
 336              		@ frame_needed = 0, uses_anonymous_args = 0
 337              	.LVL13:
 338              		.loc 1 109 0
 339 0000 A9B3     		cbz	r1, .L130
 340              		.loc 1 108 0
 341 0002 2DE9F047 		push	{r4, r5, r6, r7, r8, r9, r10, lr}
 342              		.cfi_def_cfa_offset 32
ARM GAS  /tmp/ccy8OeyM.s 			page 7


 343              		.cfi_offset 4, -32
 344              		.cfi_offset 5, -28
 345              		.cfi_offset 6, -24
 346              		.cfi_offset 7, -20
 347              		.cfi_offset 8, -16
 348              		.cfi_offset 9, -12
 349              		.cfi_offset 10, -8
 350              		.cfi_offset 14, -4
 351 0006 2DED068B 		fstmfdd	sp!, {d8, d9, d10}
 352              		.cfi_def_cfa_offset 56
 353              		.cfi_offset 80, -56
 354              		.cfi_offset 81, -52
 355              		.cfi_offset 82, -48
 356              		.cfi_offset 83, -44
 357              		.cfi_offset 84, -40
 358              		.cfi_offset 85, -36
 359              		.loc 1 124 0
 360 000a 0446     		mov	r4, r0
 361              		.loc 1 108 0
 362 000c ACB0     		sub	sp, sp, #176
 363              		.cfi_def_cfa_offset 232
 364              		.loc 1 124 0
 365 000e 14F8018B 		ldrb	r8, [r4], #1	@ zero_extendqisi2
 366              	.LVL14:
 367              		.loc 1 114 0
 368 0012 0023     		movs	r3, #0
 369 0014 0746     		mov	r7, r0
 370 0016 0293     		str	r3, [sp, #8]
 371              		.loc 1 126 0
 372 0018 4D1E     		subs	r5, r1, #1
 373              	.LVL15:
 374              		.loc 1 128 0
 375 001a B8F1230F 		cmp	r8, #35
 376 001e 00F2B681 		bhi	.L24
 377 0022 DFE818F0 		tbh	[pc, r8, lsl #1]
 378              	.L28:
 379 0026 E903     		.2byte	(.L27-.L28)/2
 380 0028 E603     		.2byte	(.L29-.L28)/2
 381 002a D103     		.2byte	(.L30-.L28)/2
 382 002c B503     		.2byte	(.L31-.L28)/2
 383 002e 4C02     		.2byte	(.L32-.L28)/2
 384 0030 3B02     		.2byte	(.L33-.L28)/2
 385 0032 2A02     		.2byte	(.L34-.L28)/2
 386 0034 1902     		.2byte	(.L35-.L28)/2
 387 0036 0C02     		.2byte	(.L36-.L28)/2
 388 0038 2D04     		.2byte	(.L37-.L28)/2
 389 003a B901     		.2byte	(.L38-.L28)/2
 390 003c B401     		.2byte	(.L24-.L28)/2
 391 003e D508     		.2byte	(.L39-.L28)/2
 392 0040 E105     		.2byte	(.L40-.L28)/2
 393 0042 E105     		.2byte	(.L40-.L28)/2
 394 0044 E30B     		.2byte	(.L41-.L28)/2
 395 0046 2500     		.2byte	(.L42-.L28)/2
 396 0048 2500     		.2byte	(.L42-.L28)/2
 397 004a C00B     		.2byte	(.L43-.L28)/2
 398 004c CA05     		.2byte	(.L44-.L28)/2
 399 004e B401     		.2byte	(.L24-.L28)/2
ARM GAS  /tmp/ccy8OeyM.s 			page 8


 400 0050 B401     		.2byte	(.L24-.L28)/2
 401 0052 B401     		.2byte	(.L24-.L28)/2
 402 0054 9E0B     		.2byte	(.L45-.L28)/2
 403 0056 8B05     		.2byte	(.L46-.L28)/2
 404 0058 4705     		.2byte	(.L47-.L28)/2
 405 005a CD04     		.2byte	(.L48-.L28)/2
 406 005c 8004     		.2byte	(.L49-.L28)/2
 407 005e 7E04     		.2byte	(.L50-.L28)/2
 408 0060 D001     		.2byte	(.L51-.L28)/2
 409 0062 DD01     		.2byte	(.L52-.L28)/2
 410 0064 4C04     		.2byte	(.L53-.L28)/2
 411 0066 3E04     		.2byte	(.L54-.L28)/2
 412 0068 2604     		.2byte	(.L55-.L28)/2
 413 006a 0104     		.2byte	(.L56-.L28)/2
 414 006c F903     		.2byte	(.L57-.L28)/2
 415              	.LVL16:
 416              		.p2align 1
 417              	.L130:
 418              		.cfi_def_cfa_offset 0
 419              		.cfi_restore 4
 420              		.cfi_restore 5
 421              		.cfi_restore 6
 422              		.cfi_restore 7
 423              		.cfi_restore 8
 424              		.cfi_restore 9
 425              		.cfi_restore 10
 426              		.cfi_restore 14
 427              		.cfi_restore 80
 428              		.cfi_restore 81
 429              		.cfi_restore 82
 430              		.cfi_restore 83
 431              		.cfi_restore 84
 432              		.cfi_restore 85
 433 006e 7047     		bx	lr
 434              	.LVL17:
 435              	.L42:
 436              		.cfi_def_cfa_offset 232
 437              		.cfi_offset 4, -32
 438              		.cfi_offset 5, -28
 439              		.cfi_offset 6, -24
 440              		.cfi_offset 7, -20
 441              		.cfi_offset 8, -16
 442              		.cfi_offset 9, -12
 443              		.cfi_offset 10, -8
 444              		.cfi_offset 14, -4
 445              		.cfi_offset 80, -56
 446              		.cfi_offset 81, -52
 447              		.cfi_offset 82, -48
 448              		.cfi_offset 83, -44
 449              		.cfi_offset 84, -40
 450              		.cfi_offset 85, -36
 451              		.loc 1 524 0
 452 0070 B8F1100F 		cmp	r8, #16
 453 0074 01F09485 		beq	.L141
 454              		.loc 1 527 0
 455 0078 04A8     		add	r0, sp, #16
 456 007a FFF7FEFF 		bl	conf_general_get_default_app_configuration
ARM GAS  /tmp/ccy8OeyM.s 			page 9


 457              	.LVL18:
 458              	.L65:
 459              		.loc 1 531 0
 460 007e D34C     		ldr	r4, .L146
 461              	.LVL19:
 462              		.loc 1 532 0
 463 0080 9DF81050 		ldrb	r5, [sp, #16]	@ zero_extendqisi2
 464              	.LVL20:
 465              		.loc 1 533 0
 466 0084 0599     		ldr	r1, [sp, #20]
 467              		.loc 1 534 0
 468 0086 9FEDD28A 		flds	s16, .L146+4
 469              		.loc 1 531 0
 470 008a 84F80080 		strb	r8, [r4]
 471              		.loc 1 532 0
 472 008e 0223     		movs	r3, #2
 473              		.loc 1 533 0
 474 0090 2046     		mov	r0, r4
 475 0092 02AA     		add	r2, sp, #8
 476              		.loc 1 532 0
 477 0094 0293     		str	r3, [sp, #8]
 478 0096 6570     		strb	r5, [r4, #1]
 479              		.loc 1 533 0
 480 0098 FFF7FEFF 		bl	buffer_append_uint32
 481              	.LVL21:
 482              		.loc 1 534 0
 483 009c DDED067A 		flds	s15, [sp, #24]
 484 00a0 67EE887A 		fmuls	s15, s15, s16
 485 00a4 2046     		mov	r0, r4
 486 00a6 FDEEE77A 		ftosizs	s15, s15
 487 00aa 02AA     		add	r2, sp, #8
 488 00ac 17EE901A 		fmrs	r1, s15	@ int
 489 00b0 FFF7FEFF 		bl	buffer_append_int32
 490              	.LVL22:
 491              		.loc 1 535 0
 492 00b4 029B     		ldr	r3, [sp, #8]
 493 00b6 9DF81C20 		ldrb	r2, [sp, #28]	@ zero_extendqisi2
 494 00ba E254     		strb	r2, [r4, r3]
 495              		.loc 1 536 0
 496 00bc BDF82010 		ldrh	r1, [sp, #32]
 497              		.loc 1 535 0
 498 00c0 0133     		adds	r3, r3, #1
 499              		.loc 1 536 0
 500 00c2 2046     		mov	r0, r4
 501 00c4 02AA     		add	r2, sp, #8
 502              		.loc 1 535 0
 503 00c6 0293     		str	r3, [sp, #8]
 504              		.loc 1 536 0
 505 00c8 FFF7FEFF 		bl	buffer_append_uint16
 506              	.LVL23:
 507              		.loc 1 541 0
 508 00cc DDED0B7A 		flds	s15, [sp, #44]
 509              		.loc 1 538 0
 510 00d0 029B     		ldr	r3, [sp, #8]
 511 00d2 9DF82420 		ldrb	r2, [sp, #36]	@ zero_extendqisi2
 512 00d6 E254     		strb	r2, [r4, r3]
 513              		.loc 1 541 0
ARM GAS  /tmp/ccy8OeyM.s 			page 10


 514 00d8 67EE887A 		fmuls	s15, s15, s16
 515              		.loc 1 540 0
 516 00dc E518     		adds	r5, r4, r3
 517              		.loc 1 541 0
 518 00de FDEEE77A 		ftosizs	s15, s15
 519              		.loc 1 540 0
 520 00e2 0233     		adds	r3, r3, #2
 521 00e4 9DF82860 		ldrb	r6, [sp, #40]	@ zero_extendqisi2
 522 00e8 0293     		str	r3, [sp, #8]
 523              		.loc 1 541 0
 524 00ea 17EE901A 		fmrs	r1, s15	@ int
 525 00ee 2046     		mov	r0, r4
 526 00f0 02AA     		add	r2, sp, #8
 527              		.loc 1 540 0
 528 00f2 6E70     		strb	r6, [r5, #1]
 529              		.loc 1 541 0
 530 00f4 FFF7FEFF 		bl	buffer_append_int32
 531              	.LVL24:
 532              		.loc 1 542 0
 533 00f8 DDED0C7A 		flds	s15, [sp, #48]
 534 00fc 67EE887A 		fmuls	s15, s15, s16
 535 0100 2046     		mov	r0, r4
 536 0102 FDEEE77A 		ftosizs	s15, s15
 537 0106 02AA     		add	r2, sp, #8
 538 0108 17EE901A 		fmrs	r1, s15	@ int
 539 010c FFF7FEFF 		bl	buffer_append_int32
 540              	.LVL25:
 541              		.loc 1 543 0
 542 0110 DDED0D7A 		flds	s15, [sp, #52]
 543 0114 67EE887A 		fmuls	s15, s15, s16
 544 0118 2046     		mov	r0, r4
 545 011a FDEEE77A 		ftosizs	s15, s15
 546 011e 02AA     		add	r2, sp, #8
 547 0120 17EE901A 		fmrs	r1, s15	@ int
 548 0124 FFF7FEFF 		bl	buffer_append_int32
 549              	.LVL26:
 550              		.loc 1 544 0
 551 0128 DDED0E7A 		flds	s15, [sp, #56]
 552 012c 67EE887A 		fmuls	s15, s15, s16
 553 0130 2046     		mov	r0, r4
 554 0132 FDEEE77A 		ftosizs	s15, s15
 555 0136 02AA     		add	r2, sp, #8
 556 0138 17EE901A 		fmrs	r1, s15	@ int
 557 013c FFF7FEFF 		bl	buffer_append_int32
 558              	.LVL27:
 559              		.loc 1 547 0
 560 0140 DDED107A 		flds	s15, [sp, #64]
 561              		.loc 1 545 0
 562 0144 029B     		ldr	r3, [sp, #8]
 563 0146 9DF83C20 		ldrb	r2, [sp, #60]	@ zero_extendqisi2
 564 014a E254     		strb	r2, [r4, r3]
 565              		.loc 1 547 0
 566 014c 67EE887A 		fmuls	s15, s15, s16
 567              		.loc 1 546 0
 568 0150 E518     		adds	r5, r4, r3
 569              		.loc 1 547 0
 570 0152 FDEEE77A 		ftosizs	s15, s15
ARM GAS  /tmp/ccy8OeyM.s 			page 11


 571              		.loc 1 546 0
 572 0156 0233     		adds	r3, r3, #2
 573 0158 9DF83D60 		ldrb	r6, [sp, #61]	@ zero_extendqisi2
 574 015c 0293     		str	r3, [sp, #8]
 575              		.loc 1 547 0
 576 015e 17EE901A 		fmrs	r1, s15	@ int
 577 0162 2046     		mov	r0, r4
 578 0164 02AA     		add	r2, sp, #8
 579              		.loc 1 546 0
 580 0166 6E70     		strb	r6, [r5, #1]
 581              		.loc 1 547 0
 582 0168 FFF7FEFF 		bl	buffer_append_int32
 583              	.LVL28:
 584              		.loc 1 548 0
 585 016c DDED117A 		flds	s15, [sp, #68]
 586 0170 67EE887A 		fmuls	s15, s15, s16
 587 0174 2046     		mov	r0, r4
 588 0176 FDEEE77A 		ftosizs	s15, s15
 589 017a 02AA     		add	r2, sp, #8
 590 017c 17EE901A 		fmrs	r1, s15	@ int
 591 0180 FFF7FEFF 		bl	buffer_append_int32
 592              	.LVL29:
 593              		.loc 1 551 0
 594 0184 DDED137A 		flds	s15, [sp, #76]
 595              		.loc 1 549 0
 596 0188 029B     		ldr	r3, [sp, #8]
 597 018a 9DF84820 		ldrb	r2, [sp, #72]	@ zero_extendqisi2
 598 018e E254     		strb	r2, [r4, r3]
 599              		.loc 1 551 0
 600 0190 67EE887A 		fmuls	s15, s15, s16
 601              		.loc 1 550 0
 602 0194 E518     		adds	r5, r4, r3
 603              		.loc 1 551 0
 604 0196 FDEEE77A 		ftosizs	s15, s15
 605              		.loc 1 550 0
 606 019a 9DF84960 		ldrb	r6, [sp, #73]	@ zero_extendqisi2
 607 019e 6E70     		strb	r6, [r5, #1]
 608              		.loc 1 551 0
 609 01a0 17EE901A 		fmrs	r1, s15	@ int
 610              		.loc 1 550 0
 611 01a4 0233     		adds	r3, r3, #2
 612              		.loc 1 551 0
 613 01a6 2046     		mov	r0, r4
 614 01a8 02AA     		add	r2, sp, #8
 615              		.loc 1 550 0
 616 01aa 0293     		str	r3, [sp, #8]
 617              		.loc 1 551 0
 618 01ac FFF7FEFF 		bl	buffer_append_int32
 619              	.LVL30:
 620              		.loc 1 554 0
 621 01b0 DDED157A 		flds	s15, [sp, #84]
 622              		.loc 1 553 0
 623 01b4 029B     		ldr	r3, [sp, #8]
 624 01b6 9DF85020 		ldrb	r2, [sp, #80]	@ zero_extendqisi2
 625 01ba E254     		strb	r2, [r4, r3]
 626              		.loc 1 554 0
 627 01bc 67EE887A 		fmuls	s15, s15, s16
ARM GAS  /tmp/ccy8OeyM.s 			page 12


 628              		.loc 1 553 0
 629 01c0 0133     		adds	r3, r3, #1
 630              		.loc 1 554 0
 631 01c2 FDEEE77A 		ftosizs	s15, s15
 632 01c6 2046     		mov	r0, r4
 633 01c8 17EE901A 		fmrs	r1, s15	@ int
 634 01cc 02AA     		add	r2, sp, #8
 635              		.loc 1 553 0
 636 01ce 0293     		str	r3, [sp, #8]
 637              		.loc 1 554 0
 638 01d0 FFF7FEFF 		bl	buffer_append_int32
 639              	.LVL31:
 640              		.loc 1 555 0
 641 01d4 DDED167A 		flds	s15, [sp, #88]
 642 01d8 67EE887A 		fmuls	s15, s15, s16
 643 01dc 2046     		mov	r0, r4
 644 01de FDEEE77A 		ftosizs	s15, s15
 645 01e2 02AA     		add	r2, sp, #8
 646 01e4 17EE901A 		fmrs	r1, s15	@ int
 647 01e8 FFF7FEFF 		bl	buffer_append_int32
 648              	.LVL32:
 649              		.loc 1 556 0
 650 01ec DDED177A 		flds	s15, [sp, #92]
 651 01f0 67EE887A 		fmuls	s15, s15, s16
 652 01f4 2046     		mov	r0, r4
 653 01f6 FDEEE77A 		ftosizs	s15, s15
 654 01fa 02AA     		add	r2, sp, #8
 655 01fc 17EE901A 		fmrs	r1, s15	@ int
 656 0200 FFF7FEFF 		bl	buffer_append_int32
 657              	.LVL33:
 658              		.loc 1 562 0
 659 0204 DDED1A7A 		flds	s15, [sp, #104]
 660              		.loc 1 557 0
 661 0208 029B     		ldr	r3, [sp, #8]
 662 020a 9DF86020 		ldrb	r2, [sp, #96]	@ zero_extendqisi2
 663              		.loc 1 558 0
 664 020e 9DF861C0 		ldrb	ip, [sp, #97]	@ zero_extendqisi2
 665              		.loc 1 559 0
 666 0212 9DF862E0 		ldrb	lr, [sp, #98]	@ zero_extendqisi2
 667              		.loc 1 557 0
 668 0216 E254     		strb	r2, [r4, r3]
 669              		.loc 1 562 0
 670 0218 67EE887A 		fmuls	s15, s15, s16
 671              		.loc 1 558 0
 672 021c E518     		adds	r5, r4, r3
 673              		.loc 1 562 0
 674 021e FDEEE77A 		ftosizs	s15, s15
 675              		.loc 1 561 0
 676 0222 0533     		adds	r3, r3, #5
 677              		.loc 1 560 0
 678 0224 9DF86370 		ldrb	r7, [sp, #99]	@ zero_extendqisi2
 679              	.LVL34:
 680              		.loc 1 561 0
 681 0228 9DF86460 		ldrb	r6, [sp, #100]	@ zero_extendqisi2
 682              		.loc 1 558 0
 683 022c 85F801C0 		strb	ip, [r5, #1]
 684              		.loc 1 562 0
ARM GAS  /tmp/ccy8OeyM.s 			page 13


 685 0230 17EE901A 		fmrs	r1, s15	@ int
 686 0234 2046     		mov	r0, r4
 687 0236 02AA     		add	r2, sp, #8
 688              		.loc 1 559 0
 689 0238 85F802E0 		strb	lr, [r5, #2]
 690              		.loc 1 561 0
 691 023c 0293     		str	r3, [sp, #8]
 692              		.loc 1 560 0
 693 023e EF70     		strb	r7, [r5, #3]
 694              		.loc 1 561 0
 695 0240 2E71     		strb	r6, [r5, #4]
 696              		.loc 1 562 0
 697 0242 FFF7FEFF 		bl	buffer_append_int32
 698              	.LVL35:
 699              		.loc 1 563 0
 700 0246 DDED1B7A 		flds	s15, [sp, #108]
 701 024a 67EE887A 		fmuls	s15, s15, s16
 702 024e 2046     		mov	r0, r4
 703 0250 FDEEE77A 		ftosizs	s15, s15
 704 0254 02AA     		add	r2, sp, #8
 705 0256 17EE901A 		fmrs	r1, s15	@ int
 706 025a FFF7FEFF 		bl	buffer_append_int32
 707              	.LVL36:
 708              		.loc 1 566 0
 709 025e DDED1D7A 		flds	s15, [sp, #116]
 710              		.loc 1 564 0
 711 0262 029B     		ldr	r3, [sp, #8]
 712 0264 9DF87020 		ldrb	r2, [sp, #112]	@ zero_extendqisi2
 713 0268 E254     		strb	r2, [r4, r3]
 714              		.loc 1 566 0
 715 026a 67EE887A 		fmuls	s15, s15, s16
 716              		.loc 1 565 0
 717 026e E518     		adds	r5, r4, r3
 718              		.loc 1 566 0
 719 0270 FDEEE77A 		ftosizs	s15, s15
 720              		.loc 1 565 0
 721 0274 0233     		adds	r3, r3, #2
 722              		.loc 1 566 0
 723 0276 17EE901A 		fmrs	r1, s15	@ int
 724              		.loc 1 565 0
 725 027a 9DF87160 		ldrb	r6, [sp, #113]	@ zero_extendqisi2
 726 027e 0293     		str	r3, [sp, #8]
 727              		.loc 1 566 0
 728 0280 2046     		mov	r0, r4
 729 0282 02AA     		add	r2, sp, #8
 730              		.loc 1 565 0
 731 0284 6E70     		strb	r6, [r5, #1]
 732              		.loc 1 566 0
 733 0286 FFF7FEFF 		bl	buffer_append_int32
 734              	.LVL37:
 735              		.loc 1 567 0
 736 028a 2046     		mov	r0, r4
 737 028c 02AA     		add	r2, sp, #8
 738 028e BDF87810 		ldrh	r1, [sp, #120]
 739 0292 FFF7FEFF 		bl	buffer_append_uint16
 740              	.LVL38:
 741              		.loc 1 569 0
ARM GAS  /tmp/ccy8OeyM.s 			page 14


 742 0296 2046     		mov	r0, r4
 743 0298 02AA     		add	r2, sp, #8
 744 029a 1F99     		ldr	r1, [sp, #124]
 745 029c FFF7FEFF 		bl	buffer_append_uint32
 746              	.LVL39:
 747              		.loc 1 571 0
 748 02a0 029B     		ldr	r3, [sp, #8]
 749 02a2 9DF88020 		ldrb	r2, [sp, #128]	@ zero_extendqisi2
 750 02a6 E254     		strb	r2, [r4, r3]
 751              		.loc 1 572 0
 752 02a8 F0EE480A 		fcpys	s1, s16
 753              		.loc 1 571 0
 754 02ac 0133     		adds	r3, r3, #1
 755              		.loc 1 572 0
 756 02ae 2046     		mov	r0, r4
 757 02b0 02A9     		add	r1, sp, #8
 758 02b2 9DED210A 		flds	s0, [sp, #132]
 759              		.loc 1 571 0
 760 02b6 0293     		str	r3, [sp, #8]
 761              		.loc 1 572 0
 762 02b8 FFF7FEFF 		bl	buffer_append_float32
 763              	.LVL40:
 764              		.loc 1 573 0
 765 02bc F0EE480A 		fcpys	s1, s16
 766 02c0 2046     		mov	r0, r4
 767 02c2 02A9     		add	r1, sp, #8
 768 02c4 9DED220A 		flds	s0, [sp, #136]
 769 02c8 FFF7FEFF 		bl	buffer_append_float32
 770              	.LVL41:
 771              		.loc 1 574 0
 772 02cc F0EE480A 		fcpys	s1, s16
 773 02d0 2046     		mov	r0, r4
 774 02d2 02A9     		add	r1, sp, #8
 775 02d4 9DED230A 		flds	s0, [sp, #140]
 776 02d8 FFF7FEFF 		bl	buffer_append_float32
 777              	.LVL42:
 778              		.loc 1 575 0
 779 02dc F0EE480A 		fcpys	s1, s16
 780 02e0 2046     		mov	r0, r4
 781 02e2 02A9     		add	r1, sp, #8
 782 02e4 9DED240A 		flds	s0, [sp, #144]
 783 02e8 FFF7FEFF 		bl	buffer_append_float32
 784              	.LVL43:
 785              		.loc 1 576 0
 786 02ec F0EE480A 		fcpys	s1, s16
 787 02f0 2046     		mov	r0, r4
 788 02f2 02A9     		add	r1, sp, #8
 789 02f4 9DED250A 		flds	s0, [sp, #148]
 790 02f8 FFF7FEFF 		bl	buffer_append_float32
 791              	.LVL44:
 792              		.loc 1 577 0
 793 02fc F0EE480A 		fcpys	s1, s16
 794 0300 2046     		mov	r0, r4
 795 0302 02A9     		add	r1, sp, #8
 796 0304 9DED260A 		flds	s0, [sp, #152]
 797 0308 FFF7FEFF 		bl	buffer_append_float32
 798              	.LVL45:
ARM GAS  /tmp/ccy8OeyM.s 			page 15


 799              		.loc 1 580 0
 800 030c DDED287A 		flds	s15, [sp, #160]
 801              		.loc 1 578 0
 802 0310 029B     		ldr	r3, [sp, #8]
 803 0312 9DF89C20 		ldrb	r2, [sp, #156]	@ zero_extendqisi2
 804 0316 E254     		strb	r2, [r4, r3]
 805              		.loc 1 580 0
 806 0318 27EE888A 		fmuls	s16, s15, s16
 807              		.loc 1 579 0
 808 031c E518     		adds	r5, r4, r3
 809              		.loc 1 580 0
 810 031e FDEEC87A 		ftosizs	s15, s16
 811              		.loc 1 579 0
 812 0322 0233     		adds	r3, r3, #2
 813 0324 9DF89D60 		ldrb	r6, [sp, #157]	@ zero_extendqisi2
 814 0328 0293     		str	r3, [sp, #8]
 815              		.loc 1 580 0
 816 032a 02AA     		add	r2, sp, #8
 817 032c 17EE901A 		fmrs	r1, s15	@ int
 818 0330 2046     		mov	r0, r4
 819              		.loc 1 579 0
 820 0332 6E70     		strb	r6, [r5, #1]
 821              		.loc 1 580 0
 822 0334 FFF7FEFF 		bl	buffer_append_int32
 823              	.LVL46:
 824              		.loc 1 588 0
 825 0338 2CAB     		add	r3, sp, #176
 826              		.loc 1 582 0
 827 033a 029A     		ldr	r2, [sp, #8]
 828              		.loc 1 588 0
 829 033c 33F8069D 		ldrh	r9, [r3, #-6]!	@ unaligned
 830              	.LBB79:
 831              	.LBB80:
 832              		.loc 1 94 0
 833 0340 2449     		ldr	r1, .L146+8
 834              	.LBE80:
 835              	.LBE79:
 836              		.loc 1 588 0
 837 0342 93F802A0 		ldrb	r10, [r3, #2]	@ zero_extendqisi2
 838              	.LBB83:
 839              	.LBB81:
 840              		.loc 1 94 0
 841 0346 0D68     		ldr	r5, [r1]
 842              	.LBE81:
 843              	.LBE83:
 844              		.loc 1 582 0
 845 0348 9DF8A410 		ldrb	r1, [sp, #164]	@ zero_extendqisi2
 846 034c A154     		strb	r1, [r4, r2]
 847              		.loc 1 583 0
 848 034e A318     		adds	r3, r4, r2
 849 0350 9DF8A580 		ldrb	r8, [sp, #165]	@ zero_extendqisi2
 850              	.LVL47:
 851              		.loc 1 584 0
 852 0354 9DF8A6C0 		ldrb	ip, [sp, #166]	@ zero_extendqisi2
 853              		.loc 1 585 0
 854 0358 9DF8A7E0 		ldrb	lr, [sp, #167]	@ zero_extendqisi2
 855              		.loc 1 586 0
ARM GAS  /tmp/ccy8OeyM.s 			page 16


 856 035c 9DF8A870 		ldrb	r7, [sp, #168]	@ zero_extendqisi2
 857              		.loc 1 587 0
 858 0360 9DF8A960 		ldrb	r6, [sp, #169]	@ zero_extendqisi2
 859              		.loc 1 590 0
 860 0364 9DF8AD00 		ldrb	r0, [sp, #173]	@ zero_extendqisi2
 861              		.loc 1 588 0
 862 0368 83F808A0 		strb	r10, [r3, #8]
 863              		.loc 1 590 0
 864 036c 02F10A01 		add	r1, r2, #10
 865              		.loc 1 588 0
 866 0370 A3F80690 		strh	r9, [r3, #6]	@ unaligned
 867              		.loc 1 590 0
 868 0374 0291     		str	r1, [sp, #8]
 869              		.loc 1 583 0
 870 0376 83F80180 		strb	r8, [r3, #1]
 871              		.loc 1 584 0
 872 037a 83F802C0 		strb	ip, [r3, #2]
 873              		.loc 1 585 0
 874 037e 83F803E0 		strb	lr, [r3, #3]
 875              		.loc 1 586 0
 876 0382 1F71     		strb	r7, [r3, #4]
 877              		.loc 1 587 0
 878 0384 5E71     		strb	r6, [r3, #5]
 879              		.loc 1 590 0
 880 0386 5872     		strb	r0, [r3, #9]
 881              	.LVL48:
 882              	.LBB84:
 883              	.LBB82:
 884              		.loc 1 94 0
 885 0388 0DB1     		cbz	r5, .L24
 886              		.loc 1 95 0
 887 038a 2046     		mov	r0, r4
 888 038c A847     		blx	r5
 889              	.LVL49:
 890              	.L24:
 891              	.LBE82:
 892              	.LBE84:
 893              		.loc 1 795 0
 894 038e 2CB0     		add	sp, sp, #176
 895              		.cfi_remember_state
 896              		.cfi_def_cfa_offset 56
 897              		@ sp needed
 898 0390 BDEC068B 		fldmfdd	sp!, {d8-d10}
 899              		.cfi_restore 84
 900              		.cfi_restore 85
 901              		.cfi_restore 82
 902              		.cfi_restore 83
 903              		.cfi_restore 80
 904              		.cfi_restore 81
 905              		.cfi_def_cfa_offset 32
 906 0394 BDE8F087 		pop	{r4, r5, r6, r7, r8, r9, r10, pc}
 907              	.LVL50:
 908              	.L38:
 909              		.cfi_restore_state
 910              		.loc 1 219 0
 911 0398 FFF7FEFF 		bl	mc_interface_get_configuration
 912              	.LVL51:
ARM GAS  /tmp/ccy8OeyM.s 			page 17


 913 039c 0E4C     		ldr	r4, .L146+12
 914              	.LVL52:
 915 039e 0146     		mov	r1, r0
 916 03a0 4FF49A72 		mov	r2, #308
 917 03a4 2046     		mov	r0, r4
 918 03a6 FFF7FEFF 		bl	memcpy
 919              	.LVL53:
 920              		.loc 1 222 0
 921 03aa 0C49     		ldr	r1, .L146+16
 922 03ac 7B78     		ldrb	r3, [r7, #1]	@ zero_extendqisi2
 923              		.loc 1 224 0
 924 03ae A278     		ldrb	r2, [r4, #2]	@ zero_extendqisi2
 925              		.loc 1 222 0
 926 03b0 0B70     		strb	r3, [r1]
 927 03b2 0121     		movs	r1, #1
 928 03b4 0291     		str	r1, [sp, #8]
 929              		.loc 1 224 0
 930 03b6 32B9     		cbnz	r2, .L51
 931              		.loc 1 225 0
 932 03b8 002B     		cmp	r3, #0
 933 03ba 01F0FA83 		beq	.L142
 934              		.loc 1 227 0
 935 03be 012B     		cmp	r3, #1
 936 03c0 01D1     		bne	.L51
 937              		.loc 1 228 0
 938 03c2 FFF7FEFF 		bl	mcpwm_set_detect
 939              	.LVL54:
 940              	.L51:
 941              		.loc 1 742 0
 942 03c6 FFF7FEFF 		bl	timeout_reset
 943              	.LVL55:
 944              		.loc 1 743 0
 945 03ca E0E7     		b	.L24
 946              	.L147:
 947              		.align	2
 948              	.L146:
 949 03cc 00000000 		.word	.LANCHOR8
 950 03d0 00007A44 		.word	1148846080
 951 03d4 00000000 		.word	.LANCHOR9
 952 03d8 00000000 		.word	.LANCHOR11
 953 03dc 00000000 		.word	.LANCHOR12
 954              	.LVL56:
 955              	.L52:
 956              		.loc 1 747 0
 957 03e0 2CAD     		add	r5, sp, #176
 958              	.LVL57:
 959 03e2 DD4C     		ldr	r4, .L148
 960              	.LVL58:
 961              		.loc 1 748 0
 962 03e4 9FEDDD8A 		flds	s16, .L148+4
 963              		.loc 1 747 0
 964 03e8 1E23     		movs	r3, #30
 965 03ea 0122     		movs	r2, #1
 966              		.loc 1 748 0
 967 03ec 0020     		movs	r0, #0
 968              	.LVL59:
 969              		.loc 1 747 0
ARM GAS  /tmp/ccy8OeyM.s 			page 18


 970 03ee 2370     		strb	r3, [r4]
 971 03f0 45F8A82D 		str	r2, [r5, #-168]!
 972              		.loc 1 748 0
 973 03f4 FFF7FEFF 		bl	servodec_get_servo
 974              	.LVL60:
 975 03f8 20EE080A 		fmuls	s0, s0, s16
 976 03fc 2A46     		mov	r2, r5
 977 03fe FDEEC07A 		ftosizs	s15, s0
 978 0402 2046     		mov	r0, r4
 979 0404 17EE901A 		fmrs	r1, s15	@ int
 980 0408 FFF7FEFF 		bl	buffer_append_int32
 981              	.LVL61:
 982              		.loc 1 749 0
 983 040c 0020     		movs	r0, #0
 984 040e FFF7FEFF 		bl	servodec_get_last_pulse_len
 985              	.LVL62:
 986 0412 20EE080A 		fmuls	s0, s0, s16
 987              	.L136:
 988              		.loc 1 766 0
 989 0416 FDEEC07A 		ftosizs	s15, s0
 990 041a 2A46     		mov	r2, r5
 991 041c 17EE901A 		fmrs	r1, s15	@ int
 992 0420 2046     		mov	r0, r4
 993 0422 FFF7FEFF 		bl	buffer_append_int32
 994              	.LVL63:
 995              	.LBB85:
 996              	.LBB86:
 997              		.loc 1 94 0
 998 0426 CE4B     		ldr	r3, .L148+8
 999              	.LBE86:
 1000              	.LBE85:
 1001              		.loc 1 767 0
 1002 0428 0299     		ldr	r1, [sp, #8]
 1003              	.LVL64:
 1004              	.LBB88:
 1005              	.LBB87:
 1006              		.loc 1 94 0
 1007 042a 1B68     		ldr	r3, [r3]
 1008 042c 002B     		cmp	r3, #0
 1009 042e AED0     		beq	.L24
 1010              	.LVL65:
 1011              	.L133:
 1012              		.loc 1 95 0
 1013 0430 2046     		mov	r0, r4
 1014 0432 9847     		blx	r3
 1015              	.LVL66:
 1016              	.LBE87:
 1017              	.LBE88:
 1018              		.loc 1 795 0
 1019 0434 2CB0     		add	sp, sp, #176
 1020              		.cfi_remember_state
 1021              		.cfi_def_cfa_offset 56
 1022              		@ sp needed
 1023 0436 BDEC068B 		fldmfdd	sp!, {d8-d10}
 1024              		.cfi_restore 80
 1025              		.cfi_restore 81
 1026              		.cfi_restore 82
ARM GAS  /tmp/ccy8OeyM.s 			page 19


 1027              		.cfi_restore 83
 1028              		.cfi_restore 84
 1029              		.cfi_restore 85
 1030              		.cfi_def_cfa_offset 32
 1031 043a BDE8F087 		pop	{r4, r5, r6, r7, r8, r9, r10, pc}
 1032              	.LVL67:
 1033              	.L36:
 1034              		.cfi_restore_state
 1035              		.loc 1 208 0
 1036 043e 02A9     		add	r1, sp, #8
 1037 0440 2046     		mov	r0, r4
 1038 0442 FFF7FEFF 		bl	buffer_get_int32
 1039              	.LVL68:
 1040 0446 07EE900A 		fmsr	s15, r0	@ int
 1041 044a B8EEE70A 		fsitos	s0, s15
 1042 044e FFF7FEFF 		bl	mc_interface_set_pid_speed
 1043              	.LVL69:
 1044              		.loc 1 209 0
 1045 0452 FFF7FEFF 		bl	timeout_reset
 1046              	.LVL70:
 1047              		.loc 1 210 0
 1048 0456 9AE7     		b	.L24
 1049              	.L35:
 1050              		.loc 1 202 0
 1051 0458 02A9     		add	r1, sp, #8
 1052 045a 2046     		mov	r0, r4
 1053 045c FFF7FEFF 		bl	buffer_get_int32
 1054              	.LVL71:
 1055 0460 07EE100A 		fmsr	s14, r0	@ int
 1056 0464 DFEDBF7A 		flds	s15, .L148+12
 1057 0468 B8EEC70A 		fsitos	s0, s14
 1058 046c 80EE270A 		fdivs	s0, s0, s15
 1059 0470 FFF7FEFF 		bl	mc_interface_set_brake_current
 1060              	.LVL72:
 1061              		.loc 1 203 0
 1062 0474 FFF7FEFF 		bl	timeout_reset
 1063              	.LVL73:
 1064              		.loc 1 204 0
 1065 0478 89E7     		b	.L24
 1066              	.L34:
 1067              		.loc 1 196 0
 1068 047a 02A9     		add	r1, sp, #8
 1069 047c 2046     		mov	r0, r4
 1070 047e FFF7FEFF 		bl	buffer_get_int32
 1071              	.LVL74:
 1072 0482 07EE100A 		fmsr	s14, r0	@ int
 1073 0486 DFEDB77A 		flds	s15, .L148+12
 1074 048a B8EEC70A 		fsitos	s0, s14
 1075 048e 80EE270A 		fdivs	s0, s0, s15
 1076 0492 FFF7FEFF 		bl	mc_interface_set_current
 1077              	.LVL75:
 1078              		.loc 1 197 0
 1079 0496 FFF7FEFF 		bl	timeout_reset
 1080              	.LVL76:
 1081              		.loc 1 198 0
 1082 049a 78E7     		b	.L24
 1083              	.L33:
ARM GAS  /tmp/ccy8OeyM.s 			page 20


 1084              		.loc 1 190 0
 1085 049c 02A9     		add	r1, sp, #8
 1086 049e 2046     		mov	r0, r4
 1087 04a0 FFF7FEFF 		bl	buffer_get_int32
 1088              	.LVL77:
 1089 04a4 07EE100A 		fmsr	s14, r0	@ int
 1090 04a8 DFEDAF7A 		flds	s15, .L148+16
 1091 04ac B8EEC70A 		fsitos	s0, s14
 1092 04b0 80EE270A 		fdivs	s0, s0, s15
 1093 04b4 FFF7FEFF 		bl	mc_interface_set_duty
 1094              	.LVL78:
 1095              		.loc 1 191 0
 1096 04b8 FFF7FEFF 		bl	timeout_reset
 1097              	.LVL79:
 1098              		.loc 1 192 0
 1099 04bc 67E7     		b	.L24
 1100              	.L32:
 1101              		.loc 1 165 0
 1102 04be AB4E     		ldr	r6, .L148+20
 1103 04c0 9FEDAB9A 		flds	s18, .L148+24
 1104 04c4 7389     		ldrh	r3, [r6, #10]
 1105 04c6 9FEDAB8A 		flds	s16, .L148+28
 1106              		.loc 1 164 0
 1107 04ca A34C     		ldr	r4, .L148
 1108              	.LVL80:
 1109              		.loc 1 165 0
 1110 04cc DFEDAA8A 		flds	s17, .L148+32
 1111 04d0 DFEDAAAA 		flds	s21, .L148+36
 1112 04d4 9FEDAAAA 		flds	s20, .L148+40
 1113 04d8 9BB2     		uxth	r3, r3
 1114 04da 07EE903A 		fmsr	s15, r3	@ int
 1115 04de B8EEE70A 		fsitos	s0, s15
 1116              		.loc 1 164 0
 1117 04e2 2CAD     		add	r5, sp, #176
 1118              	.LVL81:
 1119              		.loc 1 165 0
 1120 04e4 89EE000A 		fdivs	s0, s18, s0
 1121              		.loc 1 164 0
 1122 04e8 0122     		movs	r2, #1
 1123 04ea 0423     		movs	r3, #4
 1124 04ec 45F8A82D 		str	r2, [r5, #-168]!
 1125 04f0 2370     		strb	r3, [r4]
 1126              		.loc 1 165 0
 1127 04f2 F7EE009A 		fconsts	s19, #112
 1128 04f6 30EE480A 		fsubs	s0, s0, s16
 1129 04fa 80EE080A 		fdivs	s0, s0, s16
 1130 04fe FFF7FEFF 		bl	logf
 1131              	.LVL82:
 1132 0502 2946     		mov	r1, r5
 1133 0504 2046     		mov	r0, r4
 1134 0506 80EE280A 		fdivs	s0, s0, s17
 1135 050a F2EE040A 		fconsts	s1, #36
 1136 050e 30EE2A0A 		fadds	s0, s0, s21
 1137 0512 89EE800A 		fdivs	s0, s19, s0
 1138 0516 30EE4A0A 		fsubs	s0, s0, s20
 1139 051a FFF7FEFF 		bl	buffer_append_float16
 1140              	.LVL83:
ARM GAS  /tmp/ccy8OeyM.s 			page 21


 1141              		.loc 1 166 0
 1142 051e 7389     		ldrh	r3, [r6, #10]
 1143 0520 9BB2     		uxth	r3, r3
 1144 0522 07EE903A 		fmsr	s15, r3	@ int
 1145 0526 B8EEE70A 		fsitos	s0, s15
 1146 052a 89EE000A 		fdivs	s0, s18, s0
 1147 052e 30EE480A 		fsubs	s0, s0, s16
 1148 0532 80EE080A 		fdivs	s0, s0, s16
 1149 0536 FFF7FEFF 		bl	logf
 1150              	.LVL84:
 1151 053a 2946     		mov	r1, r5
 1152 053c 2046     		mov	r0, r4
 1153 053e 80EE280A 		fdivs	s0, s0, s17
 1154 0542 F2EE040A 		fconsts	s1, #36
 1155 0546 30EE2A0A 		fadds	s0, s0, s21
 1156 054a 89EE800A 		fdivs	s0, s19, s0
 1157 054e 30EE4A0A 		fsubs	s0, s0, s20
 1158 0552 FFF7FEFF 		bl	buffer_append_float16
 1159              	.LVL85:
 1160              		.loc 1 167 0
 1161 0556 7389     		ldrh	r3, [r6, #10]
 1162 0558 9BB2     		uxth	r3, r3
 1163 055a 07EE903A 		fmsr	s15, r3	@ int
 1164 055e B8EEE70A 		fsitos	s0, s15
 1165 0562 89EE000A 		fdivs	s0, s18, s0
 1166 0566 30EE480A 		fsubs	s0, s0, s16
 1167 056a 80EE080A 		fdivs	s0, s0, s16
 1168 056e FFF7FEFF 		bl	logf
 1169              	.LVL86:
 1170 0572 2946     		mov	r1, r5
 1171 0574 2046     		mov	r0, r4
 1172 0576 80EE280A 		fdivs	s0, s0, s17
 1173 057a F2EE040A 		fconsts	s1, #36
 1174 057e 30EE2A0A 		fadds	s0, s0, s21
 1175 0582 89EE800A 		fdivs	s0, s19, s0
 1176 0586 30EE4A0A 		fsubs	s0, s0, s20
 1177 058a FFF7FEFF 		bl	buffer_append_float16
 1178              	.LVL87:
 1179              		.loc 1 168 0
 1180 058e 7389     		ldrh	r3, [r6, #10]
 1181 0590 9BB2     		uxth	r3, r3
 1182 0592 07EE903A 		fmsr	s15, r3	@ int
 1183 0596 B8EEE70A 		fsitos	s0, s15
 1184 059a 89EE000A 		fdivs	s0, s18, s0
 1185 059e 30EE480A 		fsubs	s0, s0, s16
 1186 05a2 80EE080A 		fdivs	s0, s0, s16
 1187 05a6 FFF7FEFF 		bl	logf
 1188              	.LVL88:
 1189 05aa 2946     		mov	r1, r5
 1190 05ac 2046     		mov	r0, r4
 1191 05ae 80EE280A 		fdivs	s0, s0, s17
 1192 05b2 F2EE040A 		fconsts	s1, #36
 1193 05b6 30EE2A0A 		fadds	s0, s0, s21
 1194 05ba 89EE800A 		fdivs	s0, s19, s0
 1195 05be 30EE4A0A 		fsubs	s0, s0, s20
 1196 05c2 FFF7FEFF 		bl	buffer_append_float16
 1197              	.LVL89:
ARM GAS  /tmp/ccy8OeyM.s 			page 22


 1198              		.loc 1 169 0
 1199 05c6 7389     		ldrh	r3, [r6, #10]
 1200 05c8 9BB2     		uxth	r3, r3
 1201 05ca 07EE903A 		fmsr	s15, r3	@ int
 1202 05ce B8EEE70A 		fsitos	s0, s15
 1203 05d2 89EE000A 		fdivs	s0, s18, s0
 1204 05d6 30EE480A 		fsubs	s0, s0, s16
 1205 05da 80EE080A 		fdivs	s0, s0, s16
 1206 05de FFF7FEFF 		bl	logf
 1207              	.LVL90:
 1208 05e2 2946     		mov	r1, r5
 1209 05e4 2046     		mov	r0, r4
 1210 05e6 80EE280A 		fdivs	s0, s0, s17
 1211 05ea F2EE040A 		fconsts	s1, #36
 1212 05ee 30EE2A0A 		fadds	s0, s0, s21
 1213 05f2 89EE800A 		fdivs	s0, s19, s0
 1214 05f6 30EE4A0A 		fsubs	s0, s0, s20
 1215 05fa FFF7FEFF 		bl	buffer_append_float16
 1216              	.LVL91:
 1217              		.loc 1 170 0
 1218 05fe 7389     		ldrh	r3, [r6, #10]
 1219 0600 9BB2     		uxth	r3, r3
 1220 0602 07EE903A 		fmsr	s15, r3	@ int
 1221 0606 B8EEE70A 		fsitos	s0, s15
 1222 060a 89EE000A 		fdivs	s0, s18, s0
 1223 060e 30EE480A 		fsubs	s0, s0, s16
 1224 0612 80EE080A 		fdivs	s0, s0, s16
 1225 0616 FFF7FEFF 		bl	logf
 1226              	.LVL92:
 1227 061a 2946     		mov	r1, r5
 1228 061c 2046     		mov	r0, r4
 1229 061e 80EE280A 		fdivs	s0, s0, s17
 1230 0622 F2EE040A 		fconsts	s1, #36
 1231 0626 30EE2A0A 		fadds	s0, s0, s21
 1232 062a 89EE800A 		fdivs	s0, s19, s0
 1233 062e 30EE4A0A 		fsubs	s0, s0, s20
 1234 0632 FFF7FEFF 		bl	buffer_append_float16
 1235              	.LVL93:
 1236              		.loc 1 171 0
 1237 0636 7389     		ldrh	r3, [r6, #10]
 1238 0638 9BB2     		uxth	r3, r3
 1239 063a 07EE903A 		fmsr	s15, r3	@ int
 1240 063e B8EEE70A 		fsitos	s0, s15
 1241 0642 89EE000A 		fdivs	s0, s18, s0
 1242 0646 30EE480A 		fsubs	s0, s0, s16
 1243 064a 80EE080A 		fdivs	s0, s0, s16
 1244 064e FFF7FEFF 		bl	logf
 1245              	.LVL94:
 1246 0652 2946     		mov	r1, r5
 1247 0654 2046     		mov	r0, r4
 1248 0656 80EE280A 		fdivs	s0, s0, s17
 1249 065a F2EE040A 		fconsts	s1, #36
 1250 065e 30EE2A0A 		fadds	s0, s0, s21
 1251 0662 89EE800A 		fdivs	s0, s19, s0
 1252 0666 30EE4A0A 		fsubs	s0, s0, s20
 1253 066a FFF7FEFF 		bl	buffer_append_float16
 1254              	.LVL95:
ARM GAS  /tmp/ccy8OeyM.s 			page 23


 1255              		.loc 1 172 0
 1256 066e FFF7FEFF 		bl	mc_interface_read_reset_avg_motor_current
 1257              	.LVL96:
 1258 0672 2946     		mov	r1, r5
 1259 0674 2046     		mov	r0, r4
 1260 0676 DFED430A 		flds	s1, .L148+44
 1261 067a FFF7FEFF 		bl	buffer_append_float32
 1262              	.LVL97:
 1263              		.loc 1 173 0
 1264 067e FFF7FEFF 		bl	mc_interface_read_reset_avg_input_current
 1265              	.LVL98:
 1266 0682 2946     		mov	r1, r5
 1267 0684 2046     		mov	r0, r4
 1268 0686 DFED3F0A 		flds	s1, .L148+44
 1269 068a FFF7FEFF 		bl	buffer_append_float32
 1270              	.LVL99:
 1271              		.loc 1 174 0
 1272 068e FFF7FEFF 		bl	mc_interface_get_duty_cycle_now
 1273              	.LVL100:
 1274 0692 2946     		mov	r1, r5
 1275 0694 2046     		mov	r0, r4
 1276 0696 DFED330A 		flds	s1, .L148+12
 1277 069a FFF7FEFF 		bl	buffer_append_float16
 1278              	.LVL101:
 1279              		.loc 1 175 0
 1280 069e FFF7FEFF 		bl	mc_interface_get_rpm
 1281              	.LVL102:
 1282 06a2 2946     		mov	r1, r5
 1283 06a4 2046     		mov	r0, r4
 1284 06a6 F0EE690A 		fcpys	s1, s19
 1285 06aa FFF7FEFF 		bl	buffer_append_float32
 1286              	.LVL103:
 1287              		.loc 1 176 0
 1288 06ae 338A     		ldrh	r3, [r6, #16]
 1289 06b0 9FED357A 		flds	s14, .L148+48
 1290 06b4 9FED350A 		flds	s0, .L148+52
 1291 06b8 9BB2     		uxth	r3, r3
 1292 06ba 07EE903A 		fmsr	s15, r3	@ int
 1293 06be F8EE677A 		fuitos	s15, s15
 1294 06c2 2946     		mov	r1, r5
 1295 06c4 67EE877A 		fmuls	s15, s15, s14
 1296 06c8 F2EE040A 		fconsts	s1, #36
 1297 06cc 27EE800A 		fmuls	s0, s15, s0
 1298 06d0 2046     		mov	r0, r4
 1299 06d2 FFF7FEFF 		bl	buffer_append_float16
 1300              	.LVL104:
 1301              		.loc 1 177 0
 1302 06d6 0020     		movs	r0, #0
 1303 06d8 FFF7FEFF 		bl	mc_interface_get_amp_hours
 1304              	.LVL105:
 1305 06dc 2946     		mov	r1, r5
 1306 06de F0EE480A 		fcpys	s1, s16
 1307 06e2 2046     		mov	r0, r4
 1308 06e4 FFF7FEFF 		bl	buffer_append_float32
 1309              	.LVL106:
 1310              		.loc 1 178 0
 1311 06e8 0020     		movs	r0, #0
ARM GAS  /tmp/ccy8OeyM.s 			page 24


 1312 06ea FFF7FEFF 		bl	mc_interface_get_amp_hours_charged
 1313              	.LVL107:
 1314 06ee 2946     		mov	r1, r5
 1315 06f0 F0EE480A 		fcpys	s1, s16
 1316 06f4 2046     		mov	r0, r4
 1317 06f6 FFF7FEFF 		bl	buffer_append_float32
 1318              	.LVL108:
 1319              		.loc 1 179 0
 1320 06fa 0020     		movs	r0, #0
 1321 06fc FFF7FEFF 		bl	mc_interface_get_watt_hours
 1322              	.LVL109:
 1323 0700 2946     		mov	r1, r5
 1324 0702 F0EE480A 		fcpys	s1, s16
 1325 0706 2046     		mov	r0, r4
 1326 0708 FFF7FEFF 		bl	buffer_append_float32
 1327              	.LVL110:
 1328              		.loc 1 180 0
 1329 070c 0020     		movs	r0, #0
 1330 070e FFF7FEFF 		bl	mc_interface_get_watt_hours_charged
 1331              	.LVL111:
 1332 0712 F0EE480A 		fcpys	s1, s16
 1333 0716 2946     		mov	r1, r5
 1334 0718 2046     		mov	r0, r4
 1335 071a FFF7FEFF 		bl	buffer_append_float32
 1336              	.LVL112:
 1337              		.loc 1 181 0
 1338 071e 0020     		movs	r0, #0
 1339 0720 FFF7FEFF 		bl	mc_interface_get_tachometer_value
 1340              	.LVL113:
 1341 0724 2A46     		mov	r2, r5
 1342 0726 0146     		mov	r1, r0
 1343 0728 2046     		mov	r0, r4
 1344 072a FFF7FEFF 		bl	buffer_append_int32
 1345              	.LVL114:
 1346              		.loc 1 182 0
 1347 072e 0020     		movs	r0, #0
 1348 0730 FFF7FEFF 		bl	mc_interface_get_tachometer_abs_value
 1349              	.LVL115:
 1350 0734 2A46     		mov	r2, r5
 1351 0736 0146     		mov	r1, r0
 1352 0738 2046     		mov	r0, r4
 1353 073a FFF7FEFF 		bl	buffer_append_int32
 1354              	.LVL116:
 1355              		.loc 1 183 0
 1356 073e 029D     		ldr	r5, [sp, #8]
 1357 0740 6B1C     		adds	r3, r5, #1
 1358 0742 0293     		str	r3, [sp, #8]
 1359 0744 FFF7FEFF 		bl	mc_interface_get_fault
 1360              	.LVL117:
 1361              	.LBB89:
 1362              	.LBB90:
 1363              		.loc 1 94 0
 1364 0748 054B     		ldr	r3, .L148+8
 1365              	.LBE90:
 1366              	.LBE89:
 1367              		.loc 1 183 0
 1368 074a 6055     		strb	r0, [r4, r5]
ARM GAS  /tmp/ccy8OeyM.s 			page 25


 1369              	.LBB93:
 1370              	.LBB91:
 1371              		.loc 1 94 0
 1372 074c 1B68     		ldr	r3, [r3]
 1373              	.LBE91:
 1374              	.LBE93:
 1375              		.loc 1 185 0
 1376 074e 0299     		ldr	r1, [sp, #8]
 1377              	.LVL118:
 1378              	.LBB94:
 1379              	.LBB92:
 1380              		.loc 1 94 0
 1381 0750 002B     		cmp	r3, #0
 1382 0752 7FF46DAE 		bne	.L133
 1383 0756 1AE6     		b	.L24
 1384              	.L149:
 1385              		.align	2
 1386              	.L148:
 1387 0758 00000000 		.word	.LANCHOR8
 1388 075c 00247449 		.word	1232348160
 1389 0760 00000000 		.word	.LANCHOR9
 1390 0764 00007A44 		.word	1148846080
 1391 0768 0050C347 		.word	1203982336
 1392 076c 00000000 		.word	ADC_Value
 1393 0770 3C361C4C 		.word	1276917308
 1394 0774 00401C46 		.word	1176256512
 1395 0778 00A05645 		.word	1163304960
 1396 077c 0FCF5B3B 		.word	995872527
 1397 0780 33938843 		.word	1133024051
 1398 0784 0000C842 		.word	1120403456
 1399 0788 6740533A 		.word	978534503
 1400 078c 74D19541 		.word	1100337524
 1401              	.LVL119:
 1402              	.L31:
 1403              	.LBE92:
 1404              	.LBE94:
 1405              		.loc 1 153 0
 1406 0790 2046     		mov	r0, r4
 1407 0792 02A9     		add	r1, sp, #8
 1408 0794 FFF7FEFF 		bl	buffer_get_uint32
 1409              	.LVL120:
 1410              		.loc 1 154 0
 1411 0798 029A     		ldr	r2, [sp, #8]
 1412 079a A118     		adds	r1, r4, r2
 1413 079c AA1A     		subs	r2, r5, r2
 1414 079e FFF7FEFF 		bl	flash_helper_write_new_app_data
 1415              	.LVL121:
 1416              	.LBB95:
 1417              	.LBB96:
 1418              		.loc 1 94 0
 1419 07a2 B94A     		ldr	r2, .L150
 1420              	.LBE96:
 1421              	.LBE95:
 1422              		.loc 1 157 0
 1423 07a4 B94B     		ldr	r3, .L150+4
 1424              	.LBB99:
 1425              	.LBB97:
ARM GAS  /tmp/ccy8OeyM.s 			page 26


 1426              		.loc 1 94 0
 1427 07a6 1268     		ldr	r2, [r2]
 1428              	.LBE97:
 1429              	.LBE99:
 1430              		.loc 1 158 0
 1431 07a8 A0F10900 		sub	r0, #9
 1432              	.LVL122:
 1433              		.loc 1 157 0
 1434 07ac 0324     		movs	r4, #3
 1435              	.LVL123:
 1436              		.loc 1 158 0
 1437 07ae B0FA80F0 		clz	r0, r0
 1438 07b2 0221     		movs	r1, #2
 1439 07b4 4009     		lsrs	r0, r0, #5
 1440 07b6 5870     		strb	r0, [r3, #1]
 1441              	.LVL124:
 1442              		.loc 1 157 0
 1443 07b8 1C70     		strb	r4, [r3]
 1444              		.loc 1 158 0
 1445 07ba 0291     		str	r1, [sp, #8]
 1446              	.LBB100:
 1447              	.LBB98:
 1448              		.loc 1 94 0
 1449 07bc 002A     		cmp	r2, #0
 1450 07be 3FF4E6AD 		beq	.L24
 1451              	.LVL125:
 1452              	.L132:
 1453              		.loc 1 95 0
 1454 07c2 1846     		mov	r0, r3
 1455 07c4 9047     		blx	r2
 1456              	.LVL126:
 1457 07c6 E2E5     		b	.L24
 1458              	.LVL127:
 1459              	.L30:
 1460              	.LBE98:
 1461              	.LBE100:
 1462              		.loc 1 143 0
 1463 07c8 02A9     		add	r1, sp, #8
 1464 07ca 2046     		mov	r0, r4
 1465 07cc FFF7FEFF 		bl	buffer_get_uint32
 1466              	.LVL128:
 1467 07d0 FFF7FEFF 		bl	flash_helper_erase_new_app
 1468              	.LVL129:
 1469              	.LBB101:
 1470              	.LBB102:
 1471              		.loc 1 94 0
 1472 07d4 AC4A     		ldr	r2, .L150
 1473              	.LBE102:
 1474              	.LBE101:
 1475              		.loc 1 146 0
 1476 07d6 AD4B     		ldr	r3, .L150+4
 1477              	.LBB105:
 1478              	.LBB103:
 1479              		.loc 1 94 0
 1480 07d8 1268     		ldr	r2, [r2]
 1481              	.LBE103:
 1482              	.LBE105:
ARM GAS  /tmp/ccy8OeyM.s 			page 27


 1483              		.loc 1 146 0
 1484 07da 0221     		movs	r1, #2
 1485              		.loc 1 147 0
 1486 07dc A0F10900 		sub	r0, #9
 1487              	.LVL130:
 1488 07e0 B0FA80F0 		clz	r0, r0
 1489 07e4 4009     		lsrs	r0, r0, #5
 1490 07e6 5870     		strb	r0, [r3, #1]
 1491              	.LVL131:
 1492              		.loc 1 146 0
 1493 07e8 1970     		strb	r1, [r3]
 1494              		.loc 1 147 0
 1495 07ea 0291     		str	r1, [sp, #8]
 1496              	.LBB106:
 1497              	.LBB104:
 1498              		.loc 1 94 0
 1499 07ec 002A     		cmp	r2, #0
 1500 07ee E8D1     		bne	.L132
 1501 07f0 CDE5     		b	.L24
 1502              	.LVL132:
 1503              	.L29:
 1504              	.LBE104:
 1505              	.LBE106:
 1506              		.loc 1 138 0
 1507 07f2 FFF7FEFF 		bl	flash_helper_jump_to_bootloader
 1508              	.LVL133:
 1509              		.loc 1 139 0
 1510 07f6 CAE5     		b	.L24
 1511              	.L27:
 1512              	.LBB107:
 1513              	.LBB108:
 1514              		.loc 1 94 0
 1515 07f8 A34B     		ldr	r3, .L150
 1516              	.LBE108:
 1517              	.LBE107:
 1518              		.loc 1 131 0
 1519 07fa A448     		ldr	r0, .L150+4
 1520              	.LBB111:
 1521              	.LBB109:
 1522              		.loc 1 94 0
 1523 07fc 1B68     		ldr	r3, [r3]
 1524              	.LBE109:
 1525              	.LBE111:
 1526              		.loc 1 131 0
 1527 07fe 0025     		movs	r5, #0
 1528              	.LVL134:
 1529              		.loc 1 132 0
 1530 0800 0224     		movs	r4, #2
 1531              	.LVL135:
 1532              		.loc 1 133 0
 1533 0802 1222     		movs	r2, #18
 1534 0804 0321     		movs	r1, #3
 1535              	.LVL136:
 1536              		.loc 1 131 0
 1537 0806 0570     		strb	r5, [r0]
 1538              		.loc 1 132 0
 1539 0808 4470     		strb	r4, [r0, #1]
ARM GAS  /tmp/ccy8OeyM.s 			page 28


 1540              		.loc 1 133 0
 1541 080a 8270     		strb	r2, [r0, #2]
 1542              	.LVL137:
 1543 080c 0291     		str	r1, [sp, #8]
 1544              	.LBB112:
 1545              	.LBB110:
 1546              		.loc 1 94 0
 1547 080e 002B     		cmp	r3, #0
 1548 0810 3FF4BDAD 		beq	.L24
 1549              	.LVL138:
 1550              	.L131:
 1551              	.LBE110:
 1552              	.LBE112:
 1553              		.loc 1 788 0
 1554 0814 9847     		blx	r3
 1555              	.LVL139:
 1556 0816 BAE5     		b	.L24
 1557              	.LVL140:
 1558              	.L57:
 1559              		.loc 1 787 0
 1560 0818 9D4B     		ldr	r3, .L150+8
 1561 081a 1B68     		ldr	r3, [r3]
 1562 081c 002B     		cmp	r3, #0
 1563 081e 3FF4B6AD 		beq	.L24
 1564              		.loc 1 788 0
 1565 0822 2046     		mov	r0, r4
 1566 0824 2946     		mov	r1, r5
 1567 0826 F5E7     		b	.L131
 1568              	.L56:
 1569              		.loc 1 778 0
 1570 0828 C278     		ldrb	r2, [r0, #3]	@ zero_extendqisi2
 1571              		.loc 1 779 0
 1572 082a 0379     		ldrb	r3, [r0, #4]	@ zero_extendqisi2
 1573              		.loc 1 776 0
 1574 082c 4178     		ldrb	r1, [r0, #1]	@ zero_extendqisi2
 1575              		.loc 1 777 0
 1576 082e 8678     		ldrb	r6, [r0, #2]	@ zero_extendqisi2
 1577              		.loc 1 776 0
 1578 0830 0491     		str	r1, [sp, #16]
 1579              		.loc 1 778 0
 1580 0832 0032     		adds	r2, r2, #0
 1581 0834 18BF     		it	ne
 1582 0836 0122     		movne	r2, #1
 1583              		.loc 1 779 0
 1584 0838 0033     		adds	r3, r3, #0
 1585 083a 18BF     		it	ne
 1586 083c 0123     		movne	r3, #1
 1587              		.loc 1 780 0
 1588 083e 02A9     		add	r1, sp, #8
 1589              		.loc 1 779 0
 1590 0840 0425     		movs	r5, #4
 1591              	.LVL141:
 1592              		.loc 1 780 0
 1593 0842 2046     		mov	r0, r4
 1594              		.loc 1 778 0
 1595 0844 8DF82420 		strb	r2, [sp, #36]
 1596              		.loc 1 779 0
ARM GAS  /tmp/ccy8OeyM.s 			page 29


 1597 0848 8DF82530 		strb	r3, [sp, #37]
 1598              		.loc 1 777 0
 1599 084c 0596     		str	r6, [sp, #20]
 1600              		.loc 1 779 0
 1601 084e 0295     		str	r5, [sp, #8]
 1602              		.loc 1 780 0
 1603 0850 FFF7FEFF 		bl	buffer_get_int16
 1604              	.LVL142:
 1605              		.loc 1 781 0
 1606 0854 02A9     		add	r1, sp, #8
 1607              		.loc 1 780 0
 1608 0856 0690     		str	r0, [sp, #24]
 1609              		.loc 1 781 0
 1610 0858 2046     		mov	r0, r4
 1611 085a FFF7FEFF 		bl	buffer_get_int16
 1612              	.LVL143:
 1613              		.loc 1 782 0
 1614 085e 02A9     		add	r1, sp, #8
 1615              		.loc 1 781 0
 1616 0860 0790     		str	r0, [sp, #28]
 1617              		.loc 1 782 0
 1618 0862 2046     		mov	r0, r4
 1619 0864 FFF7FEFF 		bl	buffer_get_int16
 1620              	.LVL144:
 1621 0868 0890     		str	r0, [sp, #32]
 1622              		.loc 1 783 0
 1623 086a 04A8     		add	r0, sp, #16
 1624 086c FFF7FEFF 		bl	app_nunchuk_update_output
 1625              	.LVL145:
 1626              		.loc 1 784 0
 1627 0870 8DE5     		b	.L24
 1628              	.LVL146:
 1629              	.L55:
 1630              		.loc 1 771 0
 1631 0872 8A1E     		subs	r2, r1, #2
 1632 0874 4078     		ldrb	r0, [r0, #1]	@ zero_extendqisi2
 1633 0876 B91C     		adds	r1, r7, #2
 1634 0878 0023     		movs	r3, #0
 1635 087a FFF7FEFF 		bl	comm_can_send_buffer
 1636              	.LVL147:
 1637              		.loc 1 772 0
 1638 087e 86E5     		b	.L24
 1639              	.L37:
 1640              		.loc 1 214 0
 1641 0880 02A9     		add	r1, sp, #8
 1642 0882 2046     		mov	r0, r4
 1643 0884 FFF7FEFF 		bl	buffer_get_int32
 1644              	.LVL148:
 1645 0888 07EE100A 		fmsr	s14, r0	@ int
 1646 088c DFED877A 		flds	s15, .L150+36
 1647 0890 B8EEC70A 		fsitos	s0, s14
 1648 0894 80EE270A 		fdivs	s0, s0, s15
 1649 0898 FFF7FEFF 		bl	mc_interface_set_pid_pos
 1650              	.LVL149:
 1651              		.loc 1 215 0
 1652 089c FFF7FEFF 		bl	timeout_reset
 1653              	.LVL150:
ARM GAS  /tmp/ccy8OeyM.s 			page 30


 1654              		.loc 1 216 0
 1655 08a0 75E5     		b	.L24
 1656              	.L54:
 1657              		.loc 1 765 0
 1658 08a2 2CAD     		add	r5, sp, #176
 1659              	.LVL151:
 1660 08a4 794C     		ldr	r4, .L150+4
 1661              	.LVL152:
 1662 08a6 0122     		movs	r2, #1
 1663 08a8 2023     		movs	r3, #32
 1664 08aa 45F8A82D 		str	r2, [r5, #-168]!
 1665 08ae 2370     		strb	r3, [r4]
 1666              		.loc 1 766 0
 1667 08b0 FFF7FEFF 		bl	app_nunchuk_get_decoded_chuk
 1668              	.LVL153:
 1669 08b4 DFED7D7A 		flds	s15, .L150+36
 1670 08b8 20EE270A 		fmuls	s0, s0, s15
 1671 08bc ABE5     		b	.L136
 1672              	.LVL154:
 1673              	.L53:
 1674              		.loc 1 755 0
 1675 08be 2CAD     		add	r5, sp, #176
 1676              	.LVL155:
 1677 08c0 724C     		ldr	r4, .L150+4
 1678              	.LVL156:
 1679              		.loc 1 756 0
 1680 08c2 9FED7A8A 		flds	s16, .L150+36
 1681              		.loc 1 755 0
 1682 08c6 1F23     		movs	r3, #31
 1683 08c8 0122     		movs	r2, #1
 1684 08ca 2370     		strb	r3, [r4]
 1685 08cc 45F8A82D 		str	r2, [r5, #-168]!
 1686              		.loc 1 756 0
 1687 08d0 FFF7FEFF 		bl	app_adc_get_decoded_level
 1688              	.LVL157:
 1689 08d4 20EE080A 		fmuls	s0, s0, s16
 1690 08d8 2A46     		mov	r2, r5
 1691 08da FDEEC07A 		ftosizs	s15, s0
 1692 08de 2046     		mov	r0, r4
 1693 08e0 17EE901A 		fmrs	r1, s15	@ int
 1694 08e4 FFF7FEFF 		bl	buffer_append_int32
 1695              	.LVL158:
 1696              		.loc 1 757 0
 1697 08e8 FFF7FEFF 		bl	app_adc_get_voltage
 1698              	.LVL159:
 1699 08ec 20EE080A 		fmuls	s0, s0, s16
 1700 08f0 2A46     		mov	r2, r5
 1701 08f2 FDEEC07A 		ftosizs	s15, s0
 1702 08f6 2046     		mov	r0, r4
 1703 08f8 17EE901A 		fmrs	r1, s15	@ int
 1704 08fc FFF7FEFF 		bl	buffer_append_int32
 1705              	.LVL160:
 1706              		.loc 1 758 0
 1707 0900 FFF7FEFF 		bl	app_adc_get_decoded_level2
 1708              	.LVL161:
 1709 0904 20EE080A 		fmuls	s0, s0, s16
 1710 0908 2A46     		mov	r2, r5
ARM GAS  /tmp/ccy8OeyM.s 			page 31


 1711 090a FDEEC07A 		ftosizs	s15, s0
 1712 090e 2046     		mov	r0, r4
 1713 0910 17EE901A 		fmrs	r1, s15	@ int
 1714 0914 FFF7FEFF 		bl	buffer_append_int32
 1715              	.LVL162:
 1716              		.loc 1 759 0
 1717 0918 FFF7FEFF 		bl	app_adc_get_voltage2
 1718              	.LVL163:
 1719 091c 20EE080A 		fmuls	s0, s0, s16
 1720 0920 79E5     		b	.L136
 1721              	.LVL164:
 1722              	.L50:
 1723              	.LBB113:
 1724              	.LBB114:
 1725              		.file 3 "ChibiOS_3.0.2/os/ext/CMSIS/include/core_cmFunc.h"
 1726              		.loc 3 342 0
 1727              	@ 342 "ChibiOS_3.0.2/os/ext/CMSIS/include/core_cmFunc.h" 1
 1728 0922 72B6     		cpsid i
 1729              	@ 0 "" 2
 1730              		.thumb
 1731              	.L76:
 1732              	.LBE114:
 1733              	.LBE113:
 1734              		.loc 1 738 0 discriminator 8
 1735 0924 FEE7     		b	.L76
 1736              	.L49:
 1737              		.loc 1 701 0
 1738 0926 FFF7FEFF 		bl	mc_interface_get_configuration
 1739              	.LVL165:
 1740 092a 5A4D     		ldr	r5, .L150+12
 1741              	.LVL166:
 1742 092c 0146     		mov	r1, r0
 1743 092e 4FF49A72 		mov	r2, #308
 1744 0932 2846     		mov	r0, r5
 1745 0934 FFF7FEFF 		bl	memcpy
 1746              	.LVL167:
 1747              		.loc 1 703 0
 1748 0938 95F83061 		ldrb	r6, [r5, #304]	@ zero_extendqisi2
 1749 093c 002E     		cmp	r6, #0
 1750 093e 41F04681 		bne	.L74
 1751              	.LBB115:
 1752              		.loc 1 704 0
 1753 0942 2946     		mov	r1, r5
 1754 0944 4FF49A72 		mov	r2, #308
 1755 0948 5348     		ldr	r0, .L150+16
 1756 094a FFF7FEFF 		bl	memcpy
 1757              	.LVL168:
 1758              		.loc 1 705 0
 1759 094e 2CA9     		add	r1, sp, #176
 1760              		.loc 1 706 0
 1761 0950 2046     		mov	r0, r4
 1762              		.loc 1 705 0
 1763 0952 41F8A86D 		str	r6, [r1, #-168]!
 1764              		.loc 1 706 0
 1765 0956 9FED540A 		flds	s0, .L150+32
 1766              	.LBB116:
 1767              	.LBB117:
ARM GAS  /tmp/ccy8OeyM.s 			page 32


 1768              		.loc 1 94 0
 1769 095a 4B4E     		ldr	r6, .L150
 1770              	.LBE117:
 1771              	.LBE116:
 1772              		.loc 1 706 0
 1773 095c FFF7FEFF 		bl	buffer_get_float32
 1774              	.LVL169:
 1775              		.loc 1 709 0
 1776 0960 4E4B     		ldr	r3, .L150+20
 1777              		.loc 1 710 0
 1778 0962 4F49     		ldr	r1, .L150+24
 1779              		.loc 1 709 0
 1780 0964 C5F89430 		str	r3, [r5, #148]	@ float
 1781              		.loc 1 708 0
 1782 0968 0222     		movs	r2, #2
 1783              		.loc 1 711 0
 1784 096a 4E4B     		ldr	r3, .L150+28
 1785              		.loc 1 710 0
 1786 096c C5F88C10 		str	r1, [r5, #140]	@ float
 1787              		.loc 1 712 0
 1788 0970 2846     		mov	r0, r5
 1789              		.loc 1 706 0
 1790 0972 B0EE408A 		fcpys	s16, s0
 1791              	.LVL170:
 1792              		.loc 1 708 0
 1793 0976 AA70     		strb	r2, [r5, #2]
 1794              		.loc 1 711 0
 1795 0978 C5F89030 		str	r3, [r5, #144]	@ float
 1796              		.loc 1 712 0
 1797 097c FFF7FEFF 		bl	mc_interface_set_configuration
 1798              	.LVL171:
 1799              		.loc 1 715 0
 1800 0980 B0EE480A 		fcpys	s0, s16
 1801 0984 04A8     		add	r0, sp, #16
 1802 0986 FFF7FEFF 		bl	mcpwm_foc_hall_detect
 1803              	.LVL172:
 1804 098a 0446     		mov	r4, r0
 1805              	.LVL173:
 1806              		.loc 1 716 0
 1807 098c 4248     		ldr	r0, .L150+16
 1808 098e FFF7FEFF 		bl	mc_interface_set_configuration
 1809              	.LVL174:
 1810              		.loc 1 719 0
 1811 0992 3E4A     		ldr	r2, .L150+4
 1812              		.loc 1 720 0
 1813 0994 04AB     		add	r3, sp, #16
 1814              		.loc 1 719 0
 1815 0996 1546     		mov	r5, r2
 1816              		.loc 1 720 0
 1817 0998 03CB     		ldmia	r3!, {r0, r1}
 1818              		.loc 1 719 0
 1819 099a 1B23     		movs	r3, #27
 1820 099c 05F8013B 		strb	r3, [r5], #1
 1821              	.LBB120:
 1822              	.LBB118:
 1823              		.loc 1 94 0
 1824 09a0 3368     		ldr	r3, [r6]
ARM GAS  /tmp/ccy8OeyM.s 			page 33


 1825              	.LBE118:
 1826              	.LBE120:
 1827              		.loc 1 720 0
 1828 09a2 C2F80100 		str	r0, [r2, #1]	@ unaligned
 1829              		.loc 1 722 0
 1830 09a6 84F00104 		eor	r4, r4, #1
 1831              	.LVL175:
 1832 09aa 0A26     		movs	r6, #10
 1833              		.loc 1 720 0
 1834 09ac 6960     		str	r1, [r5, #4]	@ unaligned
 1835              		.loc 1 722 0
 1836 09ae 0296     		str	r6, [sp, #8]
 1837 09b0 5472     		strb	r4, [r2, #9]
 1838              	.LVL176:
 1839              	.LBB121:
 1840              	.LBB119:
 1841              		.loc 1 94 0
 1842 09b2 002B     		cmp	r3, #0
 1843 09b4 3FF4EBAC 		beq	.L24
 1844              		.loc 1 95 0
 1845 09b8 1046     		mov	r0, r2
 1846 09ba 3146     		mov	r1, r6
 1847 09bc 9847     		blx	r3
 1848              	.LVL177:
 1849 09be E6E4     		b	.L24
 1850              	.LVL178:
 1851              	.L48:
 1852              	.LBE119:
 1853              	.LBE121:
 1854              	.LBE115:
 1855              		.loc 1 664 0
 1856 09c0 FFF7FEFF 		bl	encoder_is_configured
 1857              	.LVL179:
 1858 09c4 0646     		mov	r6, r0
 1859 09c6 0028     		cmp	r0, #0
 1860 09c8 01F00B81 		beq	.L72
 1861              	.LBB122:
 1862              		.loc 1 665 0
 1863 09cc FFF7FEFF 		bl	mc_interface_get_configuration
 1864              	.LVL180:
 1865 09d0 304D     		ldr	r5, .L150+12
 1866              	.LVL181:
 1867              		.loc 1 684 0
 1868 09d2 2E4E     		ldr	r6, .L150+4
 1869              		.loc 1 668 0
 1870 09d4 2CAF     		add	r7, sp, #176
 1871              		.loc 1 665 0
 1872 09d6 0146     		mov	r1, r0
 1873 09d8 4FF49A72 		mov	r2, #308
 1874 09dc 2846     		mov	r0, r5
 1875 09de FFF7FEFF 		bl	memcpy
 1876              	.LVL182:
 1877              		.loc 1 668 0
 1878 09e2 4FF00008 		mov	r8, #0
 1879              	.LVL183:
 1880              		.loc 1 666 0
 1881 09e6 4FF49A72 		mov	r2, #308
ARM GAS  /tmp/ccy8OeyM.s 			page 34


 1882 09ea 2946     		mov	r1, r5
 1883 09ec 2A48     		ldr	r0, .L150+16
 1884 09ee FFF7FEFF 		bl	memcpy
 1885              	.LVL184:
 1886              		.loc 1 668 0
 1887 09f2 47F8A88D 		str	r8, [r7, #-168]!
 1888              		.loc 1 669 0
 1889 09f6 2046     		mov	r0, r4
 1890 09f8 3946     		mov	r1, r7
 1891 09fa 9FED2B0A 		flds	s0, .L150+32
 1892 09fe FFF7FEFF 		bl	buffer_get_float32
 1893              	.LVL185:
 1894              		.loc 1 672 0
 1895 0a02 264B     		ldr	r3, .L150+20
 1896              		.loc 1 673 0
 1897 0a04 264A     		ldr	r2, .L150+24
 1898              		.loc 1 672 0
 1899 0a06 C5F89430 		str	r3, [r5, #148]	@ float
 1900              		.loc 1 671 0
 1901 0a0a 0221     		movs	r1, #2
 1902              		.loc 1 674 0
 1903 0a0c 254B     		ldr	r3, .L150+28
 1904              		.loc 1 671 0
 1905 0a0e A970     		strb	r1, [r5, #2]
 1906              		.loc 1 669 0
 1907 0a10 B0EE408A 		fcpys	s16, s0
 1908              	.LVL186:
 1909              		.loc 1 675 0
 1910 0a14 2846     		mov	r0, r5
 1911              		.loc 1 673 0
 1912 0a16 C5F88C20 		str	r2, [r5, #140]	@ float
 1913              		.loc 1 674 0
 1914 0a1a C5F89030 		str	r3, [r5, #144]	@ float
 1915              		.loc 1 677 0
 1916 0a1e 0024     		movs	r4, #0
 1917              	.LVL187:
 1918              		.loc 1 675 0
 1919 0a20 FFF7FEFF 		bl	mc_interface_set_configuration
 1920              	.LVL188:
 1921              		.loc 1 680 0
 1922 0a24 B0EE480A 		fcpys	s0, s16
 1923 0a28 03A9     		add	r1, sp, #12
 1924 0a2a 04AA     		add	r2, sp, #16
 1925 0a2c 0DF10703 		add	r3, sp, #7
 1926 0a30 4046     		mov	r0, r8
 1927              		.loc 1 679 0
 1928 0a32 8DF80780 		strb	r8, [sp, #7]
 1929              		.loc 1 677 0
 1930 0a36 0394     		str	r4, [sp, #12]	@ float
 1931              		.loc 1 678 0
 1932 0a38 0494     		str	r4, [sp, #16]	@ float
 1933              		.loc 1 680 0
 1934 0a3a FFF7FEFF 		bl	mcpwm_foc_encoder_detect
 1935              	.LVL189:
 1936              		.loc 1 681 0
 1937 0a3e 1648     		ldr	r0, .L150+16
 1938 0a40 FFF7FEFF 		bl	mc_interface_set_configuration
ARM GAS  /tmp/ccy8OeyM.s 			page 35


 1939              	.LVL190:
 1940              		.loc 1 684 0
 1941 0a44 1A22     		movs	r2, #26
 1942 0a46 0123     		movs	r3, #1
 1943              		.loc 1 685 0
 1944 0a48 3946     		mov	r1, r7
 1945 0a4a 3046     		mov	r0, r6
 1946 0a4c 9DED030A 		flds	s0, [sp, #12]
 1947 0a50 DFED160A 		flds	s1, .L150+36
 1948              		.loc 1 684 0
 1949 0a54 3270     		strb	r2, [r6]
 1950 0a56 0293     		str	r3, [sp, #8]
 1951              		.loc 1 685 0
 1952 0a58 FFF7FEFF 		bl	buffer_append_float32
 1953              	.LVL191:
 1954              		.loc 1 686 0
 1955 0a5c 3946     		mov	r1, r7
 1956 0a5e 3046     		mov	r0, r6
 1957 0a60 9DED040A 		flds	s0, [sp, #16]
 1958 0a64 DFED110A 		flds	s1, .L150+36
 1959 0a68 FFF7FEFF 		bl	buffer_append_float32
 1960              	.LVL192:
 1961              	.LBB123:
 1962              	.LBB124:
 1963              		.loc 1 94 0
 1964 0a6c 064B     		ldr	r3, .L150
 1965              	.LBE124:
 1966              	.LBE123:
 1967              		.loc 1 687 0
 1968 0a6e 0299     		ldr	r1, [sp, #8]
 1969 0a70 9DF80720 		ldrb	r2, [sp, #7]	@ zero_extendqisi2
 1970              	.LBB127:
 1971              	.LBB125:
 1972              		.loc 1 94 0
 1973 0a74 1B68     		ldr	r3, [r3]
 1974              	.LBE125:
 1975              	.LBE127:
 1976              		.loc 1 687 0
 1977 0a76 7254     		strb	r2, [r6, r1]
 1978              	.LVL193:
 1979 0a78 0131     		adds	r1, r1, #1
 1980              	.LVL194:
 1981 0a7a 0291     		str	r1, [sp, #8]
 1982              	.LBB128:
 1983              	.LBB126:
 1984              		.loc 1 94 0
 1985 0a7c 002B     		cmp	r3, #0
 1986 0a7e 3FF486AC 		beq	.L24
 1987              		.loc 1 95 0
 1988 0a82 3046     		mov	r0, r6
 1989 0a84 9847     		blx	r3
 1990              	.LVL195:
 1991 0a86 82E4     		b	.L24
 1992              	.L151:
 1993              		.align	2
 1994              	.L150:
 1995 0a88 00000000 		.word	.LANCHOR9
ARM GAS  /tmp/ccy8OeyM.s 			page 36


 1996 0a8c 00000000 		.word	.LANCHOR8
 1997 0a90 00000000 		.word	.LANCHOR14
 1998 0a94 00000000 		.word	.LANCHOR11
 1999 0a98 00000000 		.word	.LANCHOR13
 2000 0a9c 00401C46 		.word	1176256512
 2001 0aa0 0AD7233C 		.word	1008981770
 2002 0aa4 00002041 		.word	1092616192
 2003 0aa8 00007A44 		.word	1148846080
 2004 0aac 00247449 		.word	1232348160
 2005 0ab0 00000000 		.word	0
 2006              	.LVL196:
 2007              	.L47:
 2008              	.LBE126:
 2009              	.LBE128:
 2010              	.LBE122:
 2011              	.LBB129:
 2012              		.loc 1 644 0
 2013 0ab4 02A9     		add	r1, sp, #8
 2014 0ab6 2046     		mov	r0, r4
 2015 0ab8 1FED050A 		flds	s0, .L150+32
 2016 0abc FFF7FEFF 		bl	buffer_get_float32
 2017              	.LVL197:
 2018              		.loc 1 645 0
 2019 0ac0 2046     		mov	r0, r4
 2020              		.loc 1 644 0
 2021 0ac2 B0EE409A 		fcpys	s18, s0
 2022              	.LVL198:
 2023              		.loc 1 645 0
 2024 0ac6 02A9     		add	r1, sp, #8
 2025 0ac8 1FED090A 		flds	s0, .L150+32
 2026              	.LVL199:
 2027 0acc FFF7FEFF 		bl	buffer_get_float32
 2028              	.LVL200:
 2029              		.loc 1 646 0
 2030 0ad0 2046     		mov	r0, r4
 2031              		.loc 1 645 0
 2032 0ad2 B0EE408A 		fcpys	s16, s0
 2033              	.LVL201:
 2034              		.loc 1 646 0
 2035 0ad6 02A9     		add	r1, sp, #8
 2036 0ad8 1FED0D0A 		flds	s0, .L150+32
 2037              	.LVL202:
 2038 0adc FFF7FEFF 		bl	buffer_get_float32
 2039              	.LVL203:
 2040              		.loc 1 647 0
 2041 0ae0 2046     		mov	r0, r4
 2042              		.loc 1 646 0
 2043 0ae2 F0EE408A 		fcpys	s17, s0
 2044              	.LVL204:
 2045              		.loc 1 647 0
 2046 0ae6 02A9     		add	r1, sp, #8
 2047 0ae8 1FED100A 		flds	s0, .L150+36
 2048              	.LVL205:
 2049 0aec FFF7FEFF 		bl	buffer_get_float32
 2050              	.LVL206:
 2051              		.loc 1 650 0
 2052 0af0 F0EE680A 		fcpys	s1, s17
ARM GAS  /tmp/ccy8OeyM.s 			page 37


 2053              		.loc 1 647 0
 2054 0af4 F0EE401A 		fcpys	s3, s0
 2055              	.LVL207:
 2056              		.loc 1 650 0
 2057 0af8 B0EE481A 		fcpys	s2, s16
 2058 0afc B0EE490A 		fcpys	s0, s18
 2059              	.LVL208:
 2060 0b00 04A8     		add	r0, sp, #16
 2061 0b02 FFF7FEFF 		bl	conf_general_measure_flux_linkage
 2062              	.LVL209:
 2063              		.loc 1 652 0
 2064 0b06 0028     		cmp	r0, #0
 2065 0b08 41F04680 		bne	.L143
 2066              		.loc 1 653 0
 2067 0b0c 5FED187A 		flds	s15, .L150+40
 2068 0b10 B0EE670A 		fcpys	s0, s15
 2069 0b14 CDED047A 		fsts	s15, [sp, #16]
 2070              	.L70:
 2071              		.loc 1 657 0 discriminator 3
 2072 0b18 2B4C     		ldr	r4, .L152
 2073              	.LVL210:
 2074              		.loc 1 658 0 discriminator 3
 2075 0b1a DFED2C0A 		flds	s1, .L152+4
 2076              		.loc 1 657 0 discriminator 3
 2077 0b1e 1922     		movs	r2, #25
 2078 0b20 0123     		movs	r3, #1
 2079              		.loc 1 658 0 discriminator 3
 2080 0b22 02A9     		add	r1, sp, #8
 2081 0b24 2046     		mov	r0, r4
 2082              	.LVL211:
 2083              		.loc 1 657 0 discriminator 3
 2084 0b26 2270     		strb	r2, [r4]
 2085 0b28 0293     		str	r3, [sp, #8]
 2086              	.LVL212:
 2087              	.L139:
 2088              		.loc 1 658 0 discriminator 3
 2089 0b2a FFF7FEFF 		bl	buffer_append_float32
 2090              	.LVL213:
 2091              	.LBB130:
 2092              	.LBB131:
 2093              		.loc 1 94 0 discriminator 3
 2094 0b2e 284B     		ldr	r3, .L152+8
 2095              	.LBE131:
 2096              	.LBE130:
 2097              		.loc 1 659 0 discriminator 3
 2098 0b30 0299     		ldr	r1, [sp, #8]
 2099              	.LVL214:
 2100              	.LBB133:
 2101              	.LBB132:
 2102              		.loc 1 94 0 discriminator 3
 2103 0b32 1B68     		ldr	r3, [r3]
 2104 0b34 002B     		cmp	r3, #0
 2105 0b36 7FF47BAC 		bne	.L133
 2106 0b3a 28E4     		b	.L24
 2107              	.LVL215:
 2108              	.L46:
 2109              	.LBE132:
ARM GAS  /tmp/ccy8OeyM.s 			page 38


 2110              	.LBE133:
 2111              	.LBE129:
 2112              	.LBB134:
 2113              		.loc 1 618 0
 2114 0b3c FFF7FEFF 		bl	mc_interface_get_configuration
 2115              	.LVL216:
 2116 0b40 244C     		ldr	r4, .L152+12
 2117              	.LVL217:
 2118              		.loc 1 624 0
 2119 0b42 9FED258A 		flds	s16, .L152+16
 2120              		.loc 1 618 0
 2121 0b46 0146     		mov	r1, r0
 2122 0b48 4FF49A72 		mov	r2, #308
 2123 0b4c 2046     		mov	r0, r4
 2124 0b4e FFF7FEFF 		bl	memcpy
 2125              	.LVL218:
 2126              		.loc 1 619 0
 2127 0b52 2146     		mov	r1, r4
 2128 0b54 4FF49A72 		mov	r2, #308
 2129 0b58 2048     		ldr	r0, .L152+20
 2130 0b5a FFF7FEFF 		bl	memcpy
 2131              	.LVL219:
 2132              		.loc 1 621 0
 2133 0b5e 0223     		movs	r3, #2
 2134              		.loc 1 622 0
 2135 0b60 2046     		mov	r0, r4
 2136              		.loc 1 621 0
 2137 0b62 A370     		strb	r3, [r4, #2]
 2138              		.loc 1 622 0
 2139 0b64 FFF7FEFF 		bl	mc_interface_set_configuration
 2140              	.LVL220:
 2141              		.loc 1 626 0
 2142 0b68 03A8     		add	r0, sp, #12
 2143 0b6a 04A9     		add	r1, sp, #16
 2144              		.loc 1 624 0
 2145 0b6c 8DED038A 		fsts	s16, [sp, #12]
 2146              		.loc 1 625 0
 2147 0b70 8DED048A 		fsts	s16, [sp, #16]
 2148              		.loc 1 626 0
 2149 0b74 FFF7FEFF 		bl	mcpwm_foc_measure_res_ind
 2150              	.LVL221:
 2151 0b78 0446     		mov	r4, r0
 2152              	.LVL222:
 2153              		.loc 1 627 0
 2154 0b7a 1848     		ldr	r0, .L152+20
 2155 0b7c FFF7FEFF 		bl	mc_interface_set_configuration
 2156              	.LVL223:
 2157              		.loc 1 629 0
 2158 0b80 002C     		cmp	r4, #0
 2159 0b82 41F00580 		bne	.L144
 2160              		.loc 1 631 0
 2161 0b86 B0EE480A 		fcpys	s0, s16
 2162              		.loc 1 630 0
 2163 0b8a 8DED038A 		fsts	s16, [sp, #12]
 2164              		.loc 1 631 0
 2165 0b8e 8DED048A 		fsts	s16, [sp, #16]
 2166              	.L67:
ARM GAS  /tmp/ccy8OeyM.s 			page 39


 2167              		.loc 1 635 0 discriminator 2
 2168 0b92 2CAD     		add	r5, sp, #176
 2169              	.LVL224:
 2170 0b94 0123     		movs	r3, #1
 2171 0b96 45F8A83D 		str	r3, [r5, #-168]!
 2172 0b9a 0B4C     		ldr	r4, .L152
 2173              	.LVL225:
 2174              		.loc 1 636 0 discriminator 2
 2175 0b9c DFED100A 		flds	s1, .L152+24
 2176 0ba0 2946     		mov	r1, r5
 2177              		.loc 1 635 0 discriminator 2
 2178 0ba2 1823     		movs	r3, #24
 2179              		.loc 1 636 0 discriminator 2
 2180 0ba4 2046     		mov	r0, r4
 2181              		.loc 1 635 0 discriminator 2
 2182 0ba6 2370     		strb	r3, [r4]
 2183              		.loc 1 636 0 discriminator 2
 2184 0ba8 FFF7FEFF 		bl	buffer_append_float32
 2185              	.LVL226:
 2186              		.loc 1 637 0 discriminator 2
 2187 0bac 2046     		mov	r0, r4
 2188 0bae 2946     		mov	r1, r5
 2189 0bb0 9DED040A 		flds	s0, [sp, #16]
 2190 0bb4 DFED0B0A 		flds	s1, .L152+28
 2191 0bb8 B7E7     		b	.L139
 2192              	.LVL227:
 2193              	.L44:
 2194              	.LBE134:
 2195              		.loc 1 604 0
 2196 0bba 0023     		movs	r3, #0
 2197 0bbc 6355     		strb	r3, [r4, r5]
 2198              		.loc 1 605 0
 2199 0bbe 2046     		mov	r0, r4
 2200 0bc0 FFF7FEFF 		bl	terminal_process_string
 2201              	.LVL228:
 2202              		.loc 1 606 0
 2203 0bc4 FFF7E3BB 		b	.L24
 2204              	.L153:
 2205              		.align	2
 2206              	.L152:
 2207 0bc8 00000000 		.word	.LANCHOR8
 2208 0bcc 8096184B 		.word	1259902592
 2209 0bd0 00000000 		.word	.LANCHOR9
 2210 0bd4 00000000 		.word	.LANCHOR11
 2211 0bd8 00000000 		.word	0
 2212 0bdc 00000000 		.word	.LANCHOR13
 2213 0be0 00247449 		.word	1232348160
 2214 0be4 00007A44 		.word	1148846080
 2215              	.L40:
 2216              		.loc 1 351 0
 2217 0be8 B8F10D0F 		cmp	r8, #13
 2218 0bec 00F0E587 		beq	.L145
 2219              		.loc 1 354 0
 2220 0bf0 F548     		ldr	r0, .L154
 2221 0bf2 FFF7FEFF 		bl	conf_general_get_default_mc_configuration
 2222              	.LVL229:
 2223              	.L63:
ARM GAS  /tmp/ccy8OeyM.s 			page 40


 2224              		.loc 1 360 0
 2225 0bf6 F44D     		ldr	r5, .L154
 2226              	.LVL230:
 2227              		.loc 1 365 0
 2228 0bf8 9FEDF48A 		flds	s16, .L154+4
 2229 0bfc D5ED017A 		flds	s15, [r5, #4]
 2230              		.loc 1 358 0
 2231 0c00 F34C     		ldr	r4, .L154+8
 2232              	.LVL231:
 2233              		.loc 1 360 0
 2234 0c02 2A78     		ldrb	r2, [r5]	@ zero_extendqisi2
 2235 0c04 6270     		strb	r2, [r4, #1]
 2236              		.loc 1 363 0
 2237 0c06 2CAE     		add	r6, sp, #176
 2238              		.loc 1 365 0
 2239 0c08 67EE887A 		fmuls	s15, s15, s16
 2240              		.loc 1 363 0
 2241 0c0c 0522     		movs	r2, #5
 2242 0c0e 46F8A82D 		str	r2, [r6, #-168]!
 2243              		.loc 1 365 0
 2244 0c12 FDEEE77A 		ftosizs	s15, s15
 2245              		.loc 1 361 0
 2246 0c16 95F801E0 		ldrb	lr, [r5, #1]	@ zero_extendqisi2
 2247              		.loc 1 363 0
 2248 0c1a EB78     		ldrb	r3, [r5, #3]	@ zero_extendqisi2
 2249              		.loc 1 362 0
 2250 0c1c AF78     		ldrb	r7, [r5, #2]	@ zero_extendqisi2
 2251              	.LVL232:
 2252              		.loc 1 361 0
 2253 0c1e 84F802E0 		strb	lr, [r4, #2]
 2254              		.loc 1 365 0
 2255 0c22 17EE901A 		fmrs	r1, s15	@ int
 2256 0c26 3246     		mov	r2, r6
 2257 0c28 2046     		mov	r0, r4
 2258              		.loc 1 363 0
 2259 0c2a 2371     		strb	r3, [r4, #4]
 2260              		.loc 1 362 0
 2261 0c2c E770     		strb	r7, [r4, #3]
 2262              		.loc 1 358 0
 2263 0c2e 84F80080 		strb	r8, [r4]
 2264              		.loc 1 365 0
 2265 0c32 FFF7FEFF 		bl	buffer_append_int32
 2266              	.LVL233:
 2267              		.loc 1 366 0
 2268 0c36 D5ED027A 		flds	s15, [r5, #8]
 2269              		.loc 1 384 0
 2270 0c3a DFEDE68A 		flds	s17, .L154+12
 2271              		.loc 1 366 0
 2272 0c3e 67EE887A 		fmuls	s15, s15, s16
 2273 0c42 3246     		mov	r2, r6
 2274 0c44 FDEEE77A 		ftosizs	s15, s15
 2275 0c48 2046     		mov	r0, r4
 2276 0c4a 17EE901A 		fmrs	r1, s15	@ int
 2277 0c4e FFF7FEFF 		bl	buffer_append_int32
 2278              	.LVL234:
 2279              		.loc 1 367 0
 2280 0c52 D5ED037A 		flds	s15, [r5, #12]
ARM GAS  /tmp/ccy8OeyM.s 			page 41


 2281 0c56 67EE887A 		fmuls	s15, s15, s16
 2282 0c5a 3246     		mov	r2, r6
 2283 0c5c FDEEE77A 		ftosizs	s15, s15
 2284 0c60 2046     		mov	r0, r4
 2285 0c62 17EE901A 		fmrs	r1, s15	@ int
 2286 0c66 FFF7FEFF 		bl	buffer_append_int32
 2287              	.LVL235:
 2288              		.loc 1 368 0
 2289 0c6a D5ED047A 		flds	s15, [r5, #16]
 2290 0c6e 67EE887A 		fmuls	s15, s15, s16
 2291 0c72 3246     		mov	r2, r6
 2292 0c74 FDEEE77A 		ftosizs	s15, s15
 2293 0c78 2046     		mov	r0, r4
 2294 0c7a 17EE901A 		fmrs	r1, s15	@ int
 2295 0c7e FFF7FEFF 		bl	buffer_append_int32
 2296              	.LVL236:
 2297              		.loc 1 369 0
 2298 0c82 D5ED057A 		flds	s15, [r5, #20]
 2299 0c86 67EE887A 		fmuls	s15, s15, s16
 2300 0c8a 3246     		mov	r2, r6
 2301 0c8c FDEEE77A 		ftosizs	s15, s15
 2302 0c90 2046     		mov	r0, r4
 2303 0c92 17EE901A 		fmrs	r1, s15	@ int
 2304 0c96 FFF7FEFF 		bl	buffer_append_int32
 2305              	.LVL237:
 2306              		.loc 1 370 0
 2307 0c9a D5ED067A 		flds	s15, [r5, #24]
 2308 0c9e 67EE887A 		fmuls	s15, s15, s16
 2309 0ca2 3246     		mov	r2, r6
 2310 0ca4 FDEEE77A 		ftosizs	s15, s15
 2311 0ca8 2046     		mov	r0, r4
 2312 0caa 17EE901A 		fmrs	r1, s15	@ int
 2313 0cae FFF7FEFF 		bl	buffer_append_int32
 2314              	.LVL238:
 2315              		.loc 1 371 0
 2316 0cb2 D5ED077A 		flds	s15, [r5, #28]
 2317 0cb6 67EE887A 		fmuls	s15, s15, s16
 2318 0cba 3246     		mov	r2, r6
 2319 0cbc FDEEE77A 		ftosizs	s15, s15
 2320 0cc0 2046     		mov	r0, r4
 2321 0cc2 17EE901A 		fmrs	r1, s15	@ int
 2322 0cc6 FFF7FEFF 		bl	buffer_append_int32
 2323              	.LVL239:
 2324              		.loc 1 372 0
 2325 0cca D5ED087A 		flds	s15, [r5, #32]
 2326 0cce 67EE887A 		fmuls	s15, s15, s16
 2327 0cd2 3246     		mov	r2, r6
 2328 0cd4 FDEEE77A 		ftosizs	s15, s15
 2329 0cd8 2046     		mov	r0, r4
 2330 0cda 17EE901A 		fmrs	r1, s15	@ int
 2331 0cde FFF7FEFF 		bl	buffer_append_int32
 2332              	.LVL240:
 2333              		.loc 1 373 0
 2334 0ce2 D5ED097A 		flds	s15, [r5, #36]
 2335 0ce6 67EE887A 		fmuls	s15, s15, s16
 2336 0cea 3246     		mov	r2, r6
 2337 0cec FDEEE77A 		ftosizs	s15, s15
ARM GAS  /tmp/ccy8OeyM.s 			page 42


 2338 0cf0 2046     		mov	r0, r4
 2339 0cf2 17EE901A 		fmrs	r1, s15	@ int
 2340 0cf6 FFF7FEFF 		bl	buffer_append_int32
 2341              	.LVL241:
 2342              		.loc 1 374 0
 2343 0cfa D5ED0A7A 		flds	s15, [r5, #40]
 2344 0cfe 67EE887A 		fmuls	s15, s15, s16
 2345 0d02 3246     		mov	r2, r6
 2346 0d04 FDEEE77A 		ftosizs	s15, s15
 2347 0d08 2046     		mov	r0, r4
 2348 0d0a 17EE901A 		fmrs	r1, s15	@ int
 2349 0d0e FFF7FEFF 		bl	buffer_append_int32
 2350              	.LVL242:
 2351              		.loc 1 375 0
 2352 0d12 D5ED0B7A 		flds	s15, [r5, #44]
 2353 0d16 67EE887A 		fmuls	s15, s15, s16
 2354 0d1a 3246     		mov	r2, r6
 2355 0d1c FDEEE77A 		ftosizs	s15, s15
 2356 0d20 2046     		mov	r0, r4
 2357 0d22 17EE901A 		fmrs	r1, s15	@ int
 2358 0d26 FFF7FEFF 		bl	buffer_append_int32
 2359              	.LVL243:
 2360              		.loc 1 376 0
 2361 0d2a F0EE480A 		fcpys	s1, s16
 2362 0d2e 2046     		mov	r0, r4
 2363 0d30 3146     		mov	r1, r6
 2364 0d32 95ED0C0A 		flds	s0, [r5, #48]
 2365 0d36 FFF7FEFF 		bl	buffer_append_float32
 2366              	.LVL244:
 2367              		.loc 1 377 0
 2368 0d3a F0EE480A 		fcpys	s1, s16
 2369 0d3e 95ED0D0A 		flds	s0, [r5, #52]
 2370 0d42 2046     		mov	r0, r4
 2371 0d44 3146     		mov	r1, r6
 2372 0d46 FFF7FEFF 		bl	buffer_append_float32
 2373              	.LVL245:
 2374              		.loc 1 380 0
 2375 0d4a D5ED0F7A 		flds	s15, [r5, #60]
 2376              		.loc 1 378 0
 2377 0d4e 029B     		ldr	r3, [sp, #8]
 2378 0d50 95F83820 		ldrb	r2, [r5, #56]	@ zero_extendqisi2
 2379              		.loc 1 379 0
 2380 0d54 95F839E0 		ldrb	lr, [r5, #57]	@ zero_extendqisi2
 2381              		.loc 1 378 0
 2382 0d58 E254     		strb	r2, [r4, r3]
 2383              		.loc 1 380 0
 2384 0d5a 67EE887A 		fmuls	s15, s15, s16
 2385              		.loc 1 379 0
 2386 0d5e E718     		adds	r7, r4, r3
 2387              		.loc 1 380 0
 2388 0d60 FDEEE77A 		ftosizs	s15, s15
 2389              		.loc 1 379 0
 2390 0d64 0233     		adds	r3, r3, #2
 2391              		.loc 1 380 0
 2392 0d66 17EE901A 		fmrs	r1, s15	@ int
 2393 0d6a 3246     		mov	r2, r6
 2394 0d6c 2046     		mov	r0, r4
ARM GAS  /tmp/ccy8OeyM.s 			page 43


 2395              		.loc 1 379 0
 2396 0d6e 87F801E0 		strb	lr, [r7, #1]
 2397 0d72 0293     		str	r3, [sp, #8]
 2398              		.loc 1 380 0
 2399 0d74 FFF7FEFF 		bl	buffer_append_int32
 2400              	.LVL246:
 2401              		.loc 1 381 0
 2402 0d78 D5ED107A 		flds	s15, [r5, #64]
 2403 0d7c 67EE887A 		fmuls	s15, s15, s16
 2404 0d80 3246     		mov	r2, r6
 2405 0d82 FDEEE77A 		ftosizs	s15, s15
 2406 0d86 2046     		mov	r0, r4
 2407 0d88 17EE901A 		fmrs	r1, s15	@ int
 2408 0d8c FFF7FEFF 		bl	buffer_append_int32
 2409              	.LVL247:
 2410              		.loc 1 382 0
 2411 0d90 D5ED117A 		flds	s15, [r5, #68]
 2412 0d94 67EE887A 		fmuls	s15, s15, s16
 2413 0d98 3246     		mov	r2, r6
 2414 0d9a FDEEE77A 		ftosizs	s15, s15
 2415 0d9e 2046     		mov	r0, r4
 2416 0da0 17EE901A 		fmrs	r1, s15	@ int
 2417 0da4 FFF7FEFF 		bl	buffer_append_int32
 2418              	.LVL248:
 2419              		.loc 1 383 0
 2420 0da8 D5ED127A 		flds	s15, [r5, #72]
 2421 0dac 67EE887A 		fmuls	s15, s15, s16
 2422 0db0 3246     		mov	r2, r6
 2423 0db2 FDEEE77A 		ftosizs	s15, s15
 2424 0db6 2046     		mov	r0, r4
 2425 0db8 17EE901A 		fmrs	r1, s15	@ int
 2426 0dbc FFF7FEFF 		bl	buffer_append_int32
 2427              	.LVL249:
 2428              		.loc 1 384 0
 2429 0dc0 D5ED137A 		flds	s15, [r5, #76]
 2430 0dc4 67EEA87A 		fmuls	s15, s15, s17
 2431 0dc8 3246     		mov	r2, r6
 2432 0dca FDEEE77A 		ftosizs	s15, s15
 2433 0dce 2046     		mov	r0, r4
 2434 0dd0 17EE901A 		fmrs	r1, s15	@ int
 2435 0dd4 FFF7FEFF 		bl	buffer_append_int32
 2436              	.LVL250:
 2437              		.loc 1 385 0
 2438 0dd8 D5ED147A 		flds	s15, [r5, #80]
 2439 0ddc 67EEA87A 		fmuls	s15, s15, s17
 2440 0de0 3246     		mov	r2, r6
 2441 0de2 FDEEE77A 		ftosizs	s15, s15
 2442 0de6 2046     		mov	r0, r4
 2443 0de8 17EE901A 		fmrs	r1, s15	@ int
 2444 0dec FFF7FEFF 		bl	buffer_append_int32
 2445              	.LVL251:
 2446              		.loc 1 387 0
 2447 0df0 D5ED197A 		flds	s15, [r5, #100]
 2448 0df4 67EE887A 		fmuls	s15, s15, s16
 2449 0df8 3246     		mov	r2, r6
 2450 0dfa FDEEE77A 		ftosizs	s15, s15
 2451 0dfe 2046     		mov	r0, r4
ARM GAS  /tmp/ccy8OeyM.s 			page 44


 2452 0e00 17EE901A 		fmrs	r1, s15	@ int
 2453 0e04 FFF7FEFF 		bl	buffer_append_int32
 2454              	.LVL252:
 2455              		.loc 1 388 0
 2456 0e08 D5ED1A7A 		flds	s15, [r5, #104]
 2457 0e0c 67EE887A 		fmuls	s15, s15, s16
 2458 0e10 3246     		mov	r2, r6
 2459 0e12 FDEEE77A 		ftosizs	s15, s15
 2460 0e16 2046     		mov	r0, r4
 2461 0e18 17EE901A 		fmrs	r1, s15	@ int
 2462 0e1c FFF7FEFF 		bl	buffer_append_int32
 2463              	.LVL253:
 2464              		.loc 1 389 0
 2465 0e20 D5ED1B7A 		flds	s15, [r5, #108]
 2466 0e24 67EE887A 		fmuls	s15, s15, s16
 2467 0e28 3246     		mov	r2, r6
 2468 0e2a FDEEE77A 		ftosizs	s15, s15
 2469 0e2e 2046     		mov	r0, r4
 2470 0e30 17EE901A 		fmrs	r1, s15	@ int
 2471 0e34 FFF7FEFF 		bl	buffer_append_int32
 2472              	.LVL254:
 2473              		.loc 1 390 0
 2474 0e38 D5ED1C7A 		flds	s15, [r5, #112]
 2475 0e3c 67EE887A 		fmuls	s15, s15, s16
 2476 0e40 3246     		mov	r2, r6
 2477 0e42 FDEEE77A 		ftosizs	s15, s15
 2478 0e46 2046     		mov	r0, r4
 2479 0e48 17EE901A 		fmrs	r1, s15	@ int
 2480 0e4c FFF7FEFF 		bl	buffer_append_int32
 2481              	.LVL255:
 2482              		.loc 1 391 0
 2483 0e50 D5ED1D7A 		flds	s15, [r5, #116]
 2484 0e54 67EE887A 		fmuls	s15, s15, s16
 2485 0e58 3246     		mov	r2, r6
 2486 0e5a FDEEE77A 		ftosizs	s15, s15
 2487 0e5e 2046     		mov	r0, r4
 2488 0e60 17EE901A 		fmrs	r1, s15	@ int
 2489 0e64 FFF7FEFF 		bl	buffer_append_int32
 2490              	.LVL256:
 2491              		.loc 1 392 0
 2492 0e68 D5ED1E7A 		flds	s15, [r5, #120]
 2493 0e6c 67EE887A 		fmuls	s15, s15, s16
 2494 0e70 3246     		mov	r2, r6
 2495 0e72 FDEEE77A 		ftosizs	s15, s15
 2496 0e76 2046     		mov	r0, r4
 2497 0e78 17EE901A 		fmrs	r1, s15	@ int
 2498 0e7c FFF7FEFF 		bl	buffer_append_int32
 2499              	.LVL257:
 2500              		.loc 1 393 0
 2501 0e80 D5ED1F7A 		flds	s15, [r5, #124]
 2502 0e84 67EE887A 		fmuls	s15, s15, s16
 2503 0e88 3246     		mov	r2, r6
 2504 0e8a FDEEE77A 		ftosizs	s15, s15
 2505 0e8e 2046     		mov	r0, r4
 2506 0e90 17EE901A 		fmrs	r1, s15	@ int
 2507 0e94 FFF7FEFF 		bl	buffer_append_int32
 2508              	.LVL258:
ARM GAS  /tmp/ccy8OeyM.s 			page 45


 2509              		.loc 1 397 0
 2510 0e98 D5ED227A 		flds	s15, [r5, #136]
 2511              		.loc 1 395 0
 2512 0e9c 029B     		ldr	r3, [sp, #8]
 2513              		.loc 1 397 0
 2514 0e9e 67EE887A 		fmuls	s15, s15, s16
 2515              		.loc 1 395 0
 2516 0ea2 05F18002 		add	r2, r5, #128
 2517 0ea6 03CA     		ldmia	r2!, {r0, r1}
 2518              		.loc 1 397 0
 2519 0ea8 FDEEE77A 		ftosizs	s15, s15
 2520              		.loc 1 395 0
 2521 0eac E218     		adds	r2, r4, r3
 2522 0eae E050     		str	r0, [r4, r3]	@ unaligned
 2523              		.loc 1 396 0
 2524 0eb0 0833     		adds	r3, r3, #8
 2525              		.loc 1 395 0
 2526 0eb2 5160     		str	r1, [r2, #4]	@ unaligned
 2527              		.loc 1 397 0
 2528 0eb4 2046     		mov	r0, r4
 2529 0eb6 17EE901A 		fmrs	r1, s15	@ int
 2530 0eba 3246     		mov	r2, r6
 2531              		.loc 1 396 0
 2532 0ebc 0293     		str	r3, [sp, #8]
 2533              		.loc 1 397 0
 2534 0ebe FFF7FEFF 		bl	buffer_append_int32
 2535              	.LVL259:
 2536              		.loc 1 399 0
 2537 0ec2 2046     		mov	r0, r4
 2538 0ec4 3146     		mov	r1, r6
 2539 0ec6 95ED230A 		flds	s0, [r5, #140]
 2540 0eca DFED440A 		flds	s1, .L154+20
 2541 0ece FFF7FEFF 		bl	buffer_append_float32
 2542              	.LVL260:
 2543              		.loc 1 400 0
 2544 0ed2 2046     		mov	r0, r4
 2545 0ed4 3146     		mov	r1, r6
 2546 0ed6 95ED240A 		flds	s0, [r5, #144]
 2547 0eda DFED400A 		flds	s1, .L154+20
 2548 0ede FFF7FEFF 		bl	buffer_append_float32
 2549              	.LVL261:
 2550              		.loc 1 401 0
 2551 0ee2 F0EE480A 		fcpys	s1, s16
 2552 0ee6 2046     		mov	r0, r4
 2553 0ee8 3146     		mov	r1, r6
 2554 0eea 95ED250A 		flds	s0, [r5, #148]
 2555 0eee FFF7FEFF 		bl	buffer_append_float32
 2556              	.LVL262:
 2557              		.loc 1 402 0
 2558 0ef2 2046     		mov	r0, r4
 2559 0ef4 3146     		mov	r1, r6
 2560 0ef6 95ED260A 		flds	s0, [r5, #152]
 2561 0efa F0EE680A 		fcpys	s1, s17
 2562 0efe FFF7FEFF 		bl	buffer_append_float32
 2563              	.LVL263:
 2564              		.loc 1 403 0
 2565 0f02 029B     		ldr	r3, [sp, #8]
ARM GAS  /tmp/ccy8OeyM.s 			page 46


 2566 0f04 95F8A020 		ldrb	r2, [r5, #160]	@ zero_extendqisi2
 2567 0f08 E254     		strb	r2, [r4, r3]
 2568              		.loc 1 404 0
 2569 0f0a F0EE480A 		fcpys	s1, s16
 2570              		.loc 1 403 0
 2571 0f0e 0133     		adds	r3, r3, #1
 2572              		.loc 1 404 0
 2573 0f10 95ED270A 		flds	s0, [r5, #156]
 2574              		.loc 1 403 0
 2575 0f14 0293     		str	r3, [sp, #8]
 2576              		.loc 1 404 0
 2577 0f16 3146     		mov	r1, r6
 2578 0f18 2046     		mov	r0, r4
 2579 0f1a FFF7FEFF 		bl	buffer_append_float32
 2580              	.LVL264:
 2581              		.loc 1 405 0
 2582 0f1e F0EE480A 		fcpys	s1, s16
 2583 0f22 2046     		mov	r0, r4
 2584 0f24 3146     		mov	r1, r6
 2585 0f26 95ED290A 		flds	s0, [r5, #164]
 2586 0f2a FFF7FEFF 		bl	buffer_append_float32
 2587              	.LVL265:
 2588              		.loc 1 406 0
 2589 0f2e 029B     		ldr	r3, [sp, #8]
 2590 0f30 95F8DC20 		ldrb	r2, [r5, #220]	@ zero_extendqisi2
 2591 0f34 E254     		strb	r2, [r4, r3]
 2592              		.loc 1 407 0
 2593 0f36 F0EE480A 		fcpys	s1, s16
 2594              		.loc 1 406 0
 2595 0f3a 0133     		adds	r3, r3, #1
 2596              		.loc 1 407 0
 2597 0f3c 95ED2E0A 		flds	s0, [r5, #184]
 2598              		.loc 1 406 0
 2599 0f40 0293     		str	r3, [sp, #8]
 2600              		.loc 1 407 0
 2601 0f42 3146     		mov	r1, r6
 2602 0f44 2046     		mov	r0, r4
 2603 0f46 FFF7FEFF 		bl	buffer_append_float32
 2604              	.LVL266:
 2605              		.loc 1 408 0
 2606 0f4a F0EE480A 		fcpys	s1, s16
 2607 0f4e 2046     		mov	r0, r4
 2608 0f50 3146     		mov	r1, r6
 2609 0f52 95ED2F0A 		flds	s0, [r5, #188]
 2610 0f56 FFF7FEFF 		bl	buffer_append_float32
 2611              	.LVL267:
 2612              		.loc 1 409 0
 2613 0f5a 2046     		mov	r0, r4
 2614 0f5c 3146     		mov	r1, r6
 2615 0f5e 95ED2A0A 		flds	s0, [r5, #168]
 2616 0f62 DFED1D0A 		flds	s1, .L154+16
 2617 0f66 FFF7FEFF 		bl	buffer_append_float32
 2618              	.LVL268:
 2619              		.loc 1 410 0
 2620 0f6a 2046     		mov	r0, r4
 2621 0f6c 3146     		mov	r1, r6
 2622 0f6e 95ED2B0A 		flds	s0, [r5, #172]
ARM GAS  /tmp/ccy8OeyM.s 			page 47


 2623 0f72 DFED1A0A 		flds	s1, .L154+20
 2624 0f76 FFF7FEFF 		bl	buffer_append_float32
 2625              	.LVL269:
 2626              		.loc 1 411 0
 2627 0f7a 2046     		mov	r0, r4
 2628 0f7c 3146     		mov	r1, r6
 2629 0f7e 95ED2C0A 		flds	s0, [r5, #176]
 2630 0f82 DFED160A 		flds	s1, .L154+20
 2631 0f86 FFF7FEFF 		bl	buffer_append_float32
 2632              	.LVL270:
 2633              		.loc 1 412 0
 2634 0f8a 2046     		mov	r0, r4
 2635 0f8c 3146     		mov	r1, r6
 2636 0f8e 95ED2D0A 		flds	s0, [r5, #180]
 2637 0f92 F7EE000A 		fconsts	s1, #112
 2638 0f96 FFF7FEFF 		bl	buffer_append_float32
 2639              	.LVL271:
 2640              		.loc 1 413 0
 2641 0f9a F0EE480A 		fcpys	s1, s16
 2642 0f9e 2046     		mov	r0, r4
 2643 0fa0 3146     		mov	r1, r6
 2644 0fa2 95ED300A 		flds	s0, [r5, #192]
 2645 0fa6 FFF7FEFF 		bl	buffer_append_float32
 2646              	.LVL272:
 2647              		.loc 1 414 0
 2648 0faa F0EE480A 		fcpys	s1, s16
 2649 0fae 2046     		mov	r0, r4
 2650 0fb0 3146     		mov	r1, r6
 2651 0fb2 95ED310A 		flds	s0, [r5, #196]
 2652 0fb6 FFF7FEFF 		bl	buffer_append_float32
 2653              	.LVL273:
 2654              		.loc 1 415 0
 2655 0fba F0EE480A 		fcpys	s1, s16
 2656 0fbe 2046     		mov	r0, r4
 2657 0fc0 3146     		mov	r1, r6
 2658 0fc2 95ED320A 		flds	s0, [r5, #200]
 2659 0fc6 0BE0     		b	.L155
 2660              	.L156:
 2661              		.align	2
 2662              	.L154:
 2663 0fc8 00000000 		.word	.LANCHOR11
 2664 0fcc 00007A44 		.word	1148846080
 2665 0fd0 00000000 		.word	.LANCHOR8
 2666 0fd4 00247449 		.word	1232348160
 2667 0fd8 20BCBE4C 		.word	1287568416
 2668 0fdc 0050C347 		.word	1203982336
 2669              	.L155:
 2670 0fe0 FFF7FEFF 		bl	buffer_append_float32
 2671              	.LVL274:
 2672              		.loc 1 416 0
 2673 0fe4 F0EE480A 		fcpys	s1, s16
 2674 0fe8 2046     		mov	r0, r4
 2675 0fea 3146     		mov	r1, r6
 2676 0fec 95ED330A 		flds	s0, [r5, #204]
 2677 0ff0 FFF7FEFF 		bl	buffer_append_float32
 2678              	.LVL275:
 2679              		.loc 1 417 0
ARM GAS  /tmp/ccy8OeyM.s 			page 48


 2680 0ff4 F0EE480A 		fcpys	s1, s16
 2681 0ff8 2046     		mov	r0, r4
 2682 0ffa 3146     		mov	r1, r6
 2683 0ffc 95ED340A 		flds	s0, [r5, #208]
 2684 1000 FFF7FEFF 		bl	buffer_append_float32
 2685              	.LVL276:
 2686              		.loc 1 418 0
 2687 1004 F0EE480A 		fcpys	s1, s16
 2688 1008 2046     		mov	r0, r4
 2689 100a 3146     		mov	r1, r6
 2690 100c 95ED350A 		flds	s0, [r5, #212]
 2691 1010 FFF7FEFF 		bl	buffer_append_float32
 2692              	.LVL277:
 2693              		.loc 1 419 0
 2694 1014 F0EE480A 		fcpys	s1, s16
 2695 1018 95ED360A 		flds	s0, [r5, #216]
 2696 101c 2046     		mov	r0, r4
 2697 101e 3146     		mov	r1, r6
 2698 1020 FFF7FEFF 		bl	buffer_append_float32
 2699              	.LVL278:
 2700              		.loc 1 422 0
 2701 1024 D5ED3A7A 		flds	s15, [r5, #232]
 2702              		.loc 1 420 0
 2703 1028 029B     		ldr	r3, [sp, #8]
 2704 102a 2A46     		mov	r2, r5
 2705              		.loc 1 422 0
 2706 102c 67EE887A 		fmuls	s15, s15, s16
 2707              		.loc 1 420 0
 2708 1030 52F8DD1F 		ldr	r1, [r2, #221]!	@ unaligned
 2709 1034 E150     		str	r1, [r4, r3]	@ unaligned
 2710              		.loc 1 422 0
 2711 1036 FDEEE77A 		ftosizs	s15, s15
 2712              		.loc 1 420 0
 2713 103a E118     		adds	r1, r4, r3
 2714 103c 5268     		ldr	r2, [r2, #4]	@ unaligned
 2715 103e 4A60     		str	r2, [r1, #4]	@ unaligned
 2716              		.loc 1 421 0
 2717 1040 0833     		adds	r3, r3, #8
 2718              		.loc 1 422 0
 2719 1042 17EE901A 		fmrs	r1, s15	@ int
 2720 1046 3246     		mov	r2, r6
 2721 1048 2046     		mov	r0, r4
 2722              		.loc 1 421 0
 2723 104a 0293     		str	r3, [sp, #8]
 2724              		.loc 1 422 0
 2725 104c FFF7FEFF 		bl	buffer_append_int32
 2726              	.LVL279:
 2727              		.loc 1 424 0
 2728 1050 D5ED3B7A 		flds	s15, [r5, #236]
 2729 1054 67EEA87A 		fmuls	s15, s15, s17
 2730 1058 3246     		mov	r2, r6
 2731 105a FDEEE77A 		ftosizs	s15, s15
 2732 105e 2046     		mov	r0, r4
 2733 1060 17EE901A 		fmrs	r1, s15	@ int
 2734 1064 FFF7FEFF 		bl	buffer_append_int32
 2735              	.LVL280:
 2736              		.loc 1 425 0
ARM GAS  /tmp/ccy8OeyM.s 			page 49


 2737 1068 D5ED3C7A 		flds	s15, [r5, #240]
 2738 106c 67EEA87A 		fmuls	s15, s15, s17
 2739 1070 3246     		mov	r2, r6
 2740 1072 FDEEE77A 		ftosizs	s15, s15
 2741 1076 2046     		mov	r0, r4
 2742 1078 17EE901A 		fmrs	r1, s15	@ int
 2743 107c FFF7FEFF 		bl	buffer_append_int32
 2744              	.LVL281:
 2745              		.loc 1 426 0
 2746 1080 D5ED3D7A 		flds	s15, [r5, #244]
 2747 1084 67EEA87A 		fmuls	s15, s15, s17
 2748 1088 3246     		mov	r2, r6
 2749 108a FDEEE77A 		ftosizs	s15, s15
 2750 108e 2046     		mov	r0, r4
 2751 1090 17EE901A 		fmrs	r1, s15	@ int
 2752 1094 FFF7FEFF 		bl	buffer_append_int32
 2753              	.LVL282:
 2754              		.loc 1 427 0
 2755 1098 D5ED3E7A 		flds	s15, [r5, #248]
 2756 109c 67EE887A 		fmuls	s15, s15, s16
 2757 10a0 3246     		mov	r2, r6
 2758 10a2 FDEEE77A 		ftosizs	s15, s15
 2759 10a6 2046     		mov	r0, r4
 2760 10a8 17EE901A 		fmrs	r1, s15	@ int
 2761 10ac FFF7FEFF 		bl	buffer_append_int32
 2762              	.LVL283:
 2763              		.loc 1 429 0
 2764 10b0 D5ED3F7A 		flds	s15, [r5, #252]
 2765 10b4 67EEA87A 		fmuls	s15, s15, s17
 2766 10b8 3246     		mov	r2, r6
 2767 10ba FDEEE77A 		ftosizs	s15, s15
 2768 10be 2046     		mov	r0, r4
 2769 10c0 17EE901A 		fmrs	r1, s15	@ int
 2770 10c4 FFF7FEFF 		bl	buffer_append_int32
 2771              	.LVL284:
 2772              		.loc 1 430 0
 2773 10c8 D5ED407A 		flds	s15, [r5, #256]
 2774 10cc 67EEA87A 		fmuls	s15, s15, s17
 2775 10d0 3246     		mov	r2, r6
 2776 10d2 FDEEE77A 		ftosizs	s15, s15
 2777 10d6 2046     		mov	r0, r4
 2778 10d8 17EE901A 		fmrs	r1, s15	@ int
 2779 10dc FFF7FEFF 		bl	buffer_append_int32
 2780              	.LVL285:
 2781              		.loc 1 431 0
 2782 10e0 D5ED417A 		flds	s15, [r5, #260]
 2783 10e4 67EEA87A 		fmuls	s15, s15, s17
 2784 10e8 3246     		mov	r2, r6
 2785 10ea FDEEE77A 		ftosizs	s15, s15
 2786 10ee 2046     		mov	r0, r4
 2787 10f0 17EE901A 		fmrs	r1, s15	@ int
 2788 10f4 FFF7FEFF 		bl	buffer_append_int32
 2789              	.LVL286:
 2790              		.loc 1 432 0
 2791 10f8 95ED420A 		flds	s0, [r5, #264]
 2792 10fc 5FED490A 		flds	s1, .L154+20
 2793 1100 2046     		mov	r0, r4
ARM GAS  /tmp/ccy8OeyM.s 			page 50


 2794 1102 3146     		mov	r1, r6
 2795 1104 FFF7FEFF 		bl	buffer_append_float32
 2796              	.LVL287:
 2797              		.loc 1 434 0
 2798 1108 D5ED437A 		flds	s15, [r5, #268]
 2799 110c 67EEA87A 		fmuls	s15, s15, s17
 2800 1110 3246     		mov	r2, r6
 2801 1112 FDEEE77A 		ftosizs	s15, s15
 2802 1116 2046     		mov	r0, r4
 2803 1118 17EE901A 		fmrs	r1, s15	@ int
 2804 111c FFF7FEFF 		bl	buffer_append_int32
 2805              	.LVL288:
 2806              		.loc 1 435 0
 2807 1120 D5ED447A 		flds	s15, [r5, #272]
 2808 1124 27EE888A 		fmuls	s16, s15, s16
 2809 1128 3246     		mov	r2, r6
 2810 112a FDEEC87A 		ftosizs	s15, s16
 2811 112e 2046     		mov	r0, r4
 2812 1130 17EE901A 		fmrs	r1, s15	@ int
 2813 1134 FFF7FEFF 		bl	buffer_append_int32
 2814              	.LVL289:
 2815              		.loc 1 436 0
 2816 1138 D5ED457A 		flds	s15, [r5, #276]
 2817 113c 67EEA87A 		fmuls	s15, s15, s17
 2818 1140 3246     		mov	r2, r6
 2819 1142 FDEEE77A 		ftosizs	s15, s15
 2820 1146 2046     		mov	r0, r4
 2821 1148 17EE901A 		fmrs	r1, s15	@ int
 2822 114c FFF7FEFF 		bl	buffer_append_int32
 2823              	.LVL290:
 2824              		.loc 1 437 0
 2825 1150 D5ED467A 		flds	s15, [r5, #280]
 2826 1154 67EEA87A 		fmuls	s15, s15, s17
 2827 1158 3246     		mov	r2, r6
 2828 115a FDEEE77A 		ftosizs	s15, s15
 2829 115e 2046     		mov	r0, r4
 2830 1160 17EE901A 		fmrs	r1, s15	@ int
 2831 1164 FFF7FEFF 		bl	buffer_append_int32
 2832              	.LVL291:
 2833              		.loc 1 439 0
 2834 1168 3246     		mov	r2, r6
 2835 116a 2046     		mov	r0, r4
 2836 116c D5F81C11 		ldr	r1, [r5, #284]
 2837 1170 FFF7FEFF 		bl	buffer_append_int32
 2838              	.LVL292:
 2839              		.loc 1 440 0
 2840 1174 2046     		mov	r0, r4
 2841 1176 3146     		mov	r1, r6
 2842 1178 95ED480A 		flds	s0, [r5, #288]
 2843 117c F0EE680A 		fcpys	s1, s17
 2844 1180 FFF7FEFF 		bl	buffer_append_float32
 2845              	.LVL293:
 2846              		.loc 1 441 0
 2847 1184 2046     		mov	r0, r4
 2848 1186 3146     		mov	r1, r6
 2849 1188 95ED490A 		flds	s0, [r5, #292]
 2850 118c F0EE680A 		fcpys	s1, s17
ARM GAS  /tmp/ccy8OeyM.s 			page 51


 2851 1190 FFF7FEFF 		bl	buffer_append_float32
 2852              	.LVL294:
 2853              		.loc 1 442 0
 2854 1194 2046     		mov	r0, r4
 2855 1196 F0EE680A 		fcpys	s1, s17
 2856 119a 3146     		mov	r1, r6
 2857 119c 95ED4A0A 		flds	s0, [r5, #296]
 2858 11a0 FFF7FEFF 		bl	buffer_append_float32
 2859              	.LVL295:
 2860              		.loc 1 443 0
 2861 11a4 3246     		mov	r2, r6
 2862 11a6 D5F82C11 		ldr	r1, [r5, #300]
 2863 11aa 2046     		mov	r0, r4
 2864 11ac FFF7FEFF 		bl	buffer_append_uint32
 2865              	.LVL296:
 2866              	.LBB135:
 2867              	.LBB136:
 2868              		.loc 1 94 0
 2869 11b0 064B     		ldr	r3, .L157
 2870              	.LBE136:
 2871              	.LBE135:
 2872              		.loc 1 444 0
 2873 11b2 0299     		ldr	r1, [sp, #8]
 2874 11b4 95F83021 		ldrb	r2, [r5, #304]	@ zero_extendqisi2
 2875              	.LBB139:
 2876              	.LBB137:
 2877              		.loc 1 94 0
 2878 11b8 1B68     		ldr	r3, [r3]
 2879              	.LBE137:
 2880              	.LBE139:
 2881              		.loc 1 444 0
 2882 11ba 6254     		strb	r2, [r4, r1]
 2883              	.LVL297:
 2884 11bc 0131     		adds	r1, r1, #1
 2885              	.LVL298:
 2886 11be 0291     		str	r1, [sp, #8]
 2887              	.LBB140:
 2888              	.LBB138:
 2889              		.loc 1 94 0
 2890 11c0 002B     		cmp	r3, #0
 2891 11c2 7FF435A9 		bne	.L133
 2892 11c6 FFF7E2B8 		b	.L24
 2893              	.L158:
 2894 11ca 00BF     		.align	2
 2895              	.L157:
 2896 11cc 00000000 		.word	.LANCHOR9
 2897              	.LVL299:
 2898              	.L39:
 2899              	.LBE138:
 2900              	.LBE140:
 2901              		.loc 1 247 0
 2902 11d0 FFF7FEFF 		bl	mc_interface_get_configuration
 2903              	.LVL300:
 2904 11d4 EE4D     		ldr	r5, .L159
 2905              	.LVL301:
 2906              		.loc 1 255 0
 2907 11d6 9FEDEF8A 		flds	s16, .L159+4
ARM GAS  /tmp/ccy8OeyM.s 			page 52


 2908              		.loc 1 274 0
 2909 11da DFEDEF8A 		flds	s17, .L159+8
 2910              		.loc 1 294 0
 2911 11de 9FEDEF9A 		flds	s18, .L159+12
 2912              		.loc 1 253 0
 2913 11e2 2CAE     		add	r6, sp, #176
 2914              		.loc 1 247 0
 2915 11e4 0146     		mov	r1, r0
 2916 11e6 4FF49A72 		mov	r2, #308
 2917 11ea 2846     		mov	r0, r5
 2918 11ec FFF7FEFF 		bl	memcpy
 2919              	.LVL302:
 2920              		.loc 1 253 0
 2921 11f0 0423     		movs	r3, #4
 2922 11f2 46F8A83D 		str	r3, [r6, #-168]!
 2923              		.loc 1 250 0
 2924 11f6 7978     		ldrb	r1, [r7, #1]	@ zero_extendqisi2
 2925              		.loc 1 251 0
 2926 11f8 97F802E0 		ldrb	lr, [r7, #2]	@ zero_extendqisi2
 2927              		.loc 1 252 0
 2928 11fc FA78     		ldrb	r2, [r7, #3]	@ zero_extendqisi2
 2929              		.loc 1 253 0
 2930 11fe 3B79     		ldrb	r3, [r7, #4]	@ zero_extendqisi2
 2931              		.loc 1 250 0
 2932 1200 2970     		strb	r1, [r5]
 2933              		.loc 1 255 0
 2934 1202 B0EE480A 		fcpys	s0, s16
 2935 1206 3146     		mov	r1, r6
 2936 1208 2046     		mov	r0, r4
 2937              		.loc 1 251 0
 2938 120a 85F801E0 		strb	lr, [r5, #1]
 2939              		.loc 1 252 0
 2940 120e AA70     		strb	r2, [r5, #2]
 2941              		.loc 1 253 0
 2942 1210 EB70     		strb	r3, [r5, #3]
 2943              		.loc 1 255 0
 2944 1212 FFF7FEFF 		bl	buffer_get_float32
 2945              	.LVL303:
 2946              		.loc 1 256 0
 2947 1216 3146     		mov	r1, r6
 2948              		.loc 1 255 0
 2949 1218 85ED010A 		fsts	s0, [r5, #4]
 2950              		.loc 1 256 0
 2951 121c 2046     		mov	r0, r4
 2952 121e B0EE480A 		fcpys	s0, s16
 2953 1222 FFF7FEFF 		bl	buffer_get_float32
 2954              	.LVL304:
 2955              		.loc 1 257 0
 2956 1226 3146     		mov	r1, r6
 2957              		.loc 1 256 0
 2958 1228 85ED020A 		fsts	s0, [r5, #8]
 2959              		.loc 1 257 0
 2960 122c 2046     		mov	r0, r4
 2961 122e B0EE480A 		fcpys	s0, s16
 2962 1232 FFF7FEFF 		bl	buffer_get_float32
 2963              	.LVL305:
 2964              		.loc 1 258 0
ARM GAS  /tmp/ccy8OeyM.s 			page 53


 2965 1236 3146     		mov	r1, r6
 2966              		.loc 1 257 0
 2967 1238 85ED030A 		fsts	s0, [r5, #12]
 2968              		.loc 1 258 0
 2969 123c 2046     		mov	r0, r4
 2970 123e B0EE480A 		fcpys	s0, s16
 2971 1242 FFF7FEFF 		bl	buffer_get_float32
 2972              	.LVL306:
 2973              		.loc 1 259 0
 2974 1246 3146     		mov	r1, r6
 2975              		.loc 1 258 0
 2976 1248 85ED040A 		fsts	s0, [r5, #16]
 2977              		.loc 1 259 0
 2978 124c 2046     		mov	r0, r4
 2979 124e B0EE480A 		fcpys	s0, s16
 2980 1252 FFF7FEFF 		bl	buffer_get_float32
 2981              	.LVL307:
 2982              		.loc 1 260 0
 2983 1256 3146     		mov	r1, r6
 2984              		.loc 1 259 0
 2985 1258 85ED050A 		fsts	s0, [r5, #20]
 2986              		.loc 1 260 0
 2987 125c 2046     		mov	r0, r4
 2988 125e B0EE480A 		fcpys	s0, s16
 2989 1262 FFF7FEFF 		bl	buffer_get_float32
 2990              	.LVL308:
 2991              		.loc 1 261 0
 2992 1266 3146     		mov	r1, r6
 2993              		.loc 1 260 0
 2994 1268 85ED060A 		fsts	s0, [r5, #24]
 2995              		.loc 1 261 0
 2996 126c 2046     		mov	r0, r4
 2997 126e B0EE480A 		fcpys	s0, s16
 2998 1272 FFF7FEFF 		bl	buffer_get_float32
 2999              	.LVL309:
 3000              		.loc 1 262 0
 3001 1276 3146     		mov	r1, r6
 3002              		.loc 1 261 0
 3003 1278 85ED070A 		fsts	s0, [r5, #28]
 3004              		.loc 1 262 0
 3005 127c 2046     		mov	r0, r4
 3006 127e B0EE480A 		fcpys	s0, s16
 3007 1282 FFF7FEFF 		bl	buffer_get_float32
 3008              	.LVL310:
 3009              		.loc 1 263 0
 3010 1286 3146     		mov	r1, r6
 3011              		.loc 1 262 0
 3012 1288 85ED080A 		fsts	s0, [r5, #32]
 3013              		.loc 1 263 0
 3014 128c 2046     		mov	r0, r4
 3015 128e B0EE480A 		fcpys	s0, s16
 3016 1292 FFF7FEFF 		bl	buffer_get_float32
 3017              	.LVL311:
 3018              		.loc 1 264 0
 3019 1296 3146     		mov	r1, r6
 3020              		.loc 1 263 0
 3021 1298 85ED090A 		fsts	s0, [r5, #36]
ARM GAS  /tmp/ccy8OeyM.s 			page 54


 3022              		.loc 1 264 0
 3023 129c 2046     		mov	r0, r4
 3024 129e B0EE480A 		fcpys	s0, s16
 3025 12a2 FFF7FEFF 		bl	buffer_get_float32
 3026              	.LVL312:
 3027              		.loc 1 265 0
 3028 12a6 3146     		mov	r1, r6
 3029              		.loc 1 264 0
 3030 12a8 85ED0A0A 		fsts	s0, [r5, #40]
 3031              		.loc 1 265 0
 3032 12ac 2046     		mov	r0, r4
 3033 12ae B0EE480A 		fcpys	s0, s16
 3034 12b2 FFF7FEFF 		bl	buffer_get_float32
 3035              	.LVL313:
 3036              		.loc 1 266 0
 3037 12b6 3146     		mov	r1, r6
 3038              		.loc 1 265 0
 3039 12b8 85ED0B0A 		fsts	s0, [r5, #44]
 3040              		.loc 1 266 0
 3041 12bc 2046     		mov	r0, r4
 3042 12be B0EE480A 		fcpys	s0, s16
 3043 12c2 FFF7FEFF 		bl	buffer_get_float32
 3044              	.LVL314:
 3045              		.loc 1 267 0
 3046 12c6 3146     		mov	r1, r6
 3047              		.loc 1 266 0
 3048 12c8 85ED0C0A 		fsts	s0, [r5, #48]
 3049              		.loc 1 267 0
 3050 12cc 2046     		mov	r0, r4
 3051 12ce B0EE480A 		fcpys	s0, s16
 3052 12d2 FFF7FEFF 		bl	buffer_get_float32
 3053              	.LVL315:
 3054              		.loc 1 268 0
 3055 12d6 029B     		ldr	r3, [sp, #8]
 3056              		.loc 1 267 0
 3057 12d8 85ED0D0A 		fsts	s0, [r5, #52]
 3058              		.loc 1 268 0
 3059 12dc E25C     		ldrb	r2, [r4, r3]	@ zero_extendqisi2
 3060 12de 0032     		adds	r2, r2, #0
 3061 12e0 03F10101 		add	r1, r3, #1
 3062 12e4 18BF     		it	ne
 3063 12e6 0122     		movne	r2, #1
 3064 12e8 85F83820 		strb	r2, [r5, #56]
 3065              		.loc 1 269 0
 3066 12ec 625C     		ldrb	r2, [r4, r1]	@ zero_extendqisi2
 3067 12ee 0032     		adds	r2, r2, #0
 3068 12f0 18BF     		it	ne
 3069 12f2 0122     		movne	r2, #1
 3070 12f4 0233     		adds	r3, r3, #2
 3071              		.loc 1 270 0
 3072 12f6 3146     		mov	r1, r6
 3073 12f8 B0EE480A 		fcpys	s0, s16
 3074 12fc 2046     		mov	r0, r4
 3075              		.loc 1 269 0
 3076 12fe 85F83920 		strb	r2, [r5, #57]
 3077 1302 0293     		str	r3, [sp, #8]
 3078              		.loc 1 270 0
ARM GAS  /tmp/ccy8OeyM.s 			page 55


 3079 1304 FFF7FEFF 		bl	buffer_get_float32
 3080              	.LVL316:
 3081              		.loc 1 271 0
 3082 1308 3146     		mov	r1, r6
 3083              		.loc 1 270 0
 3084 130a 85ED0F0A 		fsts	s0, [r5, #60]
 3085              		.loc 1 271 0
 3086 130e 2046     		mov	r0, r4
 3087 1310 B0EE480A 		fcpys	s0, s16
 3088 1314 FFF7FEFF 		bl	buffer_get_float32
 3089              	.LVL317:
 3090              		.loc 1 272 0
 3091 1318 3146     		mov	r1, r6
 3092              		.loc 1 271 0
 3093 131a 85ED100A 		fsts	s0, [r5, #64]
 3094              		.loc 1 272 0
 3095 131e 2046     		mov	r0, r4
 3096 1320 B0EE480A 		fcpys	s0, s16
 3097 1324 FFF7FEFF 		bl	buffer_get_float32
 3098              	.LVL318:
 3099              		.loc 1 273 0
 3100 1328 3146     		mov	r1, r6
 3101              		.loc 1 272 0
 3102 132a 85ED110A 		fsts	s0, [r5, #68]
 3103              		.loc 1 273 0
 3104 132e 2046     		mov	r0, r4
 3105 1330 B0EE480A 		fcpys	s0, s16
 3106 1334 FFF7FEFF 		bl	buffer_get_float32
 3107              	.LVL319:
 3108              		.loc 1 274 0
 3109 1338 3146     		mov	r1, r6
 3110              		.loc 1 273 0
 3111 133a 85ED120A 		fsts	s0, [r5, #72]
 3112              		.loc 1 274 0
 3113 133e 2046     		mov	r0, r4
 3114 1340 B0EE680A 		fcpys	s0, s17
 3115 1344 FFF7FEFF 		bl	buffer_get_float32
 3116              	.LVL320:
 3117              		.loc 1 275 0
 3118 1348 3146     		mov	r1, r6
 3119              		.loc 1 274 0
 3120 134a 85ED130A 		fsts	s0, [r5, #76]
 3121              		.loc 1 275 0
 3122 134e 2046     		mov	r0, r4
 3123 1350 B0EE680A 		fcpys	s0, s17
 3124 1354 FFF7FEFF 		bl	buffer_get_float32
 3125              	.LVL321:
 3126              		.loc 1 277 0
 3127 1358 D5F804E0 		ldr	lr, [r5, #4]	@ float
 3128              		.loc 1 279 0
 3129 135c EA68     		ldr	r2, [r5, #12]	@ float
 3130              		.loc 1 280 0
 3131 135e 2B69     		ldr	r3, [r5, #16]	@ float
 3132              		.loc 1 278 0
 3133 1360 AF68     		ldr	r7, [r5, #8]	@ float
 3134              		.loc 1 277 0
 3135 1362 C5F854E0 		str	lr, [r5, #84]	@ float
ARM GAS  /tmp/ccy8OeyM.s 			page 56


 3136              		.loc 1 282 0
 3137 1366 3146     		mov	r1, r6
 3138 1368 2046     		mov	r0, r4
 3139              		.loc 1 275 0
 3140 136a 85ED140A 		fsts	s0, [r5, #80]
 3141              		.loc 1 279 0
 3142 136e EA65     		str	r2, [r5, #92]	@ float
 3143              		.loc 1 280 0
 3144 1370 2B66     		str	r3, [r5, #96]	@ float
 3145              		.loc 1 278 0
 3146 1372 AF65     		str	r7, [r5, #88]	@ float
 3147              		.loc 1 282 0
 3148 1374 FFF7FEFF 		bl	buffer_get_int32
 3149              	.LVL322:
 3150 1378 07EE900A 		fmsr	s15, r0	@ int
 3151 137c F8EEE77A 		fsitos	s15, s15
 3152              		.loc 1 283 0
 3153 1380 3146     		mov	r1, r6
 3154              		.loc 1 282 0
 3155 1382 C7EE887A 		fdivs	s15, s15, s16
 3156              		.loc 1 283 0
 3157 1386 2046     		mov	r0, r4
 3158              		.loc 1 282 0
 3159 1388 C5ED197A 		fsts	s15, [r5, #100]
 3160              		.loc 1 283 0
 3161 138c FFF7FEFF 		bl	buffer_get_int32
 3162              	.LVL323:
 3163 1390 07EE900A 		fmsr	s15, r0	@ int
 3164 1394 F8EEE77A 		fsitos	s15, s15
 3165              		.loc 1 284 0
 3166 1398 3146     		mov	r1, r6
 3167              		.loc 1 283 0
 3168 139a C7EE887A 		fdivs	s15, s15, s16
 3169              		.loc 1 284 0
 3170 139e 2046     		mov	r0, r4
 3171              		.loc 1 283 0
 3172 13a0 C5ED1A7A 		fsts	s15, [r5, #104]
 3173              		.loc 1 284 0
 3174 13a4 FFF7FEFF 		bl	buffer_get_int32
 3175              	.LVL324:
 3176 13a8 07EE900A 		fmsr	s15, r0	@ int
 3177 13ac F8EEE77A 		fsitos	s15, s15
 3178              		.loc 1 285 0
 3179 13b0 3146     		mov	r1, r6
 3180              		.loc 1 284 0
 3181 13b2 C7EE887A 		fdivs	s15, s15, s16
 3182              		.loc 1 285 0
 3183 13b6 2046     		mov	r0, r4
 3184              		.loc 1 284 0
 3185 13b8 C5ED1B7A 		fsts	s15, [r5, #108]
 3186              		.loc 1 285 0
 3187 13bc FFF7FEFF 		bl	buffer_get_int32
 3188              	.LVL325:
 3189 13c0 07EE900A 		fmsr	s15, r0	@ int
 3190 13c4 F8EEE77A 		fsitos	s15, s15
 3191              		.loc 1 286 0
 3192 13c8 3146     		mov	r1, r6
ARM GAS  /tmp/ccy8OeyM.s 			page 57


 3193              		.loc 1 285 0
 3194 13ca C7EE887A 		fdivs	s15, s15, s16
 3195              		.loc 1 286 0
 3196 13ce 2046     		mov	r0, r4
 3197              		.loc 1 285 0
 3198 13d0 C5ED1C7A 		fsts	s15, [r5, #112]
 3199              		.loc 1 286 0
 3200 13d4 FFF7FEFF 		bl	buffer_get_int32
 3201              	.LVL326:
 3202 13d8 07EE900A 		fmsr	s15, r0	@ int
 3203 13dc F8EEE77A 		fsitos	s15, s15
 3204              		.loc 1 287 0
 3205 13e0 3146     		mov	r1, r6
 3206              		.loc 1 286 0
 3207 13e2 C7EE887A 		fdivs	s15, s15, s16
 3208              		.loc 1 287 0
 3209 13e6 2046     		mov	r0, r4
 3210              		.loc 1 286 0
 3211 13e8 C5ED1D7A 		fsts	s15, [r5, #116]
 3212              		.loc 1 287 0
 3213 13ec FFF7FEFF 		bl	buffer_get_int32
 3214              	.LVL327:
 3215 13f0 07EE900A 		fmsr	s15, r0	@ int
 3216 13f4 F8EEE77A 		fsitos	s15, s15
 3217              		.loc 1 288 0
 3218 13f8 3146     		mov	r1, r6
 3219              		.loc 1 287 0
 3220 13fa C7EE887A 		fdivs	s15, s15, s16
 3221              		.loc 1 288 0
 3222 13fe 2046     		mov	r0, r4
 3223              		.loc 1 287 0
 3224 1400 C5ED1E7A 		fsts	s15, [r5, #120]
 3225              		.loc 1 288 0
 3226 1404 FFF7FEFF 		bl	buffer_get_int32
 3227              	.LVL328:
 3228 1408 07EE900A 		fmsr	s15, r0	@ int
 3229 140c F8EEE77A 		fsitos	s15, s15
 3230              		.loc 1 290 0
 3231 1410 029A     		ldr	r2, [sp, #8]
 3232              		.loc 1 288 0
 3233 1412 C7EE887A 		fdivs	s15, s15, s16
 3234              		.loc 1 290 0
 3235 1416 A118     		adds	r1, r4, r2
 3236              		.loc 1 291 0
 3237 1418 0832     		adds	r2, r2, #8
 3238 141a 0292     		str	r2, [sp, #8]
 3239              		.loc 1 290 0
 3240 141c 05F18003 		add	r3, r5, #128
 3241              		.loc 1 288 0
 3242 1420 C5ED1F7A 		fsts	s15, [r5, #124]
 3243              		.loc 1 290 0
 3244 1424 0868     		ldr	r0, [r1]	@ unaligned
 3245 1426 4968     		ldr	r1, [r1, #4]	@ unaligned
 3246 1428 03C3     		stmia	r3!, {r0, r1}
 3247              		.loc 1 292 0
 3248 142a 3146     		mov	r1, r6
 3249 142c 2046     		mov	r0, r4
ARM GAS  /tmp/ccy8OeyM.s 			page 58


 3250 142e FFF7FEFF 		bl	buffer_get_int32
 3251              	.LVL329:
 3252 1432 07EE900A 		fmsr	s15, r0	@ int
 3253 1436 F8EEE77A 		fsitos	s15, s15
 3254              		.loc 1 294 0
 3255 143a 3146     		mov	r1, r6
 3256              		.loc 1 292 0
 3257 143c C7EE887A 		fdivs	s15, s15, s16
 3258              		.loc 1 294 0
 3259 1440 2046     		mov	r0, r4
 3260 1442 B0EE490A 		fcpys	s0, s18
 3261              		.loc 1 292 0
 3262 1446 C5ED227A 		fsts	s15, [r5, #136]
 3263              		.loc 1 294 0
 3264 144a FFF7FEFF 		bl	buffer_get_float32
 3265              	.LVL330:
 3266              		.loc 1 295 0
 3267 144e 3146     		mov	r1, r6
 3268              		.loc 1 294 0
 3269 1450 85ED230A 		fsts	s0, [r5, #140]
 3270              		.loc 1 295 0
 3271 1454 2046     		mov	r0, r4
 3272 1456 B0EE490A 		fcpys	s0, s18
 3273 145a FFF7FEFF 		bl	buffer_get_float32
 3274              	.LVL331:
 3275              		.loc 1 296 0
 3276 145e 3146     		mov	r1, r6
 3277              		.loc 1 295 0
 3278 1460 85ED240A 		fsts	s0, [r5, #144]
 3279              		.loc 1 296 0
 3280 1464 2046     		mov	r0, r4
 3281 1466 B0EE480A 		fcpys	s0, s16
 3282 146a FFF7FEFF 		bl	buffer_get_float32
 3283              	.LVL332:
 3284              		.loc 1 297 0
 3285 146e 3146     		mov	r1, r6
 3286              		.loc 1 296 0
 3287 1470 85ED250A 		fsts	s0, [r5, #148]
 3288              		.loc 1 297 0
 3289 1474 2046     		mov	r0, r4
 3290 1476 B0EE680A 		fcpys	s0, s17
 3291 147a FFF7FEFF 		bl	buffer_get_float32
 3292              	.LVL333:
 3293              		.loc 1 298 0
 3294 147e 029B     		ldr	r3, [sp, #8]
 3295              		.loc 1 297 0
 3296 1480 85ED260A 		fsts	s0, [r5, #152]
 3297              		.loc 1 298 0
 3298 1484 E25C     		ldrb	r2, [r4, r3]	@ zero_extendqisi2
 3299 1486 0032     		adds	r2, r2, #0
 3300 1488 18BF     		it	ne
 3301 148a 0122     		movne	r2, #1
 3302 148c 0133     		adds	r3, r3, #1
 3303              		.loc 1 299 0
 3304 148e 3146     		mov	r1, r6
 3305 1490 B0EE480A 		fcpys	s0, s16
 3306 1494 2046     		mov	r0, r4
ARM GAS  /tmp/ccy8OeyM.s 			page 59


 3307              		.loc 1 298 0
 3308 1496 85F8A020 		strb	r2, [r5, #160]
 3309 149a 0293     		str	r3, [sp, #8]
 3310              		.loc 1 299 0
 3311 149c FFF7FEFF 		bl	buffer_get_float32
 3312              	.LVL334:
 3313              		.loc 1 300 0
 3314 14a0 3146     		mov	r1, r6
 3315              		.loc 1 299 0
 3316 14a2 85ED270A 		fsts	s0, [r5, #156]
 3317              		.loc 1 300 0
 3318 14a6 2046     		mov	r0, r4
 3319 14a8 B0EE480A 		fcpys	s0, s16
 3320 14ac FFF7FEFF 		bl	buffer_get_float32
 3321              	.LVL335:
 3322              		.loc 1 301 0
 3323 14b0 029B     		ldr	r3, [sp, #8]
 3324              		.loc 1 300 0
 3325 14b2 85ED290A 		fsts	s0, [r5, #164]
 3326              		.loc 1 301 0
 3327 14b6 E25C     		ldrb	r2, [r4, r3]	@ zero_extendqisi2
 3328 14b8 85F8DC20 		strb	r2, [r5, #220]
 3329 14bc 0133     		adds	r3, r3, #1
 3330              		.loc 1 302 0
 3331 14be 3146     		mov	r1, r6
 3332 14c0 B0EE480A 		fcpys	s0, s16
 3333 14c4 2046     		mov	r0, r4
 3334              		.loc 1 301 0
 3335 14c6 0293     		str	r3, [sp, #8]
 3336              		.loc 1 302 0
 3337 14c8 FFF7FEFF 		bl	buffer_get_float32
 3338              	.LVL336:
 3339              		.loc 1 303 0
 3340 14cc 3146     		mov	r1, r6
 3341              		.loc 1 302 0
 3342 14ce 85ED2E0A 		fsts	s0, [r5, #184]
 3343              		.loc 1 303 0
 3344 14d2 2046     		mov	r0, r4
 3345 14d4 B0EE480A 		fcpys	s0, s16
 3346 14d8 FFF7FEFF 		bl	buffer_get_float32
 3347              	.LVL337:
 3348              		.loc 1 304 0
 3349 14dc 3146     		mov	r1, r6
 3350              		.loc 1 303 0
 3351 14de 85ED2F0A 		fsts	s0, [r5, #188]
 3352              		.loc 1 304 0
 3353 14e2 2046     		mov	r0, r4
 3354 14e4 9FED2E0A 		flds	s0, .L159+16
 3355 14e8 FFF7FEFF 		bl	buffer_get_float32
 3356              	.LVL338:
 3357              		.loc 1 305 0
 3358 14ec 3146     		mov	r1, r6
 3359              		.loc 1 304 0
 3360 14ee 85ED2A0A 		fsts	s0, [r5, #168]
 3361              		.loc 1 305 0
 3362 14f2 2046     		mov	r0, r4
 3363 14f4 B0EE490A 		fcpys	s0, s18
ARM GAS  /tmp/ccy8OeyM.s 			page 60


 3364 14f8 FFF7FEFF 		bl	buffer_get_float32
 3365              	.LVL339:
 3366              		.loc 1 306 0
 3367 14fc 3146     		mov	r1, r6
 3368              		.loc 1 305 0
 3369 14fe 85ED2B0A 		fsts	s0, [r5, #172]
 3370              		.loc 1 306 0
 3371 1502 2046     		mov	r0, r4
 3372 1504 B0EE490A 		fcpys	s0, s18
 3373 1508 FFF7FEFF 		bl	buffer_get_float32
 3374              	.LVL340:
 3375              		.loc 1 307 0
 3376 150c 3146     		mov	r1, r6
 3377              		.loc 1 306 0
 3378 150e 85ED2C0A 		fsts	s0, [r5, #176]
 3379              		.loc 1 307 0
 3380 1512 2046     		mov	r0, r4
 3381 1514 B7EE000A 		fconsts	s0, #112
 3382 1518 FFF7FEFF 		bl	buffer_get_float32
 3383              	.LVL341:
 3384              		.loc 1 308 0
 3385 151c 3146     		mov	r1, r6
 3386              		.loc 1 307 0
 3387 151e 85ED2D0A 		fsts	s0, [r5, #180]
 3388              		.loc 1 308 0
 3389 1522 2046     		mov	r0, r4
 3390 1524 B0EE480A 		fcpys	s0, s16
 3391 1528 FFF7FEFF 		bl	buffer_get_float32
 3392              	.LVL342:
 3393              		.loc 1 309 0
 3394 152c 3146     		mov	r1, r6
 3395              		.loc 1 308 0
 3396 152e 85ED300A 		fsts	s0, [r5, #192]
 3397              		.loc 1 309 0
 3398 1532 2046     		mov	r0, r4
 3399 1534 B0EE480A 		fcpys	s0, s16
 3400 1538 FFF7FEFF 		bl	buffer_get_float32
 3401              	.LVL343:
 3402              		.loc 1 310 0
 3403 153c 3146     		mov	r1, r6
 3404              		.loc 1 309 0
 3405 153e 85ED310A 		fsts	s0, [r5, #196]
 3406              		.loc 1 310 0
 3407 1542 2046     		mov	r0, r4
 3408 1544 B0EE480A 		fcpys	s0, s16
 3409 1548 FFF7FEFF 		bl	buffer_get_float32
 3410              	.LVL344:
 3411              		.loc 1 311 0
 3412 154c 3146     		mov	r1, r6
 3413              		.loc 1 310 0
 3414 154e 85ED320A 		fsts	s0, [r5, #200]
 3415              		.loc 1 311 0
 3416 1552 2046     		mov	r0, r4
 3417 1554 B0EE480A 		fcpys	s0, s16
 3418 1558 FFF7FEFF 		bl	buffer_get_float32
 3419              	.LVL345:
 3420              		.loc 1 312 0
ARM GAS  /tmp/ccy8OeyM.s 			page 61


 3421 155c 3146     		mov	r1, r6
 3422              		.loc 1 311 0
 3423 155e 85ED330A 		fsts	s0, [r5, #204]
 3424              		.loc 1 312 0
 3425 1562 2046     		mov	r0, r4
 3426 1564 B0EE480A 		fcpys	s0, s16
 3427 1568 FFF7FEFF 		bl	buffer_get_float32
 3428              	.LVL346:
 3429              		.loc 1 313 0
 3430 156c 3146     		mov	r1, r6
 3431              		.loc 1 312 0
 3432 156e 85ED340A 		fsts	s0, [r5, #208]
 3433              		.loc 1 313 0
 3434 1572 2046     		mov	r0, r4
 3435 1574 B0EE480A 		fcpys	s0, s16
 3436 1578 FFF7FEFF 		bl	buffer_get_float32
 3437              	.LVL347:
 3438              		.loc 1 314 0
 3439 157c 3146     		mov	r1, r6
 3440              		.loc 1 313 0
 3441 157e 85ED350A 		fsts	s0, [r5, #212]
 3442              		.loc 1 314 0
 3443 1582 2046     		mov	r0, r4
 3444 1584 B0EE480A 		fcpys	s0, s16
 3445 1588 FFF7FEFF 		bl	buffer_get_float32
 3446              	.LVL348:
 3447              		.loc 1 315 0
 3448 158c 029B     		ldr	r3, [sp, #8]
 3449 158e 09E0     		b	.L160
 3450              	.L161:
 3451              		.align	2
 3452              	.L159:
 3453 1590 00000000 		.word	.LANCHOR11
 3454 1594 00007A44 		.word	1148846080
 3455 1598 00247449 		.word	1232348160
 3456 159c 0050C347 		.word	1203982336
 3457 15a0 20BCBE4C 		.word	1287568416
 3458              	.L160:
 3459              		.loc 1 314 0
 3460 15a4 85ED360A 		fsts	s0, [r5, #216]
 3461              		.loc 1 315 0
 3462 15a8 E218     		adds	r2, r4, r3
 3463              		.loc 1 317 0
 3464 15aa 3146     		mov	r1, r6
 3465              		.loc 1 315 0
 3466 15ac 1768     		ldr	r7, [r2]	@ unaligned
 3467 15ae 5268     		ldr	r2, [r2, #4]	@ unaligned
 3468 15b0 C5F8E120 		str	r2, [r5, #225]	@ unaligned
 3469              		.loc 1 316 0
 3470 15b4 0833     		adds	r3, r3, #8
 3471              		.loc 1 317 0
 3472 15b6 2046     		mov	r0, r4
 3473              		.loc 1 315 0
 3474 15b8 C5F8DD70 		str	r7, [r5, #221]	@ unaligned
 3475              		.loc 1 316 0
 3476 15bc 0293     		str	r3, [sp, #8]
 3477              		.loc 1 317 0
ARM GAS  /tmp/ccy8OeyM.s 			page 62


 3478 15be FFF7FEFF 		bl	buffer_get_int32
 3479              	.LVL349:
 3480 15c2 07EE900A 		fmsr	s15, r0	@ int
 3481 15c6 F8EEE77A 		fsitos	s15, s15
 3482              		.loc 1 319 0
 3483 15ca 3146     		mov	r1, r6
 3484              		.loc 1 317 0
 3485 15cc C7EE887A 		fdivs	s15, s15, s16
 3486              		.loc 1 319 0
 3487 15d0 2046     		mov	r0, r4
 3488              		.loc 1 317 0
 3489 15d2 C5ED3A7A 		fsts	s15, [r5, #232]
 3490              		.loc 1 319 0
 3491 15d6 FFF7FEFF 		bl	buffer_get_int32
 3492              	.LVL350:
 3493 15da 07EE900A 		fmsr	s15, r0	@ int
 3494 15de F8EEE77A 		fsitos	s15, s15
 3495              		.loc 1 320 0
 3496 15e2 3146     		mov	r1, r6
 3497              		.loc 1 319 0
 3498 15e4 C7EEA87A 		fdivs	s15, s15, s17
 3499              		.loc 1 320 0
 3500 15e8 2046     		mov	r0, r4
 3501              		.loc 1 319 0
 3502 15ea C5ED3B7A 		fsts	s15, [r5, #236]
 3503              		.loc 1 320 0
 3504 15ee FFF7FEFF 		bl	buffer_get_int32
 3505              	.LVL351:
 3506 15f2 07EE900A 		fmsr	s15, r0	@ int
 3507 15f6 F8EEE77A 		fsitos	s15, s15
 3508              		.loc 1 321 0
 3509 15fa 3146     		mov	r1, r6
 3510              		.loc 1 320 0
 3511 15fc C7EEA87A 		fdivs	s15, s15, s17
 3512              		.loc 1 321 0
 3513 1600 2046     		mov	r0, r4
 3514              		.loc 1 320 0
 3515 1602 C5ED3C7A 		fsts	s15, [r5, #240]
 3516              		.loc 1 321 0
 3517 1606 FFF7FEFF 		bl	buffer_get_int32
 3518              	.LVL352:
 3519 160a 07EE900A 		fmsr	s15, r0	@ int
 3520 160e F8EEE77A 		fsitos	s15, s15
 3521              		.loc 1 322 0
 3522 1612 3146     		mov	r1, r6
 3523              		.loc 1 321 0
 3524 1614 C7EEA87A 		fdivs	s15, s15, s17
 3525              		.loc 1 322 0
 3526 1618 2046     		mov	r0, r4
 3527              		.loc 1 321 0
 3528 161a C5ED3D7A 		fsts	s15, [r5, #244]
 3529              		.loc 1 322 0
 3530 161e FFF7FEFF 		bl	buffer_get_int32
 3531              	.LVL353:
 3532 1622 07EE900A 		fmsr	s15, r0	@ int
 3533 1626 F8EEE77A 		fsitos	s15, s15
 3534              		.loc 1 324 0
ARM GAS  /tmp/ccy8OeyM.s 			page 63


 3535 162a 3146     		mov	r1, r6
 3536              		.loc 1 322 0
 3537 162c C7EE887A 		fdivs	s15, s15, s16
 3538              		.loc 1 324 0
 3539 1630 2046     		mov	r0, r4
 3540              		.loc 1 322 0
 3541 1632 C5ED3E7A 		fsts	s15, [r5, #248]
 3542              		.loc 1 324 0
 3543 1636 FFF7FEFF 		bl	buffer_get_int32
 3544              	.LVL354:
 3545 163a 07EE900A 		fmsr	s15, r0	@ int
 3546 163e F8EEE77A 		fsitos	s15, s15
 3547              		.loc 1 325 0
 3548 1642 3146     		mov	r1, r6
 3549              		.loc 1 324 0
 3550 1644 C7EEA87A 		fdivs	s15, s15, s17
 3551              		.loc 1 325 0
 3552 1648 2046     		mov	r0, r4
 3553              		.loc 1 324 0
 3554 164a C5ED3F7A 		fsts	s15, [r5, #252]
 3555              		.loc 1 325 0
 3556 164e FFF7FEFF 		bl	buffer_get_int32
 3557              	.LVL355:
 3558 1652 07EE900A 		fmsr	s15, r0	@ int
 3559 1656 F8EEE77A 		fsitos	s15, s15
 3560              		.loc 1 326 0
 3561 165a 3146     		mov	r1, r6
 3562              		.loc 1 325 0
 3563 165c C7EEA87A 		fdivs	s15, s15, s17
 3564              		.loc 1 326 0
 3565 1660 2046     		mov	r0, r4
 3566              		.loc 1 325 0
 3567 1662 C5ED407A 		fsts	s15, [r5, #256]
 3568              		.loc 1 326 0
 3569 1666 FFF7FEFF 		bl	buffer_get_int32
 3570              	.LVL356:
 3571 166a 07EE900A 		fmsr	s15, r0	@ int
 3572 166e F8EEE77A 		fsitos	s15, s15
 3573              		.loc 1 327 0
 3574 1672 3146     		mov	r1, r6
 3575              		.loc 1 326 0
 3576 1674 C7EEA87A 		fdivs	s15, s15, s17
 3577              		.loc 1 327 0
 3578 1678 2046     		mov	r0, r4
 3579              		.loc 1 326 0
 3580 167a C5ED417A 		fsts	s15, [r5, #260]
 3581              		.loc 1 327 0
 3582 167e FFF7FEFF 		bl	buffer_get_int32
 3583              	.LVL357:
 3584 1682 07EE900A 		fmsr	s15, r0	@ int
 3585 1686 F8EEE77A 		fsitos	s15, s15
 3586              		.loc 1 329 0
 3587 168a 3146     		mov	r1, r6
 3588              		.loc 1 327 0
 3589 168c 87EE899A 		fdivs	s18, s15, s18
 3590              		.loc 1 329 0
 3591 1690 2046     		mov	r0, r4
ARM GAS  /tmp/ccy8OeyM.s 			page 64


 3592              		.loc 1 327 0
 3593 1692 85ED429A 		fsts	s18, [r5, #264]
 3594              		.loc 1 329 0
 3595 1696 FFF7FEFF 		bl	buffer_get_int32
 3596              	.LVL358:
 3597 169a 07EE900A 		fmsr	s15, r0	@ int
 3598 169e F8EEE77A 		fsitos	s15, s15
 3599              		.loc 1 330 0
 3600 16a2 3146     		mov	r1, r6
 3601              		.loc 1 329 0
 3602 16a4 C7EEA87A 		fdivs	s15, s15, s17
 3603              		.loc 1 330 0
 3604 16a8 2046     		mov	r0, r4
 3605              		.loc 1 329 0
 3606 16aa C5ED437A 		fsts	s15, [r5, #268]
 3607              		.loc 1 330 0
 3608 16ae FFF7FEFF 		bl	buffer_get_int32
 3609              	.LVL359:
 3610 16b2 07EE900A 		fmsr	s15, r0	@ int
 3611 16b6 F8EEE77A 		fsitos	s15, s15
 3612              		.loc 1 331 0
 3613 16ba 3146     		mov	r1, r6
 3614              		.loc 1 330 0
 3615 16bc 87EE888A 		fdivs	s16, s15, s16
 3616              		.loc 1 331 0
 3617 16c0 2046     		mov	r0, r4
 3618              		.loc 1 330 0
 3619 16c2 85ED448A 		fsts	s16, [r5, #272]
 3620              		.loc 1 331 0
 3621 16c6 FFF7FEFF 		bl	buffer_get_int32
 3622              	.LVL360:
 3623 16ca 07EE900A 		fmsr	s15, r0	@ int
 3624 16ce F8EEE77A 		fsitos	s15, s15
 3625              		.loc 1 332 0
 3626 16d2 3146     		mov	r1, r6
 3627              		.loc 1 331 0
 3628 16d4 C7EEA87A 		fdivs	s15, s15, s17
 3629              		.loc 1 332 0
 3630 16d8 2046     		mov	r0, r4
 3631 16da B0EE680A 		fcpys	s0, s17
 3632              		.loc 1 331 0
 3633 16de C5ED457A 		fsts	s15, [r5, #276]
 3634              		.loc 1 332 0
 3635 16e2 FFF7FEFF 		bl	buffer_get_float32
 3636              	.LVL361:
 3637              		.loc 1 334 0
 3638 16e6 3146     		mov	r1, r6
 3639 16e8 2046     		mov	r0, r4
 3640              		.loc 1 332 0
 3641 16ea 85ED460A 		fsts	s0, [r5, #280]
 3642              		.loc 1 334 0
 3643 16ee FFF7FEFF 		bl	buffer_get_int32
 3644              	.LVL362:
 3645              		.loc 1 335 0
 3646 16f2 3146     		mov	r1, r6
 3647              		.loc 1 334 0
 3648 16f4 C5F81C01 		str	r0, [r5, #284]
ARM GAS  /tmp/ccy8OeyM.s 			page 65


 3649              		.loc 1 335 0
 3650 16f8 B0EE680A 		fcpys	s0, s17
 3651 16fc 2046     		mov	r0, r4
 3652 16fe FFF7FEFF 		bl	buffer_get_float32
 3653              	.LVL363:
 3654              		.loc 1 336 0
 3655 1702 3146     		mov	r1, r6
 3656              		.loc 1 335 0
 3657 1704 85ED480A 		fsts	s0, [r5, #288]
 3658              		.loc 1 336 0
 3659 1708 2046     		mov	r0, r4
 3660 170a B0EE680A 		fcpys	s0, s17
 3661 170e FFF7FEFF 		bl	buffer_get_float32
 3662              	.LVL364:
 3663              		.loc 1 337 0
 3664 1712 3146     		mov	r1, r6
 3665              		.loc 1 336 0
 3666 1714 85ED490A 		fsts	s0, [r5, #292]
 3667              		.loc 1 337 0
 3668 1718 2046     		mov	r0, r4
 3669 171a B0EE680A 		fcpys	s0, s17
 3670 171e FFF7FEFF 		bl	buffer_get_float32
 3671              	.LVL365:
 3672              		.loc 1 338 0
 3673 1722 3146     		mov	r1, r6
 3674 1724 2046     		mov	r0, r4
 3675              		.loc 1 337 0
 3676 1726 85ED4A0A 		fsts	s0, [r5, #296]
 3677              		.loc 1 338 0
 3678 172a FFF7FEFF 		bl	buffer_get_uint32
 3679              	.LVL366:
 3680              		.loc 1 339 0
 3681 172e 029B     		ldr	r3, [sp, #8]
 3682              		.loc 1 338 0
 3683 1730 C5F82C01 		str	r0, [r5, #300]
 3684              		.loc 1 339 0
 3685 1734 E25C     		ldrb	r2, [r4, r3]	@ zero_extendqisi2
 3686 1736 85F83021 		strb	r2, [r5, #304]
 3687 173a 0133     		adds	r3, r3, #1
 3688              		.loc 1 341 0
 3689 173c 2846     		mov	r0, r5
 3690              		.loc 1 339 0
 3691 173e 0293     		str	r3, [sp, #8]
 3692              		.loc 1 341 0
 3693 1740 FFF7FEFF 		bl	conf_general_store_mc_configuration
 3694              	.LVL367:
 3695              		.loc 1 342 0
 3696 1744 2846     		mov	r0, r5
 3697 1746 FFF7FEFF 		bl	mc_interface_set_configuration
 3698              	.LVL368:
 3699              	.LBB141:
 3700              	.LBB142:
 3701              		.loc 1 94 0
 3702 174a 214B     		ldr	r3, .L162
 3703              	.LBE142:
 3704              	.LBE141:
 3705              		.loc 1 345 0
ARM GAS  /tmp/ccy8OeyM.s 			page 66


 3706 174c 2148     		ldr	r0, .L162+4
 3707              	.LBB145:
 3708              	.LBB143:
 3709              		.loc 1 94 0
 3710 174e 1B68     		ldr	r3, [r3]
 3711              	.LBE143:
 3712              	.LBE145:
 3713              		.loc 1 345 0
 3714 1750 0C22     		movs	r2, #12
 3715 1752 0121     		movs	r1, #1
 3716 1754 0270     		strb	r2, [r0]
 3717              	.LVL369:
 3718 1756 0291     		str	r1, [sp, #8]
 3719              	.LBB146:
 3720              	.LBB144:
 3721              		.loc 1 94 0
 3722 1758 002B     		cmp	r3, #0
 3723 175a 7FF45BA8 		bne	.L131
 3724 175e FEF716BE 		b	.L24
 3725              	.LVL370:
 3726              	.L45:
 3727              	.LBE144:
 3728              	.LBE146:
 3729              		.loc 1 610 0
 3730 1762 02A9     		add	r1, sp, #8
 3731 1764 2046     		mov	r0, r4
 3732 1766 9FED200A 		flds	s0, .L162+24
 3733 176a FFF7FEFF 		bl	buffer_get_float32
 3734              	.LVL371:
 3735 176e 1A4B     		ldr	r3, .L162+8
 3736              		.loc 1 611 0
 3737 1770 02A9     		add	r1, sp, #8
 3738              		.loc 1 610 0
 3739 1772 83ED000A 		fsts	s0, [r3]
 3740              		.loc 1 611 0
 3741 1776 2046     		mov	r0, r4
 3742 1778 9FED1B0A 		flds	s0, .L162+24
 3743 177c FFF7FEFF 		bl	buffer_get_float32
 3744              	.LVL372:
 3745 1780 164B     		ldr	r3, .L162+12
 3746              		.loc 1 612 0
 3747 1782 02A9     		add	r1, sp, #8
 3748 1784 2046     		mov	r0, r4
 3749              		.loc 1 611 0
 3750 1786 83ED000A 		fsts	s0, [r3]
 3751              		.loc 1 612 0
 3752 178a 9FED170A 		flds	s0, .L162+24
 3753 178e FFF7FEFF 		bl	buffer_get_float32
 3754              	.LVL373:
 3755              		.loc 1 614 0
 3756 1792 134A     		ldr	r2, .L162+16
 3757              		.loc 1 612 0
 3758 1794 134B     		ldr	r3, .L162+20
 3759              		.loc 1 614 0
 3760 1796 1068     		ldr	r0, [r2]
 3761              		.loc 1 612 0
 3762 1798 83ED000A 		fsts	s0, [r3]
ARM GAS  /tmp/ccy8OeyM.s 			page 67


 3763              		.loc 1 614 0
 3764 179c 0121     		movs	r1, #1
 3765 179e FFF7FEFF 		bl	chEvtSignal
 3766              	.LVL374:
 3767              		.loc 1 615 0
 3768 17a2 FEF7F4BD 		b	.L24
 3769              	.L43:
 3770              		.loc 1 597 0
 3771 17a6 2CA9     		add	r1, sp, #176
 3772 17a8 4578     		ldrb	r5, [r0, #1]	@ zero_extendqisi2
 3773              	.LVL375:
 3774 17aa 0123     		movs	r3, #1
 3775 17ac 0035     		adds	r5, r5, #0
 3776 17ae 41F8A83D 		str	r3, [r1, #-168]!
 3777              		.loc 1 598 0
 3778 17b2 2046     		mov	r0, r4
 3779              		.loc 1 597 0
 3780 17b4 18BF     		it	ne
 3781 17b6 0125     		movne	r5, #1
 3782              	.LVL376:
 3783              		.loc 1 598 0
 3784 17b8 FFF7FEFF 		bl	buffer_get_uint16
 3785              	.LVL377:
 3786              		.loc 1 599 0
 3787 17bc 029B     		ldr	r3, [sp, #8]
 3788              		.loc 1 598 0
 3789 17be 0146     		mov	r1, r0
 3790              	.LVL378:
 3791              		.loc 1 600 0
 3792 17c0 E25C     		ldrb	r2, [r4, r3]	@ zero_extendqisi2
 3793 17c2 2846     		mov	r0, r5
 3794              		.loc 1 599 0
 3795 17c4 0133     		adds	r3, r3, #1
 3796 17c6 0293     		str	r3, [sp, #8]
 3797              	.LVL379:
 3798              		.loc 1 600 0
 3799 17c8 FFF7FEFF 		bl	mc_interface_sample_print_data
 3800              	.LVL380:
 3801              		.loc 1 601 0
 3802 17cc FEF7DFBD 		b	.L24
 3803              	.L163:
 3804              		.align	2
 3805              	.L162:
 3806 17d0 00000000 		.word	.LANCHOR9
 3807 17d4 00000000 		.word	.LANCHOR8
 3808 17d8 00000000 		.word	.LANCHOR1
 3809 17dc 00000000 		.word	.LANCHOR2
 3810 17e0 00000000 		.word	.LANCHOR0
 3811 17e4 00000000 		.word	.LANCHOR3
 3812 17e8 00007A44 		.word	1148846080
 3813              	.LVL381:
 3814              	.L41:
 3815              		.loc 1 450 0
 3816 17ec FFF7FEFF 		bl	app_get_configuration
 3817              	.LVL382:
 3818 17f0 A022     		movs	r2, #160
 3819 17f2 0146     		mov	r1, r0
ARM GAS  /tmp/ccy8OeyM.s 			page 68


 3820 17f4 04A8     		add	r0, sp, #16
 3821 17f6 FFF7FEFF 		bl	memcpy
 3822              	.LVL383:
 3823              		.loc 1 453 0
 3824 17fa 0125     		movs	r5, #1
 3825              	.LVL384:
 3826 17fc 7B78     		ldrb	r3, [r7, #1]	@ zero_extendqisi2
 3827 17fe 8DF81030 		strb	r3, [sp, #16]
 3828              		.loc 1 454 0
 3829 1802 02A9     		add	r1, sp, #8
 3830 1804 2046     		mov	r0, r4
 3831              		.loc 1 453 0
 3832 1806 0295     		str	r5, [sp, #8]
 3833              		.loc 1 454 0
 3834 1808 FFF7FEFF 		bl	buffer_get_uint32
 3835              	.LVL385:
 3836              		.loc 1 455 0
 3837 180c 02A9     		add	r1, sp, #8
 3838              		.loc 1 454 0
 3839 180e 0590     		str	r0, [sp, #20]
 3840              		.loc 1 455 0
 3841 1810 2046     		mov	r0, r4
 3842 1812 FFF7FEFF 		bl	buffer_get_int32
 3843              	.LVL386:
 3844 1816 07EE900A 		fmsr	s15, r0	@ int
 3845 181a 1FED0D8A 		flds	s16, .L162+24
 3846              		.loc 1 456 0
 3847 181e 029B     		ldr	r3, [sp, #8]
 3848              		.loc 1 455 0
 3849 1820 F8EEE77A 		fsitos	s15, s15
 3850              		.loc 1 456 0
 3851 1824 E25C     		ldrb	r2, [r4, r3]	@ zero_extendqisi2
 3852              		.loc 1 455 0
 3853 1826 C7EE887A 		fdivs	s15, s15, s16
 3854              		.loc 1 456 0
 3855 182a 0032     		adds	r2, r2, #0
 3856 182c 18BF     		it	ne
 3857 182e 0122     		movne	r2, #1
 3858 1830 2B44     		add	r3, r3, r5
 3859              		.loc 1 457 0
 3860 1832 02A9     		add	r1, sp, #8
 3861 1834 2046     		mov	r0, r4
 3862              		.loc 1 456 0
 3863 1836 8DF81C20 		strb	r2, [sp, #28]
 3864 183a 0293     		str	r3, [sp, #8]
 3865              		.loc 1 455 0
 3866 183c CDED067A 		fsts	s15, [sp, #24]
 3867              		.loc 1 457 0
 3868 1840 FFF7FEFF 		bl	buffer_get_uint16
 3869              	.LVL387:
 3870              		.loc 1 459 0
 3871 1844 029B     		ldr	r3, [sp, #8]
 3872              		.loc 1 457 0
 3873 1846 0890     		str	r0, [sp, #32]
 3874              		.loc 1 459 0
 3875 1848 5919     		adds	r1, r3, r5
 3876 184a E25C     		ldrb	r2, [r4, r3]	@ zero_extendqisi2
ARM GAS  /tmp/ccy8OeyM.s 			page 69


 3877              		.loc 1 461 0
 3878 184c 615C     		ldrb	r1, [r4, r1]	@ zero_extendqisi2
 3879 184e 8DF82810 		strb	r1, [sp, #40]
 3880 1852 0233     		adds	r3, r3, #2
 3881              		.loc 1 462 0
 3882 1854 02A9     		add	r1, sp, #8
 3883 1856 2046     		mov	r0, r4
 3884              		.loc 1 459 0
 3885 1858 8DF82420 		strb	r2, [sp, #36]
 3886              		.loc 1 461 0
 3887 185c 0293     		str	r3, [sp, #8]
 3888              		.loc 1 462 0
 3889 185e FFF7FEFF 		bl	buffer_get_int32
 3890              	.LVL388:
 3891 1862 07EE900A 		fmsr	s15, r0	@ int
 3892 1866 F8EEE77A 		fsitos	s15, s15
 3893              		.loc 1 463 0
 3894 186a 02A9     		add	r1, sp, #8
 3895              		.loc 1 462 0
 3896 186c C7EE887A 		fdivs	s15, s15, s16
 3897              		.loc 1 463 0
 3898 1870 2046     		mov	r0, r4
 3899              		.loc 1 462 0
 3900 1872 CDED0B7A 		fsts	s15, [sp, #44]
 3901              		.loc 1 463 0
 3902 1876 FFF7FEFF 		bl	buffer_get_int32
 3903              	.LVL389:
 3904 187a 07EE900A 		fmsr	s15, r0	@ int
 3905 187e F8EEE77A 		fsitos	s15, s15
 3906              		.loc 1 464 0
 3907 1882 02A9     		add	r1, sp, #8
 3908              		.loc 1 463 0
 3909 1884 C7EE887A 		fdivs	s15, s15, s16
 3910              		.loc 1 464 0
 3911 1888 2046     		mov	r0, r4
 3912              		.loc 1 463 0
 3913 188a CDED0C7A 		fsts	s15, [sp, #48]
 3914              		.loc 1 464 0
 3915 188e FFF7FEFF 		bl	buffer_get_int32
 3916              	.LVL390:
 3917 1892 07EE900A 		fmsr	s15, r0	@ int
 3918 1896 F8EEE77A 		fsitos	s15, s15
 3919              		.loc 1 465 0
 3920 189a 02A9     		add	r1, sp, #8
 3921              		.loc 1 464 0
 3922 189c C7EE887A 		fdivs	s15, s15, s16
 3923              		.loc 1 465 0
 3924 18a0 2046     		mov	r0, r4
 3925              		.loc 1 464 0
 3926 18a2 CDED0D7A 		fsts	s15, [sp, #52]
 3927              		.loc 1 465 0
 3928 18a6 FFF7FEFF 		bl	buffer_get_int32
 3929              	.LVL391:
 3930 18aa 07EE900A 		fmsr	s15, r0	@ int
 3931 18ae F8EEE77A 		fsitos	s15, s15
 3932              		.loc 1 466 0
 3933 18b2 029B     		ldr	r3, [sp, #8]
ARM GAS  /tmp/ccy8OeyM.s 			page 70


 3934              		.loc 1 465 0
 3935 18b4 C7EE887A 		fdivs	s15, s15, s16
 3936              		.loc 1 466 0
 3937 18b8 5919     		adds	r1, r3, r5
 3938 18ba E25C     		ldrb	r2, [r4, r3]	@ zero_extendqisi2
 3939              		.loc 1 467 0
 3940 18bc 665C     		ldrb	r6, [r4, r1]	@ zero_extendqisi2
 3941              		.loc 1 466 0
 3942 18be 0032     		adds	r2, r2, #0
 3943 18c0 18BF     		it	ne
 3944 18c2 0122     		movne	r2, #1
 3945              		.loc 1 467 0
 3946 18c4 0036     		adds	r6, r6, #0
 3947 18c6 18BF     		it	ne
 3948 18c8 0126     		movne	r6, #1
 3949 18ca 0233     		adds	r3, r3, #2
 3950              		.loc 1 468 0
 3951 18cc 02A9     		add	r1, sp, #8
 3952 18ce 2046     		mov	r0, r4
 3953              		.loc 1 466 0
 3954 18d0 8DF83C20 		strb	r2, [sp, #60]
 3955              		.loc 1 467 0
 3956 18d4 0293     		str	r3, [sp, #8]
 3957 18d6 8DF83D60 		strb	r6, [sp, #61]
 3958              		.loc 1 465 0
 3959 18da CDED0E7A 		fsts	s15, [sp, #56]
 3960              		.loc 1 468 0
 3961 18de FFF7FEFF 		bl	buffer_get_int32
 3962              	.LVL392:
 3963 18e2 07EE900A 		fmsr	s15, r0	@ int
 3964 18e6 F8EEE77A 		fsitos	s15, s15
 3965              		.loc 1 469 0
 3966 18ea 02A9     		add	r1, sp, #8
 3967              		.loc 1 468 0
 3968 18ec C7EE887A 		fdivs	s15, s15, s16
 3969              		.loc 1 469 0
 3970 18f0 2046     		mov	r0, r4
 3971              		.loc 1 468 0
 3972 18f2 CDED107A 		fsts	s15, [sp, #64]
 3973              		.loc 1 469 0
 3974 18f6 FFF7FEFF 		bl	buffer_get_int32
 3975              	.LVL393:
 3976 18fa 07EE900A 		fmsr	s15, r0	@ int
 3977 18fe F8EEE77A 		fsitos	s15, s15
 3978              		.loc 1 470 0
 3979 1902 029B     		ldr	r3, [sp, #8]
 3980              		.loc 1 469 0
 3981 1904 C7EE887A 		fdivs	s15, s15, s16
 3982              		.loc 1 470 0
 3983 1908 5919     		adds	r1, r3, r5
 3984 190a E25C     		ldrb	r2, [r4, r3]	@ zero_extendqisi2
 3985              		.loc 1 471 0
 3986 190c 665C     		ldrb	r6, [r4, r1]	@ zero_extendqisi2
 3987              		.loc 1 470 0
 3988 190e 0032     		adds	r2, r2, #0
 3989 1910 18BF     		it	ne
 3990 1912 0122     		movne	r2, #1
ARM GAS  /tmp/ccy8OeyM.s 			page 71


 3991              		.loc 1 471 0
 3992 1914 0036     		adds	r6, r6, #0
 3993 1916 18BF     		it	ne
 3994 1918 0126     		movne	r6, #1
 3995 191a 0233     		adds	r3, r3, #2
 3996              		.loc 1 472 0
 3997 191c 02A9     		add	r1, sp, #8
 3998 191e 2046     		mov	r0, r4
 3999              		.loc 1 471 0
 4000 1920 8DF84960 		strb	r6, [sp, #73]
 4001              		.loc 1 470 0
 4002 1924 8DF84820 		strb	r2, [sp, #72]
 4003              		.loc 1 471 0
 4004 1928 0293     		str	r3, [sp, #8]
 4005              		.loc 1 469 0
 4006 192a CDED117A 		fsts	s15, [sp, #68]
 4007              		.loc 1 472 0
 4008 192e FFF7FEFF 		bl	buffer_get_int32
 4009              	.LVL394:
 4010 1932 07EE900A 		fmsr	s15, r0	@ int
 4011 1936 F8EEE77A 		fsitos	s15, s15
 4012              		.loc 1 474 0
 4013 193a 029B     		ldr	r3, [sp, #8]
 4014              		.loc 1 472 0
 4015 193c C7EE887A 		fdivs	s15, s15, s16
 4016              		.loc 1 474 0
 4017 1940 5A19     		adds	r2, r3, r5
 4018              		.loc 1 475 0
 4019 1942 02A9     		add	r1, sp, #8
 4020              		.loc 1 474 0
 4021 1944 E35C     		ldrb	r3, [r4, r3]	@ zero_extendqisi2
 4022 1946 8DF85030 		strb	r3, [sp, #80]
 4023              		.loc 1 475 0
 4024 194a 2046     		mov	r0, r4
 4025              		.loc 1 474 0
 4026 194c 0292     		str	r2, [sp, #8]
 4027              		.loc 1 472 0
 4028 194e CDED137A 		fsts	s15, [sp, #76]
 4029              		.loc 1 475 0
 4030 1952 FFF7FEFF 		bl	buffer_get_int32
 4031              	.LVL395:
 4032 1956 07EE900A 		fmsr	s15, r0	@ int
 4033 195a F8EEE77A 		fsitos	s15, s15
 4034              		.loc 1 476 0
 4035 195e 02A9     		add	r1, sp, #8
 4036              		.loc 1 475 0
 4037 1960 C7EE887A 		fdivs	s15, s15, s16
 4038              		.loc 1 476 0
 4039 1964 2046     		mov	r0, r4
 4040              		.loc 1 475 0
 4041 1966 CDED157A 		fsts	s15, [sp, #84]
 4042              		.loc 1 476 0
 4043 196a FFF7FEFF 		bl	buffer_get_int32
 4044              	.LVL396:
 4045 196e 07EE900A 		fmsr	s15, r0	@ int
 4046 1972 F8EEE77A 		fsitos	s15, s15
 4047              		.loc 1 477 0
ARM GAS  /tmp/ccy8OeyM.s 			page 72


 4048 1976 02A9     		add	r1, sp, #8
 4049              		.loc 1 476 0
 4050 1978 C7EE887A 		fdivs	s15, s15, s16
 4051              		.loc 1 477 0
 4052 197c 2046     		mov	r0, r4
 4053              		.loc 1 476 0
 4054 197e CDED167A 		fsts	s15, [sp, #88]
 4055              		.loc 1 477 0
 4056 1982 FFF7FEFF 		bl	buffer_get_int32
 4057              	.LVL397:
 4058 1986 07EE900A 		fmsr	s15, r0	@ int
 4059 198a F8EEE77A 		fsitos	s15, s15
 4060              		.loc 1 478 0
 4061 198e 029B     		ldr	r3, [sp, #8]
 4062              		.loc 1 477 0
 4063 1990 C7EE887A 		fdivs	s15, s15, s16
 4064              		.loc 1 478 0
 4065 1994 5E19     		adds	r6, r3, r5
 4066              		.loc 1 479 0
 4067 1996 981C     		adds	r0, r3, #2
 4068 1998 14F806C0 		ldrb	ip, [r4, r6]	@ zero_extendqisi2
 4069              		.loc 1 480 0
 4070 199c 14F800E0 		ldrb	lr, [r4, r0]	@ zero_extendqisi2
 4071 19a0 D91C     		adds	r1, r3, #3
 4072              		.loc 1 481 0
 4073 19a2 1A1D     		adds	r2, r3, #4
 4074              		.loc 1 479 0
 4075 19a4 1CF1000C 		adds	ip, ip, #0
 4076              		.loc 1 481 0
 4077 19a8 675C     		ldrb	r7, [r4, r1]	@ zero_extendqisi2
 4078              		.loc 1 482 0
 4079 19aa A65C     		ldrb	r6, [r4, r2]	@ zero_extendqisi2
 4080              		.loc 1 478 0
 4081 19ac E25C     		ldrb	r2, [r4, r3]	@ zero_extendqisi2
 4082              		.loc 1 479 0
 4083 19ae 18BF     		it	ne
 4084 19b0 4FF0010C 		movne	ip, #1
 4085              		.loc 1 480 0
 4086 19b4 1EF1000E 		adds	lr, lr, #0
 4087 19b8 18BF     		it	ne
 4088 19ba 4FF0010E 		movne	lr, #1
 4089              		.loc 1 481 0
 4090 19be 0037     		adds	r7, r7, #0
 4091 19c0 18BF     		it	ne
 4092 19c2 0127     		movne	r7, #1
 4093              		.loc 1 482 0
 4094 19c4 0036     		adds	r6, r6, #0
 4095 19c6 18BF     		it	ne
 4096 19c8 0126     		movne	r6, #1
 4097              		.loc 1 478 0
 4098 19ca 0032     		adds	r2, r2, #0
 4099 19cc 18BF     		it	ne
 4100 19ce 0122     		movne	r2, #1
 4101              		.loc 1 482 0
 4102 19d0 0533     		adds	r3, r3, #5
 4103              		.loc 1 483 0
 4104 19d2 02A9     		add	r1, sp, #8
ARM GAS  /tmp/ccy8OeyM.s 			page 73


 4105 19d4 2046     		mov	r0, r4
 4106              		.loc 1 479 0
 4107 19d6 8DF861C0 		strb	ip, [sp, #97]
 4108              		.loc 1 480 0
 4109 19da 8DF862E0 		strb	lr, [sp, #98]
 4110              		.loc 1 478 0
 4111 19de 8DF86020 		strb	r2, [sp, #96]
 4112              		.loc 1 482 0
 4113 19e2 0293     		str	r3, [sp, #8]
 4114              		.loc 1 477 0
 4115 19e4 CDED177A 		fsts	s15, [sp, #92]
 4116              		.loc 1 481 0
 4117 19e8 8DF86370 		strb	r7, [sp, #99]
 4118              		.loc 1 482 0
 4119 19ec 8DF86460 		strb	r6, [sp, #100]
 4120              		.loc 1 483 0
 4121 19f0 FFF7FEFF 		bl	buffer_get_int32
 4122              	.LVL398:
 4123 19f4 07EE900A 		fmsr	s15, r0	@ int
 4124 19f8 F8EEE77A 		fsitos	s15, s15
 4125              		.loc 1 484 0
 4126 19fc 02A9     		add	r1, sp, #8
 4127              		.loc 1 483 0
 4128 19fe C7EE887A 		fdivs	s15, s15, s16
 4129              		.loc 1 484 0
 4130 1a02 2046     		mov	r0, r4
 4131              		.loc 1 483 0
 4132 1a04 CDED1A7A 		fsts	s15, [sp, #104]
 4133              		.loc 1 484 0
 4134 1a08 FFF7FEFF 		bl	buffer_get_int32
 4135              	.LVL399:
 4136 1a0c 07EE900A 		fmsr	s15, r0	@ int
 4137 1a10 F8EEE77A 		fsitos	s15, s15
 4138              		.loc 1 485 0
 4139 1a14 029B     		ldr	r3, [sp, #8]
 4140              		.loc 1 484 0
 4141 1a16 C7EE887A 		fdivs	s15, s15, s16
 4142              		.loc 1 485 0
 4143 1a1a 5919     		adds	r1, r3, r5
 4144 1a1c E25C     		ldrb	r2, [r4, r3]	@ zero_extendqisi2
 4145              		.loc 1 486 0
 4146 1a1e 665C     		ldrb	r6, [r4, r1]	@ zero_extendqisi2
 4147              		.loc 1 485 0
 4148 1a20 0032     		adds	r2, r2, #0
 4149 1a22 18BF     		it	ne
 4150 1a24 0122     		movne	r2, #1
 4151              		.loc 1 486 0
 4152 1a26 0036     		adds	r6, r6, #0
 4153 1a28 18BF     		it	ne
 4154 1a2a 0126     		movne	r6, #1
 4155 1a2c 0233     		adds	r3, r3, #2
 4156              		.loc 1 487 0
 4157 1a2e 02A9     		add	r1, sp, #8
 4158 1a30 2046     		mov	r0, r4
 4159              		.loc 1 485 0
 4160 1a32 8DF87020 		strb	r2, [sp, #112]
 4161              		.loc 1 486 0
ARM GAS  /tmp/ccy8OeyM.s 			page 74


 4162 1a36 0293     		str	r3, [sp, #8]
 4163 1a38 8DF87160 		strb	r6, [sp, #113]
 4164              		.loc 1 484 0
 4165 1a3c CDED1B7A 		fsts	s15, [sp, #108]
 4166              		.loc 1 487 0
 4167 1a40 FFF7FEFF 		bl	buffer_get_int32
 4168              	.LVL400:
 4169 1a44 07EE900A 		fmsr	s15, r0	@ int
 4170 1a48 F8EEE77A 		fsitos	s15, s15
 4171              		.loc 1 488 0
 4172 1a4c 02A9     		add	r1, sp, #8
 4173              		.loc 1 487 0
 4174 1a4e C7EE887A 		fdivs	s15, s15, s16
 4175              		.loc 1 488 0
 4176 1a52 2046     		mov	r0, r4
 4177              		.loc 1 487 0
 4178 1a54 CDED1D7A 		fsts	s15, [sp, #116]
 4179              		.loc 1 488 0
 4180 1a58 FFF7FEFF 		bl	buffer_get_uint16
 4181              	.LVL401:
 4182              		.loc 1 490 0
 4183 1a5c 02A9     		add	r1, sp, #8
 4184              		.loc 1 488 0
 4185 1a5e 1E90     		str	r0, [sp, #120]
 4186              		.loc 1 490 0
 4187 1a60 2046     		mov	r0, r4
 4188 1a62 FFF7FEFF 		bl	buffer_get_uint32
 4189              	.LVL402:
 4190              		.loc 1 492 0
 4191 1a66 029B     		ldr	r3, [sp, #8]
 4192              		.loc 1 490 0
 4193 1a68 1F90     		str	r0, [sp, #124]
 4194              		.loc 1 492 0
 4195 1a6a 5A19     		adds	r2, r3, r5
 4196              		.loc 1 493 0
 4197 1a6c 2046     		mov	r0, r4
 4198              		.loc 1 492 0
 4199 1a6e E35C     		ldrb	r3, [r4, r3]	@ zero_extendqisi2
 4200 1a70 8DF88030 		strb	r3, [sp, #128]
 4201              		.loc 1 493 0
 4202 1a74 02A9     		add	r1, sp, #8
 4203 1a76 B0EE480A 		fcpys	s0, s16
 4204              		.loc 1 492 0
 4205 1a7a 0292     		str	r2, [sp, #8]
 4206              		.loc 1 493 0
 4207 1a7c FFF7FEFF 		bl	buffer_get_float32
 4208              	.LVL403:
 4209              		.loc 1 494 0
 4210 1a80 2046     		mov	r0, r4
 4211 1a82 02A9     		add	r1, sp, #8
 4212              		.loc 1 493 0
 4213 1a84 8DED210A 		fsts	s0, [sp, #132]
 4214              		.loc 1 494 0
 4215 1a88 B0EE480A 		fcpys	s0, s16
 4216 1a8c FFF7FEFF 		bl	buffer_get_float32
 4217              	.LVL404:
 4218              		.loc 1 495 0
ARM GAS  /tmp/ccy8OeyM.s 			page 75


 4219 1a90 2046     		mov	r0, r4
 4220 1a92 02A9     		add	r1, sp, #8
 4221              		.loc 1 494 0
 4222 1a94 8DED220A 		fsts	s0, [sp, #136]
 4223              		.loc 1 495 0
 4224 1a98 B0EE480A 		fcpys	s0, s16
 4225 1a9c FFF7FEFF 		bl	buffer_get_float32
 4226              	.LVL405:
 4227              		.loc 1 496 0
 4228 1aa0 2046     		mov	r0, r4
 4229 1aa2 02A9     		add	r1, sp, #8
 4230              		.loc 1 495 0
 4231 1aa4 8DED230A 		fsts	s0, [sp, #140]
 4232              		.loc 1 496 0
 4233 1aa8 B0EE480A 		fcpys	s0, s16
 4234 1aac FFF7FEFF 		bl	buffer_get_float32
 4235              	.LVL406:
 4236              		.loc 1 497 0
 4237 1ab0 2046     		mov	r0, r4
 4238 1ab2 02A9     		add	r1, sp, #8
 4239              		.loc 1 496 0
 4240 1ab4 8DED240A 		fsts	s0, [sp, #144]
 4241              		.loc 1 497 0
 4242 1ab8 B0EE480A 		fcpys	s0, s16
 4243 1abc FFF7FEFF 		bl	buffer_get_float32
 4244              	.LVL407:
 4245              		.loc 1 498 0
 4246 1ac0 2046     		mov	r0, r4
 4247 1ac2 02A9     		add	r1, sp, #8
 4248              		.loc 1 497 0
 4249 1ac4 8DED250A 		fsts	s0, [sp, #148]
 4250              		.loc 1 498 0
 4251 1ac8 B0EE480A 		fcpys	s0, s16
 4252 1acc FFF7FEFF 		bl	buffer_get_float32
 4253              	.LVL408:
 4254              		.loc 1 499 0
 4255 1ad0 029B     		ldr	r3, [sp, #8]
 4256 1ad2 5919     		adds	r1, r3, r5
 4257 1ad4 E25C     		ldrb	r2, [r4, r3]	@ zero_extendqisi2
 4258              		.loc 1 500 0
 4259 1ad6 665C     		ldrb	r6, [r4, r1]	@ zero_extendqisi2
 4260              		.loc 1 498 0
 4261 1ad8 8DED260A 		fsts	s0, [sp, #152]
 4262              		.loc 1 500 0
 4263 1adc 0036     		adds	r6, r6, #0
 4264 1ade 18BF     		it	ne
 4265 1ae0 0126     		movne	r6, #1
 4266              		.loc 1 499 0
 4267 1ae2 0032     		adds	r2, r2, #0
 4268 1ae4 18BF     		it	ne
 4269 1ae6 0122     		movne	r2, #1
 4270              		.loc 1 500 0
 4271 1ae8 0233     		adds	r3, r3, #2
 4272              		.loc 1 501 0
 4273 1aea 2046     		mov	r0, r4
 4274 1aec 02A9     		add	r1, sp, #8
 4275 1aee B0EE480A 		fcpys	s0, s16
ARM GAS  /tmp/ccy8OeyM.s 			page 76


 4276              		.loc 1 500 0
 4277 1af2 8DF89D60 		strb	r6, [sp, #157]
 4278              		.loc 1 499 0
 4279 1af6 8DF89C20 		strb	r2, [sp, #156]
 4280              		.loc 1 500 0
 4281 1afa 0293     		str	r3, [sp, #8]
 4282              		.loc 1 501 0
 4283 1afc FFF7FEFF 		bl	buffer_get_float32
 4284              	.LVL409:
 4285              		.loc 1 503 0
 4286 1b00 029B     		ldr	r3, [sp, #8]
 4287              		.loc 1 501 0
 4288 1b02 8DED280A 		fsts	s0, [sp, #160]
 4289              		.loc 1 503 0
 4290 1b06 03EB050C 		add	ip, r3, r5
 4291              		.loc 1 504 0
 4292 1b0a 03F1020E 		add	lr, r3, #2
 4293              		.loc 1 505 0
 4294 1b0e DF1C     		adds	r7, r3, #3
 4295              		.loc 1 506 0
 4296 1b10 1E1D     		adds	r6, r3, #4
 4297              		.loc 1 507 0
 4298 1b12 581D     		adds	r0, r3, #5
 4299              		.loc 1 511 0
 4300 1b14 E218     		adds	r2, r4, r3
 4301              		.loc 1 508 0
 4302 1b16 991D     		adds	r1, r3, #6
 4303              		.loc 1 504 0
 4304 1b18 14F80C80 		ldrb	r8, [r4, ip]	@ zero_extendqisi2
 4305              	.LVL410:
 4306              		.loc 1 511 0
 4307 1b1c 527A     		ldrb	r2, [r2, #9]	@ zero_extendqisi2
 4308              		.loc 1 505 0
 4309 1b1e 14F80EC0 		ldrb	ip, [r4, lr]	@ zero_extendqisi2
 4310              		.loc 1 506 0
 4311 1b22 14F807E0 		ldrb	lr, [r4, r7]	@ zero_extendqisi2
 4312              		.loc 1 507 0
 4313 1b26 A75D     		ldrb	r7, [r4, r6]	@ zero_extendqisi2
 4314              		.loc 1 508 0
 4315 1b28 265C     		ldrb	r6, [r4, r0]	@ zero_extendqisi2
 4316              		.loc 1 503 0
 4317 1b2a E05C     		ldrb	r0, [r4, r3]	@ zero_extendqisi2
 4318 1b2c 8DF8A400 		strb	r0, [sp, #164]
 4319              		.loc 1 509 0
 4320 1b30 0C44     		add	r4, r4, r1
 4321              	.LVL411:
 4322              		.loc 1 505 0
 4323 1b32 8DF8A6C0 		strb	ip, [sp, #166]
 4324              		.loc 1 506 0
 4325 1b36 8DF8A7E0 		strb	lr, [sp, #167]
 4326              		.loc 1 508 0
 4327 1b3a 0291     		str	r1, [sp, #8]
 4328              		.loc 1 504 0
 4329 1b3c 8DF8A580 		strb	r8, [sp, #165]
 4330              		.loc 1 507 0
 4331 1b40 8DF8A870 		strb	r7, [sp, #168]
 4332              		.loc 1 508 0
ARM GAS  /tmp/ccy8OeyM.s 			page 77


 4333 1b44 8DF8A960 		strb	r6, [sp, #169]
 4334              		.loc 1 511 0
 4335 1b48 0032     		adds	r2, r2, #0
 4336              		.loc 1 509 0
 4337 1b4a A078     		ldrb	r0, [r4, #2]	@ zero_extendqisi2
 4338 1b4c 2188     		ldrh	r1, [r4]	@ unaligned
 4339 1b4e 8DF8AC00 		strb	r0, [sp, #172]
 4340              		.loc 1 511 0
 4341 1b52 18BF     		it	ne
 4342 1b54 0122     		movne	r2, #1
 4343 1b56 0A33     		adds	r3, r3, #10
 4344              		.loc 1 513 0
 4345 1b58 04A8     		add	r0, sp, #16
 4346              		.loc 1 511 0
 4347 1b5a 8DF8AD20 		strb	r2, [sp, #173]
 4348 1b5e 0293     		str	r3, [sp, #8]
 4349              		.loc 1 509 0
 4350 1b60 ADF8AA10 		strh	r1, [sp, #170]	@ unaligned
 4351              		.loc 1 513 0
 4352 1b64 FFF7FEFF 		bl	conf_general_store_app_configuration
 4353              	.LVL412:
 4354              		.loc 1 514 0
 4355 1b68 04A8     		add	r0, sp, #16
 4356 1b6a FFF7FEFF 		bl	app_set_configuration
 4357              	.LVL413:
 4358              		.loc 1 515 0
 4359 1b6e 0598     		ldr	r0, [sp, #20]
 4360 1b70 9DED060A 		flds	s0, [sp, #24]
 4361 1b74 FFF7FEFF 		bl	timeout_configure
 4362              	.LVL414:
 4363              	.LBB147:
 4364              	.LBB148:
 4365              		.loc 1 94 0
 4366 1b78 2B4B     		ldr	r3, .L164
 4367              	.LBE148:
 4368              	.LBE147:
 4369              		.loc 1 518 0
 4370 1b7a 2C48     		ldr	r0, .L164+4
 4371              	.LBB151:
 4372              	.LBB149:
 4373              		.loc 1 94 0
 4374 1b7c 1B68     		ldr	r3, [r3]
 4375              	.LBE149:
 4376              	.LBE151:
 4377              		.loc 1 518 0
 4378 1b7e 0295     		str	r5, [sp, #8]
 4379 1b80 0F22     		movs	r2, #15
 4380 1b82 0270     		strb	r2, [r0]
 4381              	.LVL415:
 4382              	.LBB152:
 4383              	.LBB150:
 4384              		.loc 1 94 0
 4385 1b84 002B     		cmp	r3, #0
 4386 1b86 3EF402AC 		beq	.L24
 4387              	.LBE150:
 4388              	.LBE152:
 4389              		.loc 1 788 0
ARM GAS  /tmp/ccy8OeyM.s 			page 78


 4390 1b8a 2946     		mov	r1, r5
 4391 1b8c FEF742BE 		b	.L131
 4392              	.LVL416:
 4393              	.L144:
 4394 1b90 9DED030A 		flds	s0, [sp, #12]
 4395 1b94 FEF7FDBF 		b	.L67
 4396              	.LVL417:
 4397              	.L143:
 4398 1b98 9DED040A 		flds	s0, [sp, #16]
 4399 1b9c FEF7BCBF 		b	.L70
 4400              	.LVL418:
 4401              	.L141:
 4402              		.loc 1 525 0
 4403 1ba0 FFF7FEFF 		bl	app_get_configuration
 4404              	.LVL419:
 4405 1ba4 A022     		movs	r2, #160
 4406 1ba6 0146     		mov	r1, r0
 4407 1ba8 04A8     		add	r0, sp, #16
 4408 1baa FFF7FEFF 		bl	memcpy
 4409              	.LVL420:
 4410 1bae FEF766BA 		b	.L65
 4411              	.LVL421:
 4412              	.L142:
 4413              		.loc 1 226 0
 4414 1bb2 FFF7FEFF 		bl	mc_interface_release_motor
 4415              	.LVL422:
 4416 1bb6 FEF706BC 		b	.L51
 4417              	.LVL423:
 4418              	.L145:
 4419              		.loc 1 352 0
 4420 1bba FFF7FEFF 		bl	mc_interface_get_configuration
 4421              	.LVL424:
 4422 1bbe 4FF49A72 		mov	r2, #308
 4423 1bc2 0146     		mov	r1, r0
 4424 1bc4 1A48     		ldr	r0, .L164+8
 4425 1bc6 FFF7FEFF 		bl	memcpy
 4426              	.LVL425:
 4427 1bca FFF714B8 		b	.L63
 4428              	.LVL426:
 4429              	.L74:
 4430              		.loc 1 728 0
 4431 1bce 174B     		ldr	r3, .L164+4
 4432 1bd0 0822     		movs	r2, #8
 4433 1bd2 FF21     		movs	r1, #255
 4434 1bd4 1846     		mov	r0, r3
 4435 1bd6 FFF7FEFF 		bl	memset
 4436              	.LVL427:
 4437              		.loc 1 730 0
 4438 1bda 0022     		movs	r2, #0
 4439 1bdc 4272     		strb	r2, [r0, #9]
 4440 1bde FEF7D6BB 		b	.L24
 4441              	.LVL428:
 4442              	.L72:
 4443              		.loc 1 691 0
 4444 1be2 2CAD     		add	r5, sp, #176
 4445              	.LVL429:
 4446 1be4 0123     		movs	r3, #1
ARM GAS  /tmp/ccy8OeyM.s 			page 79


 4447 1be6 45F8A83D 		str	r3, [r5, #-168]!
 4448 1bea 104C     		ldr	r4, .L164+4
 4449              	.LVL430:
 4450              		.loc 1 692 0
 4451 1bec 9FED110A 		flds	s0, .L164+12
 4452 1bf0 DFED110A 		flds	s1, .L164+16
 4453              		.loc 1 691 0
 4454 1bf4 1A23     		movs	r3, #26
 4455              		.loc 1 692 0
 4456 1bf6 2946     		mov	r1, r5
 4457 1bf8 2046     		mov	r0, r4
 4458              		.loc 1 691 0
 4459 1bfa 2370     		strb	r3, [r4]
 4460              		.loc 1 692 0
 4461 1bfc FFF7FEFF 		bl	buffer_append_float32
 4462              	.LVL431:
 4463              		.loc 1 693 0
 4464 1c00 2946     		mov	r1, r5
 4465 1c02 2046     		mov	r0, r4
 4466 1c04 9FED0D0A 		flds	s0, .L164+20
 4467 1c08 DFED0B0A 		flds	s1, .L164+16
 4468 1c0c FFF7FEFF 		bl	buffer_append_float32
 4469              	.LVL432:
 4470              	.LBB153:
 4471              	.LBB154:
 4472              		.loc 1 94 0
 4473 1c10 054B     		ldr	r3, .L164
 4474              	.LBE154:
 4475              	.LBE153:
 4476              		.loc 1 694 0
 4477 1c12 0299     		ldr	r1, [sp, #8]
 4478              	.LBB157:
 4479              	.LBB155:
 4480              		.loc 1 94 0
 4481 1c14 1B68     		ldr	r3, [r3]
 4482              	.LBE155:
 4483              	.LBE157:
 4484              		.loc 1 694 0
 4485 1c16 6654     		strb	r6, [r4, r1]
 4486              	.LVL433:
 4487 1c18 0131     		adds	r1, r1, #1
 4488              	.LVL434:
 4489 1c1a 0291     		str	r1, [sp, #8]
 4490              	.LBB158:
 4491              	.LBB156:
 4492              		.loc 1 94 0
 4493 1c1c 002B     		cmp	r3, #0
 4494 1c1e 7EF407AC 		bne	.L133
 4495 1c22 FEF7B4BB 		b	.L24
 4496              	.L165:
 4497 1c26 00BF     		.align	2
 4498              	.L164:
 4499 1c28 00000000 		.word	.LANCHOR9
 4500 1c2c 00000000 		.word	.LANCHOR8
 4501 1c30 00000000 		.word	.LANCHOR11
 4502 1c34 00407A44 		.word	1148862464
 4503 1c38 00247449 		.word	1232348160
ARM GAS  /tmp/ccy8OeyM.s 			page 80


 4504 1c3c 00000000 		.word	0
 4505              	.LBE156:
 4506              	.LBE158:
 4507              		.cfi_endproc
 4508              	.LFE259:
 4509              		.size	commands_process_packet, .-commands_process_packet
 4510              		.section	.text.commands_printf,"ax",%progbits
 4511              		.align	2
 4512              		.p2align 4,,15
 4513              		.global	commands_printf
 4514              		.thumb
 4515              		.thumb_func
 4516              		.type	commands_printf, %function
 4517              	commands_printf:
 4518              	.LFB260:
 4519              		.loc 1 797 0
 4520              		.cfi_startproc
 4521              		@ args = 4, pretend = 16, frame = 8
 4522              		@ frame_needed = 0, uses_anonymous_args = 1
 4523              	.LVL435:
 4524 0000 0FB4     		push	{r0, r1, r2, r3}
 4525              		.cfi_def_cfa_offset 16
 4526              		.cfi_offset 0, -16
 4527              		.cfi_offset 1, -12
 4528              		.cfi_offset 2, -8
 4529              		.cfi_offset 3, -4
 4530 0002 00B5     		push	{lr}
 4531              		.cfi_def_cfa_offset 20
 4532              		.cfi_offset 14, -20
 4533 0004 83B0     		sub	sp, sp, #12
 4534              		.cfi_def_cfa_offset 32
 4535              		.loc 1 797 0
 4536 0006 04AB     		add	r3, sp, #16
 4537              		.loc 1 803 0
 4538 0008 0C48     		ldr	r0, .L174
 4539              		.loc 1 797 0
 4540 000a 53F8042B 		ldr	r2, [r3], #4
 4541              		.loc 1 799 0
 4542 000e 0193     		str	r3, [sp, #4]
 4543              		.loc 1 803 0
 4544 0010 1421     		movs	r1, #20
 4545 0012 00F8011B 		strb	r1, [r0], #1
 4546              		.loc 1 804 0
 4547 0016 FE21     		movs	r1, #254
 4548 0018 FFF7FEFF 		bl	vsnprintf
 4549              	.LVL436:
 4550              		.loc 1 807 0
 4551 001c 0028     		cmp	r0, #0
 4552 001e 08DD     		ble	.L166
 4553              	.LVL437:
 4554              	.LBB159:
 4555              	.LBB160:
 4556              		.loc 1 94 0
 4557 0020 074B     		ldr	r3, .L174+4
 4558 0022 1B68     		ldr	r3, [r3]
 4559              	.LBE160:
 4560              	.LBE159:
ARM GAS  /tmp/ccy8OeyM.s 			page 81


 4561              		.loc 1 808 0
 4562 0024 FD28     		cmp	r0, #253
 4563 0026 D4BF     		ite	le
 4564 0028 411C     		addle	r1, r0, #1
 4565 002a FF21     		movgt	r1, #255
 4566              	.LVL438:
 4567              	.LBB162:
 4568              	.LBB161:
 4569              		.loc 1 94 0
 4570 002c 0BB1     		cbz	r3, .L166
 4571              		.loc 1 95 0
 4572 002e 0348     		ldr	r0, .L174
 4573              	.LVL439:
 4574 0030 9847     		blx	r3
 4575              	.LVL440:
 4576              	.L166:
 4577              	.LBE161:
 4578              	.LBE162:
 4579              		.loc 1 810 0
 4580 0032 03B0     		add	sp, sp, #12
 4581              		.cfi_def_cfa_offset 20
 4582              		@ sp needed
 4583 0034 5DF804EB 		ldr	lr, [sp], #4
 4584              		.cfi_restore 14
 4585              		.cfi_def_cfa_offset 16
 4586 0038 04B0     		add	sp, sp, #16
 4587              		.cfi_restore 3
 4588              		.cfi_restore 2
 4589              		.cfi_restore 1
 4590              		.cfi_restore 0
 4591              		.cfi_def_cfa_offset 0
 4592 003a 7047     		bx	lr
 4593              	.L175:
 4594              		.align	2
 4595              	.L174:
 4596 003c 00000000 		.word	.LANCHOR15
 4597 0040 00000000 		.word	.LANCHOR9
 4598              		.cfi_endproc
 4599              	.LFE260:
 4600              		.size	commands_printf, .-commands_printf
 4601              		.section	.text.commands_send_samples,"ax",%progbits
 4602              		.align	2
 4603              		.p2align 4,,15
 4604              		.global	commands_send_samples
 4605              		.thumb
 4606              		.thumb_func
 4607              		.type	commands_send_samples, %function
 4608              	commands_send_samples:
 4609              	.LFB261:
 4610              		.loc 1 812 0
 4611              		.cfi_startproc
 4612              		@ args = 0, pretend = 0, frame = 0
 4613              		@ frame_needed = 1, uses_anonymous_args = 0
 4614              	.LVL441:
 4615 0000 F8B5     		push	{r3, r4, r5, r6, r7, lr}
 4616              		.cfi_def_cfa_offset 24
 4617              		.cfi_offset 3, -24
ARM GAS  /tmp/ccy8OeyM.s 			page 82


 4618              		.cfi_offset 4, -20
 4619              		.cfi_offset 5, -16
 4620              		.cfi_offset 6, -12
 4621              		.cfi_offset 7, -8
 4622              		.cfi_offset 14, -4
 4623              		.loc 1 813 0
 4624 0002 01F10803 		add	r3, r1, #8
 4625 0006 23F00703 		bic	r3, r3, #7
 4626              		.loc 1 812 0
 4627 000a 00AF     		add	r7, sp, #0
 4628              		.cfi_def_cfa_register 7
 4629              		.loc 1 813 0
 4630 000c ADEB030D 		sub	sp, sp, r3
 4631              	.LBB163:
 4632              		.loc 1 818 0
 4633 0010 0029     		cmp	r1, #0
 4634              	.LBE163:
 4635              		.loc 1 816 0
 4636 0012 4FF01203 		mov	r3, #18
 4637 0016 8DF80030 		strb	r3, [sp]
 4638              		.loc 1 813 0
 4639 001a 6E46     		mov	r6, sp
 4640              	.LVL442:
 4641              	.LBB164:
 4642              		.loc 1 818 0
 4643 001c 11DD     		ble	.L180
 4644 001e 421E     		subs	r2, r0, #1
 4645 0020 6B46     		mov	r3, sp
 4646 0022 0DEB0105 		add	r5, sp, r1
 4647              	.LVL443:
 4648              	.L178:
 4649              		.loc 1 819 0 discriminator 3
 4650 0026 12F8014F 		ldrb	r4, [r2, #1]!	@ zero_extendqisi2
 4651              	.LVL444:
 4652 002a 03F8014F 		strb	r4, [r3, #1]!
 4653              	.LVL445:
 4654              		.loc 1 818 0 discriminator 3
 4655 002e AB42     		cmp	r3, r5
 4656 0030 F9D1     		bne	.L178
 4657 0032 0131     		adds	r1, r1, #1
 4658              	.LVL446:
 4659              	.L177:
 4660              	.LBE164:
 4661              	.LBB165:
 4662              	.LBB166:
 4663              		.loc 1 94 0
 4664 0034 044B     		ldr	r3, .L186
 4665 0036 1B68     		ldr	r3, [r3]
 4666 0038 0BB1     		cbz	r3, .L176
 4667 003a 3046     		mov	r0, r6
 4668              	.LVL447:
 4669              		.loc 1 95 0
 4670 003c 9847     		blx	r3
 4671              	.LVL448:
 4672              	.L176:
 4673              	.LBE166:
 4674              	.LBE165:
ARM GAS  /tmp/ccy8OeyM.s 			page 83


 4675              		.loc 1 823 0
 4676 003e BD46     		mov	sp, r7
 4677              		.cfi_remember_state
 4678              		.cfi_def_cfa_register 13
 4679              		@ sp needed
 4680 0040 F8BD     		pop	{r3, r4, r5, r6, r7, pc}
 4681              	.LVL449:
 4682              	.L180:
 4683              		.cfi_restore_state
 4684              	.LBB167:
 4685              		.loc 1 818 0
 4686 0042 0121     		movs	r1, #1
 4687              	.LVL450:
 4688 0044 F6E7     		b	.L177
 4689              	.L187:
 4690 0046 00BF     		.align	2
 4691              	.L186:
 4692 0048 00000000 		.word	.LANCHOR9
 4693              	.LBE167:
 4694              		.cfi_endproc
 4695              	.LFE261:
 4696              		.size	commands_send_samples, .-commands_send_samples
 4697              		.section	.text.commands_send_rotor_pos,"ax",%progbits
 4698              		.align	2
 4699              		.p2align 4,,15
 4700              		.global	commands_send_rotor_pos
 4701              		.thumb
 4702              		.thumb_func
 4703              		.type	commands_send_rotor_pos, %function
 4704              	commands_send_rotor_pos:
 4705              	.LFB262:
 4706              		.loc 1 825 0
 4707              		.cfi_startproc
 4708              		@ args = 0, pretend = 0, frame = 16
 4709              		@ frame_needed = 0, uses_anonymous_args = 0
 4710              	.LVL451:
 4711 0000 10B5     		push	{r4, lr}
 4712              		.cfi_def_cfa_offset 8
 4713              		.cfi_offset 4, -8
 4714              		.cfi_offset 14, -4
 4715              		.loc 1 830 0
 4716 0002 DFED0D7A 		flds	s15, .L194
 4717              		.loc 1 825 0
 4718 0006 84B0     		sub	sp, sp, #16
 4719              		.cfi_def_cfa_offset 24
 4720              		.loc 1 829 0
 4721 0008 04AC     		add	r4, sp, #16
 4722              		.loc 1 830 0
 4723 000a 20EE270A 		fmuls	s0, s0, s15
 4724              	.LVL452:
 4725              		.loc 1 829 0
 4726 000e 1523     		movs	r3, #21
 4727 0010 04F8083D 		strb	r3, [r4, #-8]!
 4728              		.loc 1 830 0
 4729 0014 FDEEC07A 		ftosizs	s15, s0
 4730              		.loc 1 829 0
 4731 0018 0123     		movs	r3, #1
ARM GAS  /tmp/ccy8OeyM.s 			page 84


 4732              		.loc 1 830 0
 4733 001a 17EE901A 		fmrs	r1, s15	@ int
 4734 001e 2046     		mov	r0, r4
 4735 0020 01AA     		add	r2, sp, #4
 4736              		.loc 1 829 0
 4737 0022 0193     		str	r3, [sp, #4]
 4738              		.loc 1 830 0
 4739 0024 FFF7FEFF 		bl	buffer_append_int32
 4740              	.LVL453:
 4741              	.LBB168:
 4742              	.LBB169:
 4743              		.loc 1 94 0
 4744 0028 044B     		ldr	r3, .L194+4
 4745              	.LBE169:
 4746              	.LBE168:
 4747              		.loc 1 832 0
 4748 002a 0199     		ldr	r1, [sp, #4]
 4749              	.LVL454:
 4750              	.LBB171:
 4751              	.LBB170:
 4752              		.loc 1 94 0
 4753 002c 1B68     		ldr	r3, [r3]
 4754 002e 0BB1     		cbz	r3, .L188
 4755              		.loc 1 95 0
 4756 0030 2046     		mov	r0, r4
 4757 0032 9847     		blx	r3
 4758              	.LVL455:
 4759              	.L188:
 4760              	.LBE170:
 4761              	.LBE171:
 4762              		.loc 1 833 0
 4763 0034 04B0     		add	sp, sp, #16
 4764              		.cfi_def_cfa_offset 8
 4765              		@ sp needed
 4766 0036 10BD     		pop	{r4, pc}
 4767              	.LVL456:
 4768              	.L195:
 4769              		.align	2
 4770              	.L194:
 4771 0038 0050C347 		.word	1203982336
 4772 003c 00000000 		.word	.LANCHOR9
 4773              		.cfi_endproc
 4774              	.LFE262:
 4775              		.size	commands_send_rotor_pos, .-commands_send_rotor_pos
 4776              		.section	.text.commands_send_experiment_samples,"ax",%progbits
 4777              		.align	2
 4778              		.p2align 4,,15
 4779              		.global	commands_send_experiment_samples
 4780              		.thumb
 4781              		.thumb_func
 4782              		.type	commands_send_experiment_samples, %function
 4783              	commands_send_experiment_samples:
 4784              	.LFB263:
 4785              		.loc 1 835 0
 4786              		.cfi_startproc
 4787              		@ args = 0, pretend = 0, frame = 8
 4788              		@ frame_needed = 1, uses_anonymous_args = 0
ARM GAS  /tmp/ccy8OeyM.s 			page 85


 4789              	.LVL457:
 4790              		.loc 1 836 0
 4791 0000 8B00     		lsls	r3, r1, #2
 4792 0002 FF2B     		cmp	r3, #255
 4793 0004 34DC     		bgt	.L208
 4794              	.LVL458:
 4795              		.loc 1 835 0
 4796 0006 2DE9F043 		push	{r4, r5, r6, r7, r8, r9, lr}
 4797              		.cfi_def_cfa_offset 28
 4798              		.cfi_offset 4, -28
 4799              		.cfi_offset 5, -24
 4800              		.cfi_offset 6, -20
 4801              		.cfi_offset 7, -16
 4802              		.cfi_offset 8, -12
 4803              		.cfi_offset 9, -8
 4804              		.cfi_offset 14, -4
 4805 000a 2DED028B 		fstmfdd	sp!, {d8}
 4806              		.cfi_def_cfa_offset 36
 4807              		.cfi_offset 80, -36
 4808              		.cfi_offset 81, -32
 4809              		.loc 1 840 0
 4810 000e 0833     		adds	r3, r3, #8
 4811              	.LVL459:
 4812              		.loc 1 835 0
 4813 0010 83B0     		sub	sp, sp, #12
 4814              		.cfi_def_cfa_offset 48
 4815              		.loc 1 840 0
 4816 0012 23F00703 		bic	r3, r3, #7
 4817              	.LVL460:
 4818              		.loc 1 835 0
 4819 0016 0E46     		mov	r6, r1
 4820 0018 00AF     		add	r7, sp, #0
 4821              		.cfi_def_cfa_register 7
 4822 001a E946     		mov	r9, sp
 4823              		.loc 1 840 0
 4824 001c ADEB030D 		sub	sp, sp, r3
 4825              		.loc 1 843 0
 4826 0020 0121     		movs	r1, #1
 4827              	.LVL461:
 4828 0022 1623     		movs	r3, #22
 4829              	.LBB172:
 4830              		.loc 1 845 0
 4831 0024 002E     		cmp	r6, #0
 4832              	.LBE172:
 4833              		.loc 1 843 0
 4834 0026 8DF80030 		strb	r3, [sp]
 4835              		.loc 1 840 0
 4836 002a E846     		mov	r8, sp
 4837              	.LVL462:
 4838              		.loc 1 843 0
 4839 002c 7960     		str	r1, [r7, #4]
 4840              	.LBB173:
 4841              		.loc 1 845 0
 4842 002e 13DD     		ble	.L198
 4843              		.loc 1 846 0
 4844 0030 9FED108A 		flds	s16, .L209
 4845 0034 0546     		mov	r5, r0
ARM GAS  /tmp/ccy8OeyM.s 			page 86


 4846              		.loc 1 845 0
 4847 0036 0024     		movs	r4, #0
 4848              	.LVL463:
 4849              	.L199:
 4850              		.loc 1 846 0 discriminator 3
 4851 0038 F5EC017A 		fldmias	r5!, {s15}
 4852 003c 67EE887A 		fmuls	s15, s15, s16
 4853              		.loc 1 845 0 discriminator 3
 4854 0040 0134     		adds	r4, r4, #1
 4855              	.LVL464:
 4856              		.loc 1 846 0 discriminator 3
 4857 0042 FDEEE77A 		ftosizs	s15, s15
 4858 0046 4046     		mov	r0, r8
 4859 0048 17EE901A 		fmrs	r1, s15	@ int
 4860 004c 3A1D     		adds	r2, r7, #4
 4861 004e FFF7FEFF 		bl	buffer_append_int32
 4862              	.LVL465:
 4863              		.loc 1 845 0 discriminator 3
 4864 0052 B442     		cmp	r4, r6
 4865 0054 F0D1     		bne	.L199
 4866 0056 7968     		ldr	r1, [r7, #4]
 4867              	.LVL466:
 4868              	.L198:
 4869              	.LBE173:
 4870              	.LBB174:
 4871              	.LBB175:
 4872              		.loc 1 94 0
 4873 0058 074B     		ldr	r3, .L209+4
 4874 005a 1B68     		ldr	r3, [r3]
 4875 005c 0BB1     		cbz	r3, .L200
 4876              		.loc 1 95 0
 4877 005e 4046     		mov	r0, r8
 4878 0060 9847     		blx	r3
 4879              	.LVL467:
 4880              	.L200:
 4881              	.LBE175:
 4882              	.LBE174:
 4883              		.loc 1 850 0
 4884 0062 0C37     		adds	r7, r7, #12
 4885              		.cfi_def_cfa_offset 36
 4886 0064 CD46     		mov	sp, r9
 4887 0066 BD46     		mov	sp, r7
 4888              		.cfi_def_cfa_register 13
 4889              		@ sp needed
 4890 0068 BDEC028B 		fldmfdd	sp!, {d8}
 4891              		.cfi_restore 80
 4892              		.cfi_restore 81
 4893              		.cfi_def_cfa_offset 28
 4894 006c BDE8F083 		pop	{r4, r5, r6, r7, r8, r9, pc}
 4895              	.LVL468:
 4896              	.L208:
 4897              		.cfi_def_cfa_offset 0
 4898              		.cfi_restore 4
 4899              		.cfi_restore 5
 4900              		.cfi_restore 6
 4901              		.cfi_restore 7
 4902              		.cfi_restore 8
ARM GAS  /tmp/ccy8OeyM.s 			page 87


 4903              		.cfi_restore 9
 4904              		.cfi_restore 14
 4905 0070 7047     		bx	lr
 4906              	.L210:
 4907 0072 00BF     		.align	2
 4908              	.L209:
 4909 0074 00401C46 		.word	1176256512
 4910 0078 00000000 		.word	.LANCHOR9
 4911              		.cfi_endproc
 4912              	.LFE263:
 4913              		.size	commands_send_experiment_samples, .-commands_send_experiment_samples
 4914              		.section	.text.commands_get_disp_pos_mode,"ax",%progbits
 4915              		.align	2
 4916              		.p2align 4,,15
 4917              		.global	commands_get_disp_pos_mode
 4918              		.thumb
 4919              		.thumb_func
 4920              		.type	commands_get_disp_pos_mode, %function
 4921              	commands_get_disp_pos_mode:
 4922              	.LFB264:
 4923              		.loc 1 852 0
 4924              		.cfi_startproc
 4925              		@ args = 0, pretend = 0, frame = 0
 4926              		@ frame_needed = 0, uses_anonymous_args = 0
 4927              		@ link register save eliminated.
 4928              		.loc 1 853 0
 4929 0000 014B     		ldr	r3, .L212
 4930              		.loc 1 854 0
 4931 0002 1878     		ldrb	r0, [r3]	@ zero_extendqisi2
 4932 0004 7047     		bx	lr
 4933              	.L213:
 4934 0006 00BF     		.align	2
 4935              	.L212:
 4936 0008 00000000 		.word	.LANCHOR12
 4937              		.cfi_endproc
 4938              	.LFE264:
 4939              		.size	commands_get_disp_pos_mode, .-commands_get_disp_pos_mode
 4940              		.section	.text.commands_set_app_data_handler,"ax",%progbits
 4941              		.align	2
 4942              		.p2align 4,,15
 4943              		.global	commands_set_app_data_handler
 4944              		.thumb
 4945              		.thumb_func
 4946              		.type	commands_set_app_data_handler, %function
 4947              	commands_set_app_data_handler:
 4948              	.LFB265:
 4949              		.loc 1 856 0
 4950              		.cfi_startproc
 4951              		@ args = 0, pretend = 0, frame = 0
 4952              		@ frame_needed = 0, uses_anonymous_args = 0
 4953              		@ link register save eliminated.
 4954              	.LVL469:
 4955              		.loc 1 857 0
 4956 0000 014B     		ldr	r3, .L215
 4957 0002 1860     		str	r0, [r3]
 4958 0004 7047     		bx	lr
 4959              	.L216:
ARM GAS  /tmp/ccy8OeyM.s 			page 88


 4960 0006 00BF     		.align	2
 4961              	.L215:
 4962 0008 00000000 		.word	.LANCHOR14
 4963              		.cfi_endproc
 4964              	.LFE265:
 4965              		.size	commands_set_app_data_handler, .-commands_set_app_data_handler
 4966              		.section	.text.commands_send_app_data,"ax",%progbits
 4967              		.align	2
 4968              		.p2align 4,,15
 4969              		.global	commands_send_app_data
 4970              		.thumb
 4971              		.thumb_func
 4972              		.type	commands_send_app_data, %function
 4973              	commands_send_app_data:
 4974              	.LFB266:
 4975              		.loc 1 860 0
 4976              		.cfi_startproc
 4977              		@ args = 0, pretend = 0, frame = 0
 4978              		@ frame_needed = 0, uses_anonymous_args = 0
 4979              	.LVL470:
 4980 0000 70B5     		push	{r4, r5, r6, lr}
 4981              		.cfi_def_cfa_offset 16
 4982              		.cfi_offset 4, -16
 4983              		.cfi_offset 5, -12
 4984              		.cfi_offset 6, -8
 4985              		.cfi_offset 14, -4
 4986              		.loc 1 863 0
 4987 0002 0A4D     		ldr	r5, .L220
 4988              		.loc 1 860 0
 4989 0004 0246     		mov	r2, r0
 4990              		.loc 1 863 0
 4991 0006 2846     		mov	r0, r5
 4992              	.LVL471:
 4993              		.loc 1 860 0
 4994 0008 0C46     		mov	r4, r1
 4995              		.loc 1 863 0
 4996 000a 2323     		movs	r3, #35
 4997              		.loc 1 864 0
 4998 000c 1146     		mov	r1, r2
 4999              	.LVL472:
 5000              		.loc 1 863 0
 5001 000e 00F8013B 		strb	r3, [r0], #1
 5002              		.loc 1 864 0
 5003 0012 2246     		mov	r2, r4
 5004              	.LVL473:
 5005 0014 FFF7FEFF 		bl	memcpy
 5006              	.LVL474:
 5007              	.LBB176:
 5008              	.LBB177:
 5009              		.loc 1 94 0
 5010 0018 054B     		ldr	r3, .L220+4
 5011 001a 1B68     		ldr	r3, [r3]
 5012              	.LBE177:
 5013              	.LBE176:
 5014              		.loc 1 865 0
 5015 001c 611C     		adds	r1, r4, #1
 5016              	.LVL475:
ARM GAS  /tmp/ccy8OeyM.s 			page 89


 5017              	.LBB180:
 5018              	.LBB178:
 5019              		.loc 1 94 0
 5020 001e 1BB1     		cbz	r3, .L217
 5021              		.loc 1 95 0
 5022 0020 2846     		mov	r0, r5
 5023              	.LBE178:
 5024              	.LBE180:
 5025              		.loc 1 868 0
 5026 0022 BDE87040 		pop	{r4, r5, r6, lr}
 5027              		.cfi_remember_state
 5028              		.cfi_restore 14
 5029              		.cfi_restore 6
 5030              		.cfi_restore 5
 5031              		.cfi_restore 4
 5032              		.cfi_def_cfa_offset 0
 5033              	.LVL476:
 5034              	.LBB181:
 5035              	.LBB179:
 5036              		.loc 1 95 0
 5037 0026 1847     		bx	r3	@ indirect register sibling call
 5038              	.LVL477:
 5039              	.L217:
 5040              		.cfi_restore_state
 5041 0028 70BD     		pop	{r4, r5, r6, pc}
 5042              	.LVL478:
 5043              	.L221:
 5044 002a 00BF     		.align	2
 5045              	.L220:
 5046 002c 00000000 		.word	.LANCHOR8
 5047 0030 00000000 		.word	.LANCHOR9
 5048              	.LBE179:
 5049              	.LBE181:
 5050              		.cfi_endproc
 5051              	.LFE266:
 5052              		.size	commands_send_app_data, .-commands_send_app_data
 5053              		.section	.bss.send_func,"aw",%nobits
 5054              		.align	2
 5055              		.set	.LANCHOR9,. + 0
 5056              		.type	send_func, %object
 5057              		.size	send_func, 4
 5058              	send_func:
 5059 0000 00000000 		.space	4
 5060              		.section	.bss.detect_min_rpm,"aw",%nobits
 5061              		.align	2
 5062              		.set	.LANCHOR2,. + 0
 5063              		.type	detect_min_rpm, %object
 5064              		.size	detect_min_rpm, 4
 5065              	detect_min_rpm:
 5066 0000 00000000 		.space	4
 5067              		.section	.bss.mcconf.11290,"aw",%nobits
 5068              		.align	2
 5069              		.set	.LANCHOR11,. + 0
 5070              		.type	mcconf.11290, %object
 5071              		.size	mcconf.11290, 308
 5072              	mcconf.11290:
 5073 0000 00000000 		.space	308
ARM GAS  /tmp/ccy8OeyM.s 			page 90


 5073      00000000 
 5073      00000000 
 5073      00000000 
 5073      00000000 
 5074              		.section	.bss.detect_hall_table,"aw",%nobits
 5075              		.align	2
 5076              		.set	.LANCHOR6,. + 0
 5077              		.type	detect_hall_table, %object
 5078              		.size	detect_hall_table, 8
 5079              	detect_hall_table:
 5080 0000 00000000 		.space	8
 5080      00000000 
 5081              		.section	.bss.appdata_func,"aw",%nobits
 5082              		.align	2
 5083              		.set	.LANCHOR14,. + 0
 5084              		.type	appdata_func, %object
 5085              		.size	appdata_func, 4
 5086              	appdata_func:
 5087 0000 00000000 		.space	4
 5088              		.section	.bss.mcconf_old.11291,"aw",%nobits
 5089              		.align	2
 5090              		.set	.LANCHOR13,. + 0
 5091              		.type	mcconf_old.11291, %object
 5092              		.size	mcconf_old.11291, 308
 5093              	mcconf_old.11291:
 5094 0000 00000000 		.space	308
 5094      00000000 
 5094      00000000 
 5094      00000000 
 5094      00000000 
 5095              		.section	.bss.detect_hall_res,"aw",%nobits
 5096              		.align	2
 5097              		.set	.LANCHOR7,. + 0
 5098              		.type	detect_hall_res, %object
 5099              		.size	detect_hall_res, 4
 5100              	detect_hall_res:
 5101 0000 00000000 		.space	4
 5102              		.section	.bss.detect_thread_wa,"aw",%nobits
 5103              		.align	3
 5104              		.set	.LANCHOR10,. + 0
 5105              		.type	detect_thread_wa, %object
 5106              		.size	detect_thread_wa, 2456
 5107              	detect_thread_wa:
 5108 0000 00000000 		.space	2456
 5108      00000000 
 5108      00000000 
 5108      00000000 
 5108      00000000 
 5109              		.section	.bss.send_buffer,"aw",%nobits
 5110              		.align	2
 5111              		.set	.LANCHOR8,. + 0
 5112              		.type	send_buffer, %object
 5113              		.size	send_buffer, 1024
 5114              	send_buffer:
 5115 0000 00000000 		.space	1024
 5115      00000000 
 5115      00000000 
ARM GAS  /tmp/ccy8OeyM.s 			page 91


 5115      00000000 
 5115      00000000 
 5116              		.section	.rodata.str1.4,"aMS",%progbits,1
 5117              		.align	2
 5118              	.LC0:
 5119 0000 44657465 		.ascii	"Detect\000"
 5119      637400
 5120              		.section	.bss.detect_tp,"aw",%nobits
 5121              		.align	2
 5122              		.set	.LANCHOR0,. + 0
 5123              		.type	detect_tp, %object
 5124              		.size	detect_tp, 4
 5125              	detect_tp:
 5126 0000 00000000 		.space	4
 5127              		.section	.bss.detect_low_duty,"aw",%nobits
 5128              		.align	2
 5129              		.set	.LANCHOR3,. + 0
 5130              		.type	detect_low_duty, %object
 5131              		.size	detect_low_duty, 4
 5132              	detect_low_duty:
 5133 0000 00000000 		.space	4
 5134              		.section	.bss.detect_current,"aw",%nobits
 5135              		.align	2
 5136              		.set	.LANCHOR1,. + 0
 5137              		.type	detect_current, %object
 5138              		.size	detect_current, 4
 5139              	detect_current:
 5140 0000 00000000 		.space	4
 5141              		.section	.bss.print_buffer.11353,"aw",%nobits
 5142              		.align	2
 5143              		.set	.LANCHOR15,. + 0
 5144              		.type	print_buffer.11353, %object
 5145              		.size	print_buffer.11353, 255
 5146              	print_buffer.11353:
 5147 0000 00000000 		.space	255
 5147      00000000 
 5147      00000000 
 5147      00000000 
 5147      00000000 
 5148              		.section	.bss.detect_coupling_k,"aw",%nobits
 5149              		.align	2
 5150              		.set	.LANCHOR5,. + 0
 5151              		.type	detect_coupling_k, %object
 5152              		.size	detect_coupling_k, 4
 5153              	detect_coupling_k:
 5154 0000 00000000 		.space	4
 5155              		.section	.bss.detect_cycle_int_limit,"aw",%nobits
 5156              		.align	2
 5157              		.set	.LANCHOR4,. + 0
 5158              		.type	detect_cycle_int_limit, %object
 5159              		.size	detect_cycle_int_limit, 4
 5160              	detect_cycle_int_limit:
 5161 0000 00000000 		.space	4
 5162              		.section	.bss.display_position_mode,"aw",%nobits
 5163              		.set	.LANCHOR12,. + 0
 5164              		.type	display_position_mode, %object
 5165              		.size	display_position_mode, 1
ARM GAS  /tmp/ccy8OeyM.s 			page 92


 5166              	display_position_mode:
 5167 0000 00       		.space	1
 5168              		.text
 5169              	.Letext0:
 5170              		.file 4 "/usr/arm-none-eabi/include/machine/_default_types.h"
 5171              		.file 5 "/usr/arm-none-eabi/include/sys/_stdint.h"
 5172              		.file 6 "/usr/lib/gcc/arm-none-eabi/4.9.3/include/stddef.h"
 5173              		.file 7 "ChibiOS_3.0.2/os/rt/ports/ARMCMx/compilers/GCC/chtypes.h"
 5174              		.file 8 "ChibiOS_3.0.2/os/rt/include/chsystypes.h"
 5175              		.file 9 "ChibiOS_3.0.2/os/rt/include/chschd.h"
 5176              		.file 10 "ChibiOS_3.0.2/os/rt/ports/ARMCMx/chcore.h"
 5177              		.file 11 "ChibiOS_3.0.2/os/rt/ports/ARMCMx/chcore_v7m.h"
 5178              		.file 12 "ChibiOS_3.0.2/os/rt/include/chtm.h"
 5179              		.file 13 "ChibiOS_3.0.2/os/rt/include/chsem.h"
 5180              		.file 14 "ChibiOS_3.0.2/os/rt/include/chmtx.h"
 5181              		.file 15 "ChibiOS_3.0.2/os/rt/include/chthreads.h"
 5182              		.file 16 "datatypes.h"
 5183              		.file 17 "ChibiOS_3.0.2/ext/stdperiph_stm32f4/inc/stm32f4xx_flash.h"
 5184              		.file 18 "/usr/lib/gcc/arm-none-eabi/4.9.3/include/stdarg.h"
 5185              		.file 19 "<built-in>"
 5186              		.file 20 "ChibiOS_3.0.2/os/ext/CMSIS/include/core_cm4.h"
 5187              		.file 21 "mc_interface.h"
 5188              		.file 22 "ChibiOS_3.0.2/os/rt/include/chevents.h"
 5189              		.file 23 "conf_general.h"
 5190              		.file 24 "buffer.h"
 5191              		.file 25 "mcpwm_foc.h"
 5192              		.file 26 "mcpwm.h"
 5193              		.file 27 "timeout.h"
 5194              		.file 28 "servo_dec.h"
 5195              		.file 29 "/usr/arm-none-eabi/include/math.h"
 5196              		.file 30 "flash_helper.h"
 5197              		.file 31 "applications/app.h"
 5198              		.file 32 "comm_can.h"
 5199              		.file 33 "encoder.h"
 5200              		.file 34 "terminal.h"
 5201              		.file 35 "/usr/arm-none-eabi/include/string.h"
 5202              		.file 36 "/usr/arm-none-eabi/include/stdio.h"