ARM GAS  /tmp/ccs5rMQe.s 			page 1


   1              		.syntax unified
   2              		.cpu cortex-m4
   3              		.eabi_attribute 27, 1
   4              		.eabi_attribute 28, 1
   5              		.fpu fpv4-sp-d16
   6              		.eabi_attribute 20, 1
   7              		.eabi_attribute 21, 1
   8              		.eabi_attribute 23, 3
   9              		.eabi_attribute 24, 1
  10              		.eabi_attribute 25, 1
  11              		.eabi_attribute 26, 1
  12              		.eabi_attribute 30, 2
  13              		.eabi_attribute 34, 1
  14              		.eabi_attribute 18, 4
  15              		.thumb
  16              		.file	"comm_can.c"
  17              		.text
  18              	.Ltext0:
  19              		.cfi_sections	.debug_frame
  20              		.section	.text.cancom_process_thread,"ax",%progbits
  21              		.align	2
  22              		.p2align 4,,15
  23              		.thumb
  24              		.thumb_func
  25              		.type	cancom_process_thread, %function
  26              	cancom_process_thread:
  27              	.LFB258:
  28              		.file 1 "comm_can.c"
  29              		.loc 1 136 0
  30              		.cfi_startproc
  31              		@ args = 0, pretend = 0, frame = 32
  32              		@ frame_needed = 0, uses_anonymous_args = 0
  33              	.LVL0:
  34 0000 2DE9F04F 		push	{r4, r5, r6, r7, r8, r9, r10, fp, lr}
  35              		.cfi_def_cfa_offset 36
  36              		.cfi_offset 4, -36
  37              		.cfi_offset 5, -32
  38              		.cfi_offset 6, -28
  39              		.cfi_offset 7, -24
  40              		.cfi_offset 8, -20
  41              		.cfi_offset 9, -16
  42              		.cfi_offset 10, -12
  43              		.cfi_offset 11, -8
  44              		.cfi_offset 14, -4
  45              	.LBB65:
  46              	.LBB66:
  47              		.file 2 "ChibiOS_3.0.2/os/rt/include/chregistry.h"
  48              		.loc 2 135 0
  49 0004 DFF81883 		ldr	r8, .L41+40
  50 0008 BB4A     		ldr	r2, .L41
  51 000a D8F81830 		ldr	r3, [r8, #24]
  52              	.LBE66:
  53              	.LBE65:
  54              		.loc 1 140 0
  55 000e BB49     		ldr	r1, .L41+4
  56 0010 BB4D     		ldr	r5, .L41+8
  57 0012 DFF810B3 		ldr	fp, .L41+44
ARM GAS  /tmp/ccs5rMQe.s 			page 2


  58 0016 BB4F     		ldr	r7, .L41+12
  59 0018 DFF80C93 		ldr	r9, .L41+48
  60 001c BA4E     		ldr	r6, .L41+16
  61              		.loc 1 136 0
  62 001e 2DED048B 		fstmfdd	sp!, {d8, d9}
  63              		.cfi_def_cfa_offset 52
  64              		.cfi_offset 80, -52
  65              		.cfi_offset 81, -48
  66              		.cfi_offset 82, -44
  67              		.cfi_offset 83, -40
  68 0022 89B0     		sub	sp, sp, #36
  69              		.cfi_def_cfa_offset 88
  70              	.LBB68:
  71              	.LBB67:
  72              		.loc 2 135 0
  73 0024 9A61     		str	r2, [r3, #24]
  74              	.LBE67:
  75              	.LBE68:
  76              	.LBB69:
  77              	.LBB70:
  78              	.LBB71:
  79              		.loc 1 259 0
  80 0026 9FEDB98A 		flds	s16, .L41+20
  81              	.LBE71:
  82              		.loc 1 188 0
  83 002a 9FEDB99A 		flds	s18, .L41+24
  84              		.loc 1 164 0
  85 002e DFEDB98A 		flds	s17, .L41+28
  86              	.LBE70:
  87              	.LBE69:
  88              		.loc 1 140 0
  89 0032 0B60     		str	r3, [r1]
  90              		.loc 1 142 0
  91 0034 0022     		movs	r2, #0
  92 0036 0292     		str	r2, [sp, #8]
  93              	.LVL1:
  94              	.L3:
  95              		.loc 1 150 0
  96 0038 0120     		movs	r0, #1
  97 003a FFF7FEFF 		bl	chEvtWaitAny
  98              	.LVL2:
  99              		.loc 1 152 0
 100 003e D5F800E0 		ldr	lr, [r5]
 101 0042 DBF80030 		ldr	r3, [fp]
 102 0046 9E45     		cmp	lr, r3
 103 0048 F6D0     		beq	.L3
 104              	.L29:
 105              	.LBB90:
 106              		.loc 1 153 0
 107 004a 0EEB8E04 		add	r4, lr, lr, lsl #2
 108 004e 07EB8404 		add	r4, r7, r4, lsl #2
 109 0052 0FCC     		ldmia	r4!, {r0, r1, r2, r3}
 110 0054 0DF10C0C 		add	ip, sp, #12
 111 0058 ACE80F00 		stmia	ip!, {r0, r1, r2, r3}
 112              		.loc 1 155 0
 113 005c 9DF81020 		ldrb	r2, [sp, #16]	@ zero_extendqisi2
 114              		.loc 1 153 0
ARM GAS  /tmp/ccs5rMQe.s 			page 3


 115 0060 2368     		ldr	r3, [r4]
 116 0062 CCF80030 		str	r3, [ip]
 117              		.loc 1 155 0
 118 0066 9206     		lsls	r2, r2, #26
 119              		.loc 1 153 0
 120 0068 0EF10103 		add	r3, lr, #1
 121 006c 2B60     		str	r3, [r5]
 122              		.loc 1 155 0
 123 006e 29D5     		bpl	.L31
 124              	.LBB87:
 125              		.loc 1 156 0
 126 0070 059B     		ldr	r3, [sp, #20]
 127 0072 C3F31C03 		ubfx	r3, r3, #0, #29
 128 0076 5FFA83FA 		uxtb	r10, r3
 129              	.LVL3:
 130              		.loc 1 160 0
 131 007a BAF1FF0F 		cmp	r10, #255
 132              		.loc 1 157 0
 133 007e 4FEA2324 		asr	r4, r3, #8
 134              	.LVL4:
 135              		.loc 1 160 0
 136 0082 27D0     		beq	.L17
 137              		.loc 1 160 0 is_stmt 0 discriminator 1
 138 0084 FFF7FEFF 		bl	app_get_configuration
 139              	.LVL5:
 140 0088 0378     		ldrb	r3, [r0]	@ zero_extendqisi2
 141 008a 5345     		cmp	r3, r10
 142 008c 22D0     		beq	.L17
 143 008e E3B2     		uxtb	r3, r4
 144              	.L6:
 145              		.loc 1 249 0 is_stmt 1
 146 0090 092B     		cmp	r3, #9
 147 0092 0DD1     		bne	.L19
 148 0094 0023     		movs	r3, #0
 149 0096 1C46     		mov	r4, r3
 150              	.LVL6:
 151              	.L27:
 152              	.LBB85:
 153              		.loc 1 253 0
 154 0098 F158     		ldr	r1, [r6, r3]
 155 009a 8A45     		cmp	r10, r1
 156 009c 03F11403 		add	r3, r3, #20
 157 00a0 00F0DB80 		beq	.L26
 158              		.loc 1 253 0 is_stmt 0 discriminator 1
 159 00a4 0131     		adds	r1, r1, #1
 160 00a6 00F0D880 		beq	.L26
 161              		.loc 1 251 0 is_stmt 1 discriminator 2
 162 00aa 0134     		adds	r4, r4, #1
 163              	.LVL7:
 164 00ac 0A2C     		cmp	r4, #10
 165 00ae F3D1     		bne	.L27
 166              	.LVL8:
 167              	.L19:
 168 00b0 D5F800E0 		ldr	lr, [r5]
 169              	.L4:
 170              	.LBE85:
 171              	.LBE87:
ARM GAS  /tmp/ccs5rMQe.s 			page 4


 172              		.loc 1 270 0
 173 00b4 BEF1640F 		cmp	lr, #100
 174 00b8 08D0     		beq	.L40
 175              	.L28:
 176              	.LBE90:
 177              		.loc 1 152 0
 178 00ba DBF80030 		ldr	r3, [fp]
 179 00be 7345     		cmp	r3, lr
 180 00c0 C3D1     		bne	.L29
 181 00c2 B9E7     		b	.L3
 182              	.L31:
 183              	.LBB91:
 184              	.LBB88:
 185 00c4 9E46     		mov	lr, r3
 186              	.LBE88:
 187              		.loc 1 270 0
 188 00c6 BEF1640F 		cmp	lr, #100
 189 00ca F6D1     		bne	.L28
 190              	.L40:
 191              		.loc 1 271 0
 192 00cc 0023     		movs	r3, #0
 193 00ce 2B60     		str	r3, [r5]
 194 00d0 9E46     		mov	lr, r3
 195 00d2 F2E7     		b	.L28
 196              	.LVL9:
 197              	.L17:
 198              	.LBB89:
 199              		.loc 1 161 0
 200 00d4 E3B2     		uxtb	r3, r4
 201 00d6 082B     		cmp	r3, #8
 202 00d8 DAD8     		bhi	.L6
 203 00da DFE803F0 		tbb	[pc, r3]
 204              	.L8:
 205 00de 7C       		.byte	(.L7-.L8)/2
 206 00df 6B       		.byte	(.L9-.L8)/2
 207 00e0 9C       		.byte	(.L10-.L8)/2
 208 00e1 8D       		.byte	(.L11-.L8)/2
 209 00e2 AD       		.byte	(.L12-.L8)/2
 210 00e3 5D       		.byte	(.L13-.L8)/2
 211 00e4 48       		.byte	(.L14-.L8)/2
 212 00e5 1A       		.byte	(.L15-.L8)/2
 213 00e6 05       		.byte	(.L16-.L8)/2
 214 00e7 00       		.p2align 1
 215              	.L16:
 216              		.loc 1 233 0
 217 00e8 9DF81820 		ldrb	r2, [sp, #24]	@ zero_extendqisi2
 218              		.loc 1 236 0
 219 00ec 9DF81930 		ldrb	r3, [sp, #25]	@ zero_extendqisi2
 220              		.loc 1 233 0
 221 00f0 C9F80020 		str	r2, [r9]
 222              		.loc 1 234 0
 223 00f4 0222     		movs	r2, #2
 224 00f6 0292     		str	r2, [sp, #8]
 225              	.LVL10:
 226              		.loc 1 236 0
 227 00f8 002B     		cmp	r3, #0
 228 00fa 00F0E580 		beq	.L22
ARM GAS  /tmp/ccs5rMQe.s 			page 5


 229              		.loc 1 237 0
 230 00fe 9DF81010 		ldrb	r1, [sp, #16]	@ zero_extendqisi2
 231 0102 01F00F01 		and	r1, r1, #15
 232 0106 0239     		subs	r1, r1, #2
 233 0108 0DF11A00 		add	r0, sp, #26
 234 010c FFF7FEFF 		bl	commands_send_packet
 235              	.LVL11:
 236 0110 CEE7     		b	.L19
 237              	.L15:
 238              		.loc 1 209 0
 239 0112 9DF81B30 		ldrb	r3, [sp, #27]	@ zero_extendqisi2
 240              		.loc 1 208 0
 241 0116 9DF81A40 		ldrb	r4, [sp, #26]	@ zero_extendqisi2
 242              	.LVL12:
 243              		.loc 1 206 0
 244 011a 9DF81820 		ldrb	r2, [sp, #24]	@ zero_extendqisi2
 245 011e C9F80020 		str	r2, [r9]
 246              		.loc 1 209 0
 247 0122 43EA0424 		orr	r4, r3, r4, lsl #8
 248              		.loc 1 211 0
 249 0126 B4F5806F 		cmp	r4, #1024
 250              		.loc 1 209 0
 251 012a 4FF00403 		mov	r3, #4
 252 012e 0293     		str	r3, [sp, #8]
 253              		.loc 1 207 0
 254 0130 9DF819A0 		ldrb	r10, [sp, #25]	@ zero_extendqisi2
 255              	.LVL13:
 256              		.loc 1 211 0
 257 0134 BCD8     		bhi	.L19
 258              		.loc 1 216 0
 259 0136 0623     		movs	r3, #6
 260              		.loc 1 215 0
 261 0138 9DF81CC0 		ldrb	ip, [sp, #28]	@ zero_extendqisi2
 262              		.loc 1 216 0
 263 013c 0293     		str	r3, [sp, #8]
 264              		.loc 1 218 0
 265 013e 7648     		ldr	r0, .L41+32
 266              		.loc 1 216 0
 267 0140 9DF81D30 		ldrb	r3, [sp, #29]	@ zero_extendqisi2
 268              		.loc 1 215 0
 269 0144 CDF804C0 		str	ip, [sp, #4]
 270              	.LVL14:
 271              		.loc 1 218 0
 272 0148 2146     		mov	r1, r4
 273              		.loc 1 216 0
 274 014a 0093     		str	r3, [sp]
 275              	.LVL15:
 276              		.loc 1 218 0
 277 014c FFF7FEFF 		bl	crc16
 278              	.LVL16:
 279              		.loc 1 220 0
 280 0150 9DE80810 		ldmia	sp, {r3, ip}
 281 0154 43EA0C23 		orr	r3, r3, ip, lsl #8
 282              		.loc 1 218 0
 283 0158 9842     		cmp	r0, r3
 284 015a A9D1     		bne	.L19
 285              		.loc 1 222 0
ARM GAS  /tmp/ccs5rMQe.s 			page 6


 286 015c BAF1000F 		cmp	r10, #0
 287 0160 00F0C180 		beq	.L21
 288              		.loc 1 223 0
 289 0164 2146     		mov	r1, r4
 290 0166 6C48     		ldr	r0, .L41+32
 291 0168 FFF7FEFF 		bl	commands_send_packet
 292              	.LVL17:
 293 016c A0E7     		b	.L19
 294              	.LVL18:
 295              	.L14:
 296              		.loc 1 197 0
 297 016e 9DF81800 		ldrb	r0, [sp, #24]	@ zero_extendqisi2
 298              	.LVL19:
 299              		.loc 1 198 0
 300 0172 9DF81930 		ldrb	r3, [sp, #25]	@ zero_extendqisi2
 301 0176 43EA0020 		orr	r0, r3, r0, lsl #8
 302              	.LVL20:
 303              		.loc 1 199 0
 304 017a B0F5806F 		cmp	r0, #1024
 305 017e 97D2     		bcs	.L19
 306              		.loc 1 200 0
 307 0180 9DF81020 		ldrb	r2, [sp, #16]	@ zero_extendqisi2
 308 0184 644B     		ldr	r3, .L41+32
 309 0186 02F00F02 		and	r2, r2, #15
 310 018a 1844     		add	r0, r0, r3
 311              	.LVL21:
 312 018c 023A     		subs	r2, r2, #2
 313 018e 0DF11A01 		add	r1, sp, #26
 314 0192 FFF7FEFF 		bl	memcpy
 315              	.LVL22:
 316 0196 8BE7     		b	.L19
 317              	.L13:
 318              		.loc 1 193 0
 319 0198 9DF81020 		ldrb	r2, [sp, #16]	@ zero_extendqisi2
 320 019c 9DF81800 		ldrb	r0, [sp, #24]	@ zero_extendqisi2
 321 01a0 5D4B     		ldr	r3, .L41+32
 322 01a2 02F00F02 		and	r2, r2, #15
 323 01a6 013A     		subs	r2, r2, #1
 324 01a8 1844     		add	r0, r0, r3
 325 01aa 0DF11901 		add	r1, sp, #25
 326 01ae FFF7FEFF 		bl	memcpy
 327              	.LVL23:
 328              		.loc 1 194 0
 329 01b2 7DE7     		b	.L19
 330              	.L9:
 331              		.loc 1 169 0
 332 01b4 0023     		movs	r3, #0
 333              		.loc 1 170 0
 334 01b6 02A9     		add	r1, sp, #8
 335 01b8 06A8     		add	r0, sp, #24
 336              		.loc 1 169 0
 337 01ba 0293     		str	r3, [sp, #8]
 338              		.loc 1 170 0
 339 01bc FFF7FEFF 		bl	buffer_get_int32
 340              	.LVL24:
 341 01c0 07EE900A 		fmsr	s15, r0	@ int
 342 01c4 B8EEE70A 		fsitos	s0, s15
ARM GAS  /tmp/ccs5rMQe.s 			page 7


 343 01c8 80EE080A 		fdivs	s0, s0, s16
 344 01cc FFF7FEFF 		bl	mc_interface_set_current
 345              	.LVL25:
 346              		.loc 1 171 0
 347 01d0 FFF7FEFF 		bl	timeout_reset
 348              	.LVL26:
 349              		.loc 1 172 0
 350 01d4 6CE7     		b	.L19
 351              	.L7:
 352              		.loc 1 163 0
 353 01d6 0023     		movs	r3, #0
 354              		.loc 1 164 0
 355 01d8 02A9     		add	r1, sp, #8
 356 01da 06A8     		add	r0, sp, #24
 357              		.loc 1 163 0
 358 01dc 0293     		str	r3, [sp, #8]
 359              		.loc 1 164 0
 360 01de FFF7FEFF 		bl	buffer_get_int32
 361              	.LVL27:
 362 01e2 07EE900A 		fmsr	s15, r0	@ int
 363 01e6 B8EEE70A 		fsitos	s0, s15
 364 01ea 80EE280A 		fdivs	s0, s0, s17
 365 01ee FFF7FEFF 		bl	mc_interface_set_duty
 366              	.LVL28:
 367              		.loc 1 165 0
 368 01f2 FFF7FEFF 		bl	timeout_reset
 369              	.LVL29:
 370              		.loc 1 166 0
 371 01f6 5BE7     		b	.L19
 372              	.L11:
 373              		.loc 1 181 0
 374 01f8 0023     		movs	r3, #0
 375              		.loc 1 182 0
 376 01fa 02A9     		add	r1, sp, #8
 377 01fc 06A8     		add	r0, sp, #24
 378              		.loc 1 181 0
 379 01fe 0293     		str	r3, [sp, #8]
 380              		.loc 1 182 0
 381 0200 FFF7FEFF 		bl	buffer_get_int32
 382              	.LVL30:
 383 0204 07EE900A 		fmsr	s15, r0	@ int
 384 0208 B8EEE70A 		fsitos	s0, s15
 385 020c FFF7FEFF 		bl	mc_interface_set_pid_speed
 386              	.LVL31:
 387              		.loc 1 183 0
 388 0210 FFF7FEFF 		bl	timeout_reset
 389              	.LVL32:
 390              		.loc 1 184 0
 391 0214 4CE7     		b	.L19
 392              	.L10:
 393              		.loc 1 175 0
 394 0216 0023     		movs	r3, #0
 395              		.loc 1 176 0
 396 0218 02A9     		add	r1, sp, #8
 397 021a 06A8     		add	r0, sp, #24
 398              		.loc 1 175 0
 399 021c 0293     		str	r3, [sp, #8]
ARM GAS  /tmp/ccs5rMQe.s 			page 8


 400              		.loc 1 176 0
 401 021e FFF7FEFF 		bl	buffer_get_int32
 402              	.LVL33:
 403 0222 07EE900A 		fmsr	s15, r0	@ int
 404 0226 B8EEE70A 		fsitos	s0, s15
 405 022a 80EE080A 		fdivs	s0, s0, s16
 406 022e FFF7FEFF 		bl	mc_interface_set_brake_current
 407              	.LVL34:
 408              		.loc 1 177 0
 409 0232 FFF7FEFF 		bl	timeout_reset
 410              	.LVL35:
 411              		.loc 1 178 0
 412 0236 3BE7     		b	.L19
 413              	.L12:
 414              		.loc 1 187 0
 415 0238 0023     		movs	r3, #0
 416              		.loc 1 188 0
 417 023a 02A9     		add	r1, sp, #8
 418 023c 06A8     		add	r0, sp, #24
 419              		.loc 1 187 0
 420 023e 0293     		str	r3, [sp, #8]
 421              		.loc 1 188 0
 422 0240 FFF7FEFF 		bl	buffer_get_int32
 423              	.LVL36:
 424 0244 07EE900A 		fmsr	s15, r0	@ int
 425 0248 B8EEE70A 		fsitos	s0, s15
 426 024c 80EE090A 		fdivs	s0, s0, s18
 427 0250 FFF7FEFF 		bl	mc_interface_set_pid_pos
 428              	.LVL37:
 429              		.loc 1 189 0
 430 0254 FFF7FEFF 		bl	timeout_reset
 431              	.LVL38:
 432              		.loc 1 190 0
 433 0258 2AE7     		b	.L19
 434              	.LVL39:
 435              	.L26:
 436              	.LBB86:
 437              		.loc 1 255 0
 438 025a 04EB8404 		add	r4, r4, r4, lsl #2
 439              	.LVL40:
 440              		.loc 1 254 0
 441 025e 0023     		movs	r3, #0
 442              		.loc 1 255 0
 443 0260 46F824A0 		str	r10, [r6, r4, lsl #2]
 444              	.LVL41:
 445              		.loc 1 254 0
 446 0264 0293     		str	r3, [sp, #8]
 447              		.loc 1 255 0
 448 0266 06EB8404 		add	r4, r6, r4, lsl #2
 449              	.LBB72:
 450              	.LBB73:
 451              	.LBB74:
 452              	.LBB75:
 453              	.LBB76:
 454              	.LBB77:
 455              		.file 3 "ChibiOS_3.0.2/os/ext/CMSIS/include/core_cmFunc.h"
 456              		.loc 3 546 0
ARM GAS  /tmp/ccs5rMQe.s 			page 9


 457 026a 2022     		movs	r2, #32
 458              	@ 546 "ChibiOS_3.0.2/os/ext/CMSIS/include/core_cmFunc.h" 1
 459 026c 82F31188 		MSR basepri, r2
 460              	@ 0 "" 2
 461              		.thumb
 462              	.LBE77:
 463              	.LBE76:
 464              	.LBE75:
 465              	.LBE74:
 466              	.LBB78:
 467              	.LBB79:
 468              		.file 4 "ChibiOS_3.0.2/os/rt/include/chvt.h"
 469              		.loc 4 231 0
 470 0270 D8F82820 		ldr	r2, [r8, #40]
 471              	.LVL42:
 472              	.LBE79:
 473              	.LBE78:
 474              	.LBB80:
 475              	.LBB81:
 476              	.LBB82:
 477              	.LBB83:
 478              	.LBB84:
 479              		.loc 3 546 0
 480              	@ 546 "ChibiOS_3.0.2/os/ext/CMSIS/include/core_cmFunc.h" 1
 481 0274 83F31188 		MSR basepri, r3
 482              	@ 0 "" 2
 483              		.thumb
 484              	.LBE84:
 485              	.LBE83:
 486              	.LBE82:
 487              	.LBE81:
 488              	.LBE80:
 489              	.LBE73:
 490              	.LBE72:
 491              		.loc 1 256 0
 492 0278 6260     		str	r2, [r4, #4]
 493              		.loc 1 257 0
 494 027a 02A9     		add	r1, sp, #8
 495 027c 06A8     		add	r0, sp, #24
 496 027e FFF7FEFF 		bl	buffer_get_int32
 497              	.LVL43:
 498 0282 07EE900A 		fmsr	s15, r0	@ int
 499 0286 F8EEE77A 		fsitos	s15, s15
 500              		.loc 1 258 0
 501 028a 02A9     		add	r1, sp, #8
 502              		.loc 1 257 0
 503 028c C4ED027A 		fsts	s15, [r4, #8]
 504              		.loc 1 258 0
 505 0290 06A8     		add	r0, sp, #24
 506 0292 FFF7FEFF 		bl	buffer_get_int16
 507              	.LVL44:
 508 0296 07EE900A 		fmsr	s15, r0	@ int
 509 029a F8EEE77A 		fsitos	s15, s15
 510 029e B2EE047A 		fconsts	s14, #36
 511 02a2 C7EE877A 		fdivs	s15, s15, s14
 512              		.loc 1 259 0
 513 02a6 06A8     		add	r0, sp, #24
ARM GAS  /tmp/ccs5rMQe.s 			page 10


 514 02a8 02A9     		add	r1, sp, #8
 515              		.loc 1 258 0
 516 02aa C4ED037A 		fsts	s15, [r4, #12]
 517              		.loc 1 259 0
 518 02ae FFF7FEFF 		bl	buffer_get_int16
 519              	.LVL45:
 520 02b2 07EE900A 		fmsr	s15, r0	@ int
 521 02b6 F8EEE77A 		fsitos	s15, s15
 522 02ba D5F800E0 		ldr	lr, [r5]
 523 02be C7EE887A 		fdivs	s15, s15, s16
 524 02c2 C4ED047A 		fsts	s15, [r4, #16]
 525              		.loc 1 260 0
 526 02c6 F5E6     		b	.L4
 527              	.LVL46:
 528              	.L22:
 529              	.LBE86:
 530              		.loc 1 239 0
 531 02c8 1448     		ldr	r0, .L41+36
 532 02ca FFF7FEFF 		bl	commands_set_send_func
 533              	.LVL47:
 534              		.loc 1 240 0
 535 02ce 0299     		ldr	r1, [sp, #8]
 536 02d0 9DF81030 		ldrb	r3, [sp, #16]	@ zero_extendqisi2
 537 02d4 03AA     		add	r2, sp, #12
 538 02d6 5018     		adds	r0, r2, r1
 539 02d8 03F00F03 		and	r3, r3, #15
 540 02dc 0C30     		adds	r0, r0, #12
 541 02de 591A     		subs	r1, r3, r1
 542 02e0 FFF7FEFF 		bl	commands_process_packet
 543              	.LVL48:
 544 02e4 E4E6     		b	.L19
 545              	.LVL49:
 546              	.L21:
 547              		.loc 1 225 0
 548 02e6 0D48     		ldr	r0, .L41+36
 549 02e8 FFF7FEFF 		bl	commands_set_send_func
 550              	.LVL50:
 551              		.loc 1 226 0
 552 02ec 2146     		mov	r1, r4
 553 02ee 0A48     		ldr	r0, .L41+32
 554 02f0 FFF7FEFF 		bl	commands_process_packet
 555              	.LVL51:
 556 02f4 DCE6     		b	.L19
 557              	.L42:
 558 02f6 00BF     		.align	2
 559              	.L41:
 560 02f8 00000000 		.word	.LC0
 561 02fc 00000000 		.word	.LANCHOR0
 562 0300 00000000 		.word	.LANCHOR1
 563 0304 00000000 		.word	.LANCHOR3
 564 0308 00000000 		.word	.LANCHOR6
 565 030c 00007A44 		.word	1148846080
 566 0310 00247449 		.word	1232348160
 567 0314 0050C347 		.word	1203982336
 568 0318 00000000 		.word	.LANCHOR4
 569 031c 00000000 		.word	send_packet_wrapper
 570 0320 00000000 		.word	ch
ARM GAS  /tmp/ccs5rMQe.s 			page 11


 571 0324 00000000 		.word	.LANCHOR2
 572 0328 00000000 		.word	.LANCHOR5
 573              	.LBE89:
 574              	.LBE91:
 575              		.cfi_endproc
 576              	.LFE258:
 577              		.size	cancom_process_thread, .-cancom_process_thread
 578              		.section	.text.cancom_read_thread,"ax",%progbits
 579              		.align	2
 580              		.p2align 4,,15
 581              		.thumb
 582              		.thumb_func
 583              		.type	cancom_read_thread, %function
 584              	cancom_read_thread:
 585              	.LFB257:
 586              		.loc 1 105 0
 587              		.cfi_startproc
 588              		@ args = 0, pretend = 0, frame = 40
 589              		@ frame_needed = 0, uses_anonymous_args = 0
 590              	.LVL52:
 591 0000 2DE9F043 		push	{r4, r5, r6, r7, r8, r9, lr}
 592              		.cfi_def_cfa_offset 28
 593              		.cfi_offset 4, -28
 594              		.cfi_offset 5, -24
 595              		.cfi_offset 6, -20
 596              		.cfi_offset 7, -16
 597              		.cfi_offset 8, -12
 598              		.cfi_offset 9, -8
 599              		.cfi_offset 14, -4
 600              	.LBB92:
 601              	.LBB93:
 602              		.loc 2 135 0
 603 0004 DFF8B880 		ldr	r8, .L57+20
 604 0008 284A     		ldr	r2, .L57
 605 000a D8F81830 		ldr	r3, [r8, #24]
 606              	.LBE93:
 607              	.LBE92:
 608              	.LBB95:
 609              	.LBB96:
 610              	.LBB97:
 611              		.file 5 "ChibiOS_3.0.2/os/rt/include/chevents.h"
 612              		.loc 5 193 0
 613 000e 2848     		ldr	r0, .L57+4
 614              	.LVL53:
 615              	.LBE97:
 616              	.LBE96:
 617              	.LBE95:
 618              	.LBB100:
 619              	.LBB94:
 620              		.loc 2 135 0
 621 0010 9A61     		str	r2, [r3, #24]
 622              	.LVL54:
 623              	.LBE94:
 624              	.LBE100:
 625              		.loc 1 105 0
 626 0012 8BB0     		sub	sp, sp, #44
 627              		.cfi_def_cfa_offset 72
ARM GAS  /tmp/ccs5rMQe.s 			page 12


 628              	.LVL55:
 629              	.LBB101:
 630              	.LBB99:
 631              	.LBB98:
 632              		.loc 5 193 0
 633 0014 6946     		mov	r1, sp
 634 0016 0122     		movs	r2, #1
 635 0018 4FF0FF33 		mov	r3, #-1
 636 001c FFF7FEFF 		bl	chEvtRegisterMaskWithFlags
 637              	.LVL56:
 638 0020 DFF8A090 		ldr	r9, .L57+24
 639              	.L45:
 640              	.LBE98:
 641              	.LBE99:
 642              	.LBE101:
 643              	.LBB102:
 644              	.LBB103:
 645              		.file 6 "ChibiOS_3.0.2/os/rt/include/chthreads.h"
 646              		.loc 6 233 0
 647 0024 D8F81830 		ldr	r3, [r8, #24]
 648 0028 5B7F     		ldrb	r3, [r3, #29]	@ zero_extendqisi2
 649 002a 03F00403 		and	r3, r3, #4
 650              	.LBE103:
 651              	.LBE102:
 652              		.loc 1 114 0
 653 002e 03F0FF04 		and	r4, r3, #255
 654 0032 002B     		cmp	r3, #0
 655 0034 33D1     		bne	.L56
 656              	.LBB104:
 657              		.loc 1 115 0
 658 0036 4FF0FF30 		mov	r0, #-1
 659 003a 6421     		movs	r1, #100
 660 003c FFF7FEFF 		bl	chEvtWaitAnyTimeout
 661              	.LVL57:
 662 0040 0028     		cmp	r0, #0
 663 0042 EFD0     		beq	.L45
 664              		.loc 1 119 0
 665 0044 05AA     		add	r2, sp, #20
 666 0046 1B48     		ldr	r0, .L57+8
 667 0048 2146     		mov	r1, r4
 668 004a 2346     		mov	r3, r4
 669 004c FFF7FEFF 		bl	canReceive
 670              	.LVL58:
 671              		.loc 1 121 0
 672 0050 0028     		cmp	r0, #0
 673 0052 E7D1     		bne	.L45
 674 0054 184F     		ldr	r7, .L57+12
 675 0056 194E     		ldr	r6, .L57+16
 676              	.L46:
 677              	.LVL59:
 678              		.loc 1 122 0
 679 0058 D9F80050 		ldr	r5, [r9]
 680 005c 05AC     		add	r4, sp, #20
 681 005e 0FCC     		ldmia	r4!, {r0, r1, r2, r3}
 682 0060 D4F800E0 		ldr	lr, [r4]
 683 0064 05EB8504 		add	r4, r5, r5, lsl #2
 684 0068 07EB8404 		add	r4, r7, r4, lsl #2
ARM GAS  /tmp/ccs5rMQe.s 			page 13


 685 006c 0FC4     		stmia	r4!, {r0, r1, r2, r3}
 686              		.loc 1 127 0
 687 006e 0121     		movs	r1, #1
 688              		.loc 1 122 0
 689 0070 0D44     		add	r5, r5, r1
 690              		.loc 1 123 0
 691 0072 642D     		cmp	r5, #100
 692              		.loc 1 124 0
 693 0074 08BF     		it	eq
 694 0076 0023     		moveq	r3, #0
 695              		.loc 1 127 0
 696 0078 3068     		ldr	r0, [r6]
 697              		.loc 1 122 0
 698 007a C9F80050 		str	r5, [r9]
 699 007e C4F800E0 		str	lr, [r4]
 700              		.loc 1 124 0
 701 0082 08BF     		it	eq
 702 0084 C9F80030 		streq	r3, [r9]
 703              		.loc 1 127 0
 704 0088 FFF7FEFF 		bl	chEvtSignal
 705              	.LVL60:
 706              		.loc 1 129 0
 707 008c 0021     		movs	r1, #0
 708 008e 0B46     		mov	r3, r1
 709 0090 0848     		ldr	r0, .L57+8
 710 0092 05AA     		add	r2, sp, #20
 711 0094 FFF7FEFF 		bl	canReceive
 712              	.LVL61:
 713              		.loc 1 121 0
 714 0098 0028     		cmp	r0, #0
 715 009a DDD0     		beq	.L46
 716 009c C2E7     		b	.L45
 717              	.LVL62:
 718              	.L56:
 719              	.LBE104:
 720              		.loc 1 133 0
 721 009e 6946     		mov	r1, sp
 722 00a0 0348     		ldr	r0, .L57+4
 723              	.LVL63:
 724 00a2 FFF7FEFF 		bl	chEvtUnregister
 725              	.LVL64:
 726              		.loc 1 134 0
 727 00a6 0BB0     		add	sp, sp, #44
 728              		.cfi_def_cfa_offset 28
 729              	.LVL65:
 730              		@ sp needed
 731 00a8 BDE8F083 		pop	{r4, r5, r6, r7, r8, r9, pc}
 732              	.LVL66:
 733              	.L58:
 734              		.align	2
 735              	.L57:
 736 00ac 10000000 		.word	.LC1
 737 00b0 18000000 		.word	CAND1+24
 738 00b4 00000000 		.word	CAND1
 739 00b8 00000000 		.word	.LANCHOR3
 740 00bc 00000000 		.word	.LANCHOR0
 741 00c0 00000000 		.word	ch
ARM GAS  /tmp/ccs5rMQe.s 			page 14


 742 00c4 00000000 		.word	.LANCHOR2
 743              		.cfi_endproc
 744              	.LFE257:
 745              		.size	cancom_read_thread, .-cancom_read_thread
 746              		.section	.text.comm_can_init,"ax",%progbits
 747              		.align	2
 748              		.p2align 4,,15
 749              		.global	comm_can_init
 750              		.thumb
 751              		.thumb_func
 752              		.type	comm_can_init, %function
 753              	comm_can_init:
 754              	.LFB256:
 755              		.loc 1 76 0
 756              		.cfi_startproc
 757              		@ args = 0, pretend = 0, frame = 0
 758              		@ frame_needed = 0, uses_anonymous_args = 0
 759              	.LVL67:
 760 0000 1E49     		ldr	r1, .L63
 761 0002 0023     		movs	r3, #0
 762              	.LBB105:
 763              		.loc 1 78 0
 764 0004 4FF0FF32 		mov	r2, #-1
 765              	.LVL68:
 766              	.L60:
 767              		.loc 1 78 0 is_stmt 0 discriminator 3
 768 0008 CA50     		str	r2, [r1, r3]
 769 000a 1433     		adds	r3, r3, #20
 770              		.loc 1 77 0 is_stmt 1 discriminator 3
 771 000c C82B     		cmp	r3, #200
 772 000e FBD1     		bne	.L60
 773              	.LBE105:
 774              		.loc 1 76 0
 775 0010 10B5     		push	{r4, lr}
 776              		.cfi_def_cfa_offset 8
 777              		.cfi_offset 4, -8
 778              		.cfi_offset 14, -4
 779              		.loc 1 82 0
 780 0012 1B4B     		ldr	r3, .L63+4
 781              		.loc 1 81 0
 782 0014 1B4A     		ldr	r2, .L63+8
 783              		.loc 1 84 0
 784 0016 1C48     		ldr	r0, .L63+12
 785              		.loc 1 76 0
 786 0018 82B0     		sub	sp, sp, #8
 787              		.cfi_def_cfa_offset 16
 788              		.loc 1 81 0
 789 001a 0024     		movs	r4, #0
 790              		.loc 1 82 0
 791 001c 1C60     		str	r4, [r3]
 792              		.loc 1 81 0
 793 001e 1460     		str	r4, [r2]
 794              		.loc 1 84 0
 795 0020 FFF7FEFF 		bl	chMtxObjectInit
 796              	.LVL69:
 797              		.loc 1 86 0
 798 0024 1948     		ldr	r0, .L63+16
ARM GAS  /tmp/ccs5rMQe.s 			page 15


 799 0026 4FF48071 		mov	r1, #256
 800 002a 40F28A42 		movw	r2, #1162
 801 002e FFF7FEFF 		bl	_pal_lld_setgroupmode
 802              	.LVL70:
 803              		.loc 1 90 0
 804 0032 40F28A42 		movw	r2, #1162
 805 0036 1548     		ldr	r0, .L63+16
 806 0038 4FF40071 		mov	r1, #512
 807 003c FFF7FEFF 		bl	_pal_lld_setgroupmode
 808              	.LVL71:
 809              		.loc 1 95 0
 810 0040 1348     		ldr	r0, .L63+20
 811 0042 1449     		ldr	r1, .L63+24
 812 0044 FFF7FEFF 		bl	canStart
 813              	.LVL72:
 814              		.loc 1 97 0
 815 0048 0094     		str	r4, [sp]
 816 004a 134B     		ldr	r3, .L63+28
 817 004c 1348     		ldr	r0, .L63+32
 818 004e 4FF46671 		mov	r1, #920
 819 0052 4122     		movs	r2, #65
 820 0054 FFF7FEFF 		bl	chThdCreateStatic
 821              	.LVL73:
 822              		.loc 1 99 0
 823 0058 0094     		str	r4, [sp]
 824 005a 114B     		ldr	r3, .L63+36
 825 005c 1148     		ldr	r0, .L63+40
 826 005e 4FF4B361 		mov	r1, #1432
 827 0062 4022     		movs	r2, #64
 828 0064 FFF7FEFF 		bl	chThdCreateStatic
 829              	.LVL74:
 830              		.loc 1 101 0
 831 0068 0094     		str	r4, [sp]
 832 006a 0F4B     		ldr	r3, .L63+44
 833 006c 0F48     		ldr	r0, .L63+48
 834 006e 41F29811 		movw	r1, #4504
 835 0072 4022     		movs	r2, #64
 836 0074 FFF7FEFF 		bl	chThdCreateStatic
 837              	.LVL75:
 838              		.loc 1 103 0
 839 0078 02B0     		add	sp, sp, #8
 840              		.cfi_def_cfa_offset 8
 841              		@ sp needed
 842 007a 10BD     		pop	{r4, pc}
 843              	.L64:
 844              		.align	2
 845              	.L63:
 846 007c 00000000 		.word	.LANCHOR6
 847 0080 00000000 		.word	.LANCHOR2
 848 0084 00000000 		.word	.LANCHOR1
 849 0088 00000000 		.word	.LANCHOR7
 850 008c 00040240 		.word	1073873920
 851 0090 00000000 		.word	CAND1
 852 0094 00000000 		.word	.LANCHOR8
 853 0098 00000000 		.word	cancom_read_thread
 854 009c 00000000 		.word	.LANCHOR9
 855 00a0 00000000 		.word	cancom_status_thread
ARM GAS  /tmp/ccs5rMQe.s 			page 16


 856 00a4 00000000 		.word	.LANCHOR10
 857 00a8 00000000 		.word	cancom_process_thread
 858 00ac 00000000 		.word	.LANCHOR11
 859              		.cfi_endproc
 860              	.LFE256:
 861              		.size	comm_can_init, .-comm_can_init
 862              		.section	.text.comm_can_transmit,"ax",%progbits
 863              		.align	2
 864              		.p2align 4,,15
 865              		.global	comm_can_transmit
 866              		.thumb
 867              		.thumb_func
 868              		.type	comm_can_transmit, %function
 869              	comm_can_transmit:
 870              	.LFB260:
 871              		.loc 1 301 0
 872              		.cfi_startproc
 873              		@ args = 0, pretend = 0, frame = 16
 874              		@ frame_needed = 0, uses_anonymous_args = 0
 875              	.LVL76:
 876 0000 70B5     		push	{r4, r5, r6, lr}
 877              		.cfi_def_cfa_offset 16
 878              		.cfi_offset 4, -16
 879              		.cfi_offset 5, -12
 880              		.cfi_offset 6, -8
 881              		.cfi_offset 14, -4
 882 0002 84B0     		sub	sp, sp, #16
 883              		.cfi_def_cfa_offset 32
 884              		.loc 1 307 0
 885 0004 04AC     		add	r4, sp, #16
 886              		.loc 1 304 0
 887 0006 9DF80030 		ldrb	r3, [sp]	@ zero_extendqisi2
 888              		.loc 1 305 0
 889 000a 019E     		ldr	r6, [sp, #4]
 890              		.loc 1 310 0
 891 000c 0E4D     		ldr	r5, .L67
 892              		.loc 1 306 0
 893 000e 43F02003 		orr	r3, r3, #32
 894              		.loc 1 307 0
 895 0012 03F0EF03 		and	r3, r3, #239
 896 0016 62F30303 		bfi	r3, r2, #0, #4
 897 001a 04F8103D 		strb	r3, [r4, #-16]!
 898              		.loc 1 305 0
 899 001e 60F31C06 		bfi	r6, r0, #0, #29
 900              		.loc 1 308 0
 901 0022 02A8     		add	r0, sp, #8
 902              	.LVL77:
 903              		.loc 1 305 0
 904 0024 0196     		str	r6, [sp, #4]
 905              		.loc 1 308 0
 906 0026 FFF7FEFF 		bl	memcpy
 907              	.LVL78:
 908              		.loc 1 310 0
 909 002a 2846     		mov	r0, r5
 910 002c FFF7FEFF 		bl	chMtxLock
 911              	.LVL79:
 912              		.loc 1 311 0
ARM GAS  /tmp/ccs5rMQe.s 			page 17


 913 0030 2246     		mov	r2, r4
 914 0032 0021     		movs	r1, #0
 915 0034 C823     		movs	r3, #200
 916 0036 0548     		ldr	r0, .L67+4
 917 0038 FFF7FEFF 		bl	canTransmit
 918              	.LVL80:
 919              		.loc 1 312 0
 920 003c 2846     		mov	r0, r5
 921 003e FFF7FEFF 		bl	chMtxUnlock
 922              	.LVL81:
 923              		.loc 1 319 0
 924 0042 04B0     		add	sp, sp, #16
 925              		.cfi_def_cfa_offset 16
 926              		@ sp needed
 927 0044 70BD     		pop	{r4, r5, r6, pc}
 928              	.L68:
 929 0046 00BF     		.align	2
 930              	.L67:
 931 0048 00000000 		.word	.LANCHOR7
 932 004c 00000000 		.word	CAND1
 933              		.cfi_endproc
 934              	.LFE260:
 935              		.size	comm_can_transmit, .-comm_can_transmit
 936              		.section	.text.cancom_status_thread,"ax",%progbits
 937              		.align	2
 938              		.p2align 4,,15
 939              		.thumb
 940              		.thumb_func
 941              		.type	cancom_status_thread, %function
 942              	cancom_status_thread:
 943              	.LFB259:
 944              		.loc 1 277 0
 945              		.cfi_startproc
 946              		@ args = 0, pretend = 0, frame = 24
 947              		@ frame_needed = 0, uses_anonymous_args = 0
 948              	.LVL82:
 949 0000 10B5     		push	{r4, lr}
 950              		.cfi_def_cfa_offset 8
 951              		.cfi_offset 4, -8
 952              		.cfi_offset 14, -4
 953              	.LBB106:
 954              	.LBB107:
 955              		.loc 2 135 0
 956 0002 284B     		ldr	r3, .L77
 957 0004 284A     		ldr	r2, .L77+4
 958 0006 9B69     		ldr	r3, [r3, #24]
 959              	.LBE107:
 960              	.LBE106:
 961              		.loc 1 277 0
 962 0008 2DED028B 		fstmfdd	sp!, {d8}
 963              		.cfi_def_cfa_offset 16
 964              		.cfi_offset 80, -16
 965              		.cfi_offset 81, -12
 966              	.LBB109:
 967              	.LBB110:
 968              		.loc 1 284 0
 969 000c 0024     		movs	r4, #0
ARM GAS  /tmp/ccs5rMQe.s 			page 18


 970              	.LBE110:
 971              	.LBE109:
 972              		.loc 1 277 0
 973 000e 86B0     		sub	sp, sp, #24
 974              		.cfi_def_cfa_offset 40
 975              	.LBB114:
 976              	.LBB111:
 977              		.loc 1 288 0
 978 0010 DFED268A 		flds	s17, .L77+8
 979              	.LBE111:
 980              	.LBE114:
 981              	.LBB115:
 982              	.LBB108:
 983              		.loc 2 135 0
 984 0014 9A61     		str	r2, [r3, #24]
 985              	.LBE108:
 986              	.LBE115:
 987              	.LBB116:
 988              	.LBB112:
 989              		.loc 1 287 0
 990 0016 B2EE048A 		fconsts	s16, #36
 991 001a 0BE0     		b	.L72
 992              	.LVL83:
 993              	.L70:
 994              	.LBE112:
 995              		.loc 1 292 0
 996 001c FFF7FEFF 		bl	app_get_configuration
 997              	.LVL84:
 998 0020 42F21073 		movw	r3, #10000
 999 0024 0069     		ldr	r0, [r0, #16]
 1000 0026 B3FBF0F0 		udiv	r0, r3, r0
 1001              	.LVL85:
 1002              		.loc 1 294 0
 1003 002a 0028     		cmp	r0, #0
 1004              	.LVL86:
 1005              		.loc 1 297 0
 1006 002c 08BF     		it	eq
 1007 002e 0120     		moveq	r0, #1
 1008              	.LVL87:
 1009 0030 FFF7FEFF 		bl	chThdSleep
 1010              	.LVL88:
 1011              	.L72:
 1012              		.loc 1 282 0
 1013 0034 FFF7FEFF 		bl	app_get_configuration
 1014              	.LVL89:
 1015 0038 037B     		ldrb	r3, [r0, #12]	@ zero_extendqisi2
 1016 003a 002B     		cmp	r3, #0
 1017 003c EED0     		beq	.L70
 1018              	.LBB113:
 1019              		.loc 1 284 0
 1020 003e 0394     		str	r4, [sp, #12]
 1021              		.loc 1 286 0
 1022 0040 FFF7FEFF 		bl	mc_interface_get_rpm
 1023              	.LVL90:
 1024 0044 FDEEC07A 		ftosizs	s15, s0
 1025 0048 04A8     		add	r0, sp, #16
 1026 004a 17EE901A 		fmrs	r1, s15	@ int
ARM GAS  /tmp/ccs5rMQe.s 			page 19


 1027 004e 03AA     		add	r2, sp, #12
 1028 0050 FFF7FEFF 		bl	buffer_append_int32
 1029              	.LVL91:
 1030              		.loc 1 287 0
 1031 0054 FFF7FEFF 		bl	mc_interface_get_tot_current
 1032              	.LVL92:
 1033 0058 20EE080A 		fmuls	s0, s0, s16
 1034 005c 04A8     		add	r0, sp, #16
 1035 005e BDEEC00A 		ftosizs	s0, s0
 1036 0062 03AA     		add	r2, sp, #12
 1037 0064 8DED010A 		fsts	s0, [sp, #4]	@ int
 1038 0068 BDF90410 		ldrsh	r1, [sp, #4]
 1039 006c FFF7FEFF 		bl	buffer_append_int16
 1040              	.LVL93:
 1041              		.loc 1 288 0
 1042 0070 FFF7FEFF 		bl	mc_interface_get_duty_cycle_now
 1043              	.LVL94:
 1044 0074 20EE280A 		fmuls	s0, s0, s17
 1045 0078 03AA     		add	r2, sp, #12
 1046 007a BDEEC00A 		ftosizs	s0, s0
 1047 007e 04A8     		add	r0, sp, #16
 1048 0080 8DED010A 		fsts	s0, [sp, #4]	@ int
 1049 0084 BDF90410 		ldrsh	r1, [sp, #4]
 1050 0088 FFF7FEFF 		bl	buffer_append_int16
 1051              	.LVL95:
 1052              		.loc 1 289 0
 1053 008c FFF7FEFF 		bl	app_get_configuration
 1054              	.LVL96:
 1055 0090 0078     		ldrb	r0, [r0]	@ zero_extendqisi2
 1056 0092 9DF80C20 		ldrb	r2, [sp, #12]	@ zero_extendqisi2
 1057 0096 40F41060 		orr	r0, r0, #2304
 1058 009a 04A9     		add	r1, sp, #16
 1059 009c FFF7FEFF 		bl	comm_can_transmit
 1060              	.LVL97:
 1061 00a0 BCE7     		b	.L70
 1062              	.L78:
 1063 00a2 00BF     		.align	2
 1064              	.L77:
 1065 00a4 00000000 		.word	ch
 1066 00a8 14000000 		.word	.LC2
 1067 00ac 00007A44 		.word	1148846080
 1068              	.LBE113:
 1069              	.LBE116:
 1070              		.cfi_endproc
 1071              	.LFE259:
 1072              		.size	cancom_status_thread, .-cancom_status_thread
 1073              		.section	.text.comm_can_send_buffer,"ax",%progbits
 1074              		.align	2
 1075              		.p2align 4,,15
 1076              		.global	comm_can_send_buffer
 1077              		.thumb
 1078              		.thumb_func
 1079              		.type	comm_can_send_buffer, %function
 1080              	comm_can_send_buffer:
 1081              	.LFB261:
 1082              		.loc 1 339 0
 1083              		.cfi_startproc
ARM GAS  /tmp/ccs5rMQe.s 			page 20


 1084              		@ args = 0, pretend = 0, frame = 24
 1085              		@ frame_needed = 0, uses_anonymous_args = 0
 1086              	.LVL98:
 1087 0000 2DE9F04F 		push	{r4, r5, r6, r7, r8, r9, r10, fp, lr}
 1088              		.cfi_def_cfa_offset 36
 1089              		.cfi_offset 4, -36
 1090              		.cfi_offset 5, -32
 1091              		.cfi_offset 6, -28
 1092              		.cfi_offset 7, -24
 1093              		.cfi_offset 8, -20
 1094              		.cfi_offset 9, -16
 1095              		.cfi_offset 10, -12
 1096              		.cfi_offset 11, -8
 1097              		.cfi_offset 14, -4
 1098 0004 87B0     		sub	sp, sp, #28
 1099              		.cfi_def_cfa_offset 64
 1100              		.loc 1 342 0
 1101 0006 062A     		cmp	r2, #6
 1102              		.loc 1 339 0
 1103 0008 1546     		mov	r5, r2
 1104 000a 8246     		mov	r10, r0
 1105 000c 0191     		str	r1, [sp, #4]
 1106 000e 0293     		str	r3, [sp, #8]
 1107              		.loc 1 342 0
 1108 0010 7FD9     		bls	.L80
 1109 0012 4FF0000B 		mov	fp, #0
 1110 0016 D3B2     		uxtb	r3, r2
 1111              	.LVL99:
 1112 0018 5C46     		mov	r4, fp
 1113 001a 40F4A066 		orr	r6, r0, #1280
 1114 001e 0393     		str	r3, [sp, #12]
 1115 0020 8846     		mov	r8, r1
 1116              	.LBB117:
 1117              	.LBB118:
 1118              	.LBB119:
 1119              		.loc 1 352 0
 1120 0022 40F20317 		movw	r7, #259
 1121 0026 01E0     		b	.L81
 1122              	.LVL100:
 1123              	.L86:
 1124 0028 BC42     		cmp	r4, r7
 1125 002a 41D0     		beq	.L83
 1126              	.LVL101:
 1127              	.L81:
 1128              		.loc 1 356 0
 1129 002c 0734     		adds	r4, r4, #7
 1130              	.LVL102:
 1131              		.loc 1 359 0
 1132 002e 5FFA8BF3 		uxtb	r3, fp
 1133              		.loc 1 361 0
 1134 0032 A542     		cmp	r5, r4
 1135              		.loc 1 359 0
 1136 0034 8DF81030 		strb	r3, [sp, #16]
 1137              		.loc 1 361 0
 1138 0038 C0F08480 		bcc	.L84
 1139              		.loc 1 362 0
 1140 003c D8F80030 		ldr	r3, [r8]	@ unaligned
ARM GAS  /tmp/ccs5rMQe.s 			page 21


 1141 0040 B8F80420 		ldrh	r2, [r8, #4]	@ unaligned
 1142 0044 CDF81130 		str	r3, [sp, #17]	@ unaligned
 1143 0048 98F80630 		ldrb	r3, [r8, #6]	@ zero_extendqisi2
 1144 004c ADF81520 		strh	r2, [sp, #21]	@ unaligned
 1145 0050 8DF81730 		strb	r3, [sp, #23]
 1146 0054 0822     		movs	r2, #8
 1147              	.LVL103:
 1148              	.L85:
 1149              		.loc 1 368 0 discriminator 2
 1150 0056 3046     		mov	r0, r6
 1151 0058 04A9     		add	r1, sp, #16
 1152 005a FFF7FEFF 		bl	comm_can_transmit
 1153              	.LVL104:
 1154              	.LBE119:
 1155              		.loc 1 351 0 discriminator 2
 1156 005e A542     		cmp	r5, r4
 1157 0060 0BF1070B 		add	fp, fp, #7
 1158 0064 08F10708 		add	r8, r8, #7
 1159 0068 DED8     		bhi	.L86
 1160              	.LVL105:
 1161              	.L90:
 1162              	.LBE118:
 1163              		.loc 1 387 0
 1164 006a FFF7FEFF 		bl	app_get_configuration
 1165              	.LVL106:
 1166 006e 0278     		ldrb	r2, [r0]	@ zero_extendqisi2
 1167 0070 8DF81020 		strb	r2, [sp, #16]
 1168              	.LVL107:
 1169              		.loc 1 388 0
 1170 0074 9DF80820 		ldrb	r2, [sp, #8]	@ zero_extendqisi2
 1171 0078 8DF81120 		strb	r2, [sp, #17]
 1172              	.LVL108:
 1173              		.loc 1 389 0
 1174 007c 2B0A     		lsrs	r3, r5, #8
 1175              		.loc 1 390 0
 1176 007e 9DF80C20 		ldrb	r2, [sp, #12]	@ zero_extendqisi2
 1177              		.loc 1 391 0
 1178 0082 0198     		ldr	r0, [sp, #4]
 1179              		.loc 1 390 0
 1180 0084 8DF81320 		strb	r2, [sp, #19]
 1181              		.loc 1 391 0
 1182 0088 2946     		mov	r1, r5
 1183              		.loc 1 389 0
 1184 008a 8DF81230 		strb	r3, [sp, #18]
 1185              	.LVL109:
 1186              		.loc 1 391 0
 1187 008e FFF7FEFF 		bl	crc16
 1188              	.LVL110:
 1189              		.loc 1 395 0
 1190 0092 04A9     		add	r1, sp, #16
 1191              		.loc 1 391 0
 1192 0094 0346     		mov	r3, r0
 1193              	.LVL111:
 1194              		.loc 1 392 0
 1195 0096 040A     		lsrs	r4, r0, #8
 1196              		.loc 1 395 0
 1197 0098 0622     		movs	r2, #6
ARM GAS  /tmp/ccs5rMQe.s 			page 22


 1198 009a 4AF4E060 		orr	r0, r10, #1792
 1199              	.LVL112:
 1200              		.loc 1 393 0
 1201 009e 8DF81530 		strb	r3, [sp, #21]
 1202              		.loc 1 392 0
 1203 00a2 8DF81440 		strb	r4, [sp, #20]
 1204              	.LVL113:
 1205              		.loc 1 395 0
 1206 00a6 FFF7FEFF 		bl	comm_can_transmit
 1207              	.LVL114:
 1208              	.LBE117:
 1209              		.loc 1 397 0
 1210 00aa 07B0     		add	sp, sp, #28
 1211              		.cfi_remember_state
 1212              		.cfi_def_cfa_offset 36
 1213              		@ sp needed
 1214 00ac BDE8F08F 		pop	{r4, r5, r6, r7, r8, r9, r10, fp, pc}
 1215              	.LVL115:
 1216              	.L83:
 1217              		.cfi_restore_state
 1218 00b0 019B     		ldr	r3, [sp, #4]
 1219 00b2 03F2031B 		addw	fp, r3, #259
 1220 00b6 039B     		ldr	r3, [sp, #12]
 1221 00b8 4AF4C067 		orr	r7, r10, #1536
 1222 00bc 9E1D     		adds	r6, r3, #6
 1223 00be 03F10808 		add	r8, r3, #8
 1224 00c2 10E0     		b	.L89
 1225              	.LVL116:
 1226              	.L93:
 1227              	.LBB125:
 1228              	.LBB121:
 1229              	.LBB122:
 1230              		.loc 1 377 0
 1231 00c4 DBF80020 		ldr	r2, [fp]	@ unaligned
 1232 00c8 BBF80430 		ldrh	r3, [fp, #4]	@ unaligned
 1233 00cc CDF81220 		str	r2, [sp, #18]	@ unaligned
 1234 00d0 ADF81630 		strh	r3, [sp, #22]	@ unaligned
 1235 00d4 0822     		movs	r2, #8
 1236              	.L88:
 1237              		.loc 1 383 0 discriminator 2
 1238 00d6 3846     		mov	r0, r7
 1239 00d8 04A9     		add	r1, sp, #16
 1240 00da FFF7FEFF 		bl	comm_can_transmit
 1241              	.LVL117:
 1242              	.LBE122:
 1243              		.loc 1 371 0 discriminator 2
 1244 00de A542     		cmp	r5, r4
 1245 00e0 0BF1060B 		add	fp, fp, #6
 1246 00e4 C1D9     		bls	.L90
 1247              	.LVL118:
 1248              	.L89:
 1249              	.LBB123:
 1250              		.loc 1 373 0
 1251 00e6 230A     		lsrs	r3, r4, #8
 1252              		.loc 1 374 0
 1253 00e8 8DF81140 		strb	r4, [sp, #17]
 1254              		.loc 1 376 0
ARM GAS  /tmp/ccs5rMQe.s 			page 23


 1255 00ec 0634     		adds	r4, r4, #6
 1256              	.LVL119:
 1257 00ee 5FFA84F9 		uxtb	r9, r4
 1258              	.LVL120:
 1259 00f2 A542     		cmp	r5, r4
 1260              		.loc 1 373 0
 1261 00f4 8DF81030 		strb	r3, [sp, #16]
 1262 00f8 C9EB0602 		rsb	r2, r9, r6
 1263              		.loc 1 376 0
 1264 00fc E2D2     		bcs	.L93
 1265              		.loc 1 380 0
 1266 00fe D2B2     		uxtb	r2, r2
 1267 0100 0DF11200 		add	r0, sp, #18
 1268 0104 5946     		mov	r1, fp
 1269 0106 FFF7FEFF 		bl	memcpy
 1270              	.LVL121:
 1271 010a C9EB0802 		rsb	r2, r9, r8
 1272 010e D2B2     		uxtb	r2, r2
 1273 0110 E1E7     		b	.L88
 1274              	.LVL122:
 1275              	.L80:
 1276              	.LBE123:
 1277              	.LBE121:
 1278              	.LBE125:
 1279              	.LBB126:
 1280              		.loc 1 344 0
 1281 0112 FFF7FEFF 		bl	app_get_configuration
 1282              	.LVL123:
 1283 0116 0378     		ldrb	r3, [r0]	@ zero_extendqisi2
 1284              		.loc 1 346 0
 1285 0118 0199     		ldr	r1, [sp, #4]
 1286              		.loc 1 344 0
 1287 011a 8DF81030 		strb	r3, [sp, #16]
 1288              	.LVL124:
 1289              		.loc 1 346 0
 1290 011e 2A46     		mov	r2, r5
 1291              		.loc 1 345 0
 1292 0120 9DF80830 		ldrb	r3, [sp, #8]	@ zero_extendqisi2
 1293 0124 8DF81130 		strb	r3, [sp, #17]
 1294              		.loc 1 346 0
 1295 0128 0DF11200 		add	r0, sp, #18
 1296 012c FFF7FEFF 		bl	memcpy
 1297              	.LVL125:
 1298              		.loc 1 347 0
 1299 0130 AA1C     		adds	r2, r5, #2
 1300              	.LVL126:
 1301              		.loc 1 348 0
 1302 0132 D2B2     		uxtb	r2, r2
 1303              	.LVL127:
 1304 0134 4AF40060 		orr	r0, r10, #2048
 1305 0138 04A9     		add	r1, sp, #16
 1306 013a FFF7FEFF 		bl	comm_can_transmit
 1307              	.LVL128:
 1308              	.LBE126:
 1309              		.loc 1 397 0
 1310 013e 07B0     		add	sp, sp, #28
 1311              		.cfi_remember_state
ARM GAS  /tmp/ccs5rMQe.s 			page 24


 1312              		.cfi_def_cfa_offset 36
 1313              		@ sp needed
 1314 0140 BDE8F08F 		pop	{r4, r5, r6, r7, r8, r9, r10, fp, pc}
 1315              	.LVL129:
 1316              	.L84:
 1317              		.cfi_restore_state
 1318 0144 EA1A     		subs	r2, r5, r3
 1319              	.LBB127:
 1320              	.LBB124:
 1321              	.LBB120:
 1322              		.loc 1 365 0
 1323 0146 D2B2     		uxtb	r2, r2
 1324 0148 0DF11100 		add	r0, sp, #17
 1325 014c 4146     		mov	r1, r8
 1326 014e FFF7FEFF 		bl	memcpy
 1327              	.LVL130:
 1328 0152 039B     		ldr	r3, [sp, #12]
 1329 0154 C4F10802 		rsb	r2, r4, #8
 1330 0158 1A44     		add	r2, r2, r3
 1331 015a D2B2     		uxtb	r2, r2
 1332 015c 7BE7     		b	.L85
 1333              	.LBE120:
 1334              	.LBE124:
 1335              	.LBE127:
 1336              		.cfi_endproc
 1337              	.LFE261:
 1338              		.size	comm_can_send_buffer, .-comm_can_send_buffer
 1339 015e 00BF     		.section	.text.send_packet_wrapper,"ax",%progbits
 1340              		.align	2
 1341              		.p2align 4,,15
 1342              		.thumb
 1343              		.thumb_func
 1344              		.type	send_packet_wrapper, %function
 1345              	send_packet_wrapper:
 1346              	.LFB269:
 1347              		.loc 1 470 0
 1348              		.cfi_startproc
 1349              		@ args = 0, pretend = 0, frame = 0
 1350              		@ frame_needed = 0, uses_anonymous_args = 0
 1351              		@ link register save eliminated.
 1352              	.LVL131:
 1353              		.loc 1 471 0
 1354 0000 034B     		ldr	r3, .L95
 1355              		.loc 1 470 0
 1356 0002 0A46     		mov	r2, r1
 1357              		.loc 1 471 0
 1358 0004 0146     		mov	r1, r0
 1359              	.LVL132:
 1360 0006 1878     		ldrb	r0, [r3]	@ zero_extendqisi2
 1361              	.LVL133:
 1362 0008 0123     		movs	r3, #1
 1363 000a FFF7FEBF 		b	comm_can_send_buffer
 1364              	.LVL134:
 1365              	.L96:
 1366 000e 00BF     		.align	2
 1367              	.L95:
 1368 0010 00000000 		.word	.LANCHOR5
ARM GAS  /tmp/ccs5rMQe.s 			page 25


 1369              		.cfi_endproc
 1370              	.LFE269:
 1371              		.size	send_packet_wrapper, .-send_packet_wrapper
 1372              		.section	.text.comm_can_set_duty,"ax",%progbits
 1373              		.align	2
 1374              		.p2align 4,,15
 1375              		.global	comm_can_set_duty
 1376              		.thumb
 1377              		.thumb_func
 1378              		.type	comm_can_set_duty, %function
 1379              	comm_can_set_duty:
 1380              	.LFB262:
 1381              		.loc 1 399 0
 1382              		.cfi_startproc
 1383              		@ args = 0, pretend = 0, frame = 8
 1384              		@ frame_needed = 0, uses_anonymous_args = 0
 1385              	.LVL135:
 1386 0000 10B5     		push	{r4, lr}
 1387              		.cfi_def_cfa_offset 8
 1388              		.cfi_offset 4, -8
 1389              		.cfi_offset 14, -4
 1390              		.loc 1 402 0
 1391 0002 DFED0C7A 		flds	s15, .L99
 1392 0006 20EE270A 		fmuls	s0, s0, s15
 1393              	.LVL136:
 1394              		.loc 1 399 0
 1395 000a 82B0     		sub	sp, sp, #8
 1396              		.cfi_def_cfa_offset 16
 1397              		.loc 1 402 0
 1398 000c FDEEC07A 		ftosizs	s15, s0
 1399              		.loc 1 400 0
 1400 0010 0023     		movs	r3, #0
 1401              		.loc 1 402 0
 1402 0012 17EE901A 		fmrs	r1, s15	@ int
 1403              		.loc 1 399 0
 1404 0016 0446     		mov	r4, r0
 1405              		.loc 1 402 0
 1406 0018 6A46     		mov	r2, sp
 1407 001a 01A8     		add	r0, sp, #4
 1408              	.LVL137:
 1409              		.loc 1 400 0
 1410 001c 0093     		str	r3, [sp]
 1411              		.loc 1 402 0
 1412 001e FFF7FEFF 		bl	buffer_append_int32
 1413              	.LVL138:
 1414              		.loc 1 403 0
 1415 0022 2046     		mov	r0, r4
 1416 0024 01A9     		add	r1, sp, #4
 1417 0026 9DF80020 		ldrb	r2, [sp]	@ zero_extendqisi2
 1418 002a FFF7FEFF 		bl	comm_can_transmit
 1419              	.LVL139:
 1420              		.loc 1 404 0
 1421 002e 02B0     		add	sp, sp, #8
 1422              		.cfi_def_cfa_offset 8
 1423              		@ sp needed
 1424 0030 10BD     		pop	{r4, pc}
 1425              	.L100:
ARM GAS  /tmp/ccs5rMQe.s 			page 26


 1426 0032 00BF     		.align	2
 1427              	.L99:
 1428 0034 0050C347 		.word	1203982336
 1429              		.cfi_endproc
 1430              	.LFE262:
 1431              		.size	comm_can_set_duty, .-comm_can_set_duty
 1432              		.section	.text.comm_can_set_current,"ax",%progbits
 1433              		.align	2
 1434              		.p2align 4,,15
 1435              		.global	comm_can_set_current
 1436              		.thumb
 1437              		.thumb_func
 1438              		.type	comm_can_set_current, %function
 1439              	comm_can_set_current:
 1440              	.LFB263:
 1441              		.loc 1 406 0
 1442              		.cfi_startproc
 1443              		@ args = 0, pretend = 0, frame = 8
 1444              		@ frame_needed = 0, uses_anonymous_args = 0
 1445              	.LVL140:
 1446 0000 10B5     		push	{r4, lr}
 1447              		.cfi_def_cfa_offset 8
 1448              		.cfi_offset 4, -8
 1449              		.cfi_offset 14, -4
 1450              		.loc 1 409 0
 1451 0002 DFED0C7A 		flds	s15, .L103
 1452 0006 20EE270A 		fmuls	s0, s0, s15
 1453              	.LVL141:
 1454              		.loc 1 406 0
 1455 000a 82B0     		sub	sp, sp, #8
 1456              		.cfi_def_cfa_offset 16
 1457              		.loc 1 409 0
 1458 000c FDEEC07A 		ftosizs	s15, s0
 1459              		.loc 1 407 0
 1460 0010 0023     		movs	r3, #0
 1461              		.loc 1 409 0
 1462 0012 17EE901A 		fmrs	r1, s15	@ int
 1463              		.loc 1 406 0
 1464 0016 0446     		mov	r4, r0
 1465              		.loc 1 409 0
 1466 0018 6A46     		mov	r2, sp
 1467 001a 01A8     		add	r0, sp, #4
 1468              	.LVL142:
 1469              		.loc 1 407 0
 1470 001c 0093     		str	r3, [sp]
 1471              		.loc 1 409 0
 1472 001e FFF7FEFF 		bl	buffer_append_int32
 1473              	.LVL143:
 1474              		.loc 1 410 0
 1475 0022 44F48070 		orr	r0, r4, #256
 1476 0026 01A9     		add	r1, sp, #4
 1477 0028 9DF80020 		ldrb	r2, [sp]	@ zero_extendqisi2
 1478 002c FFF7FEFF 		bl	comm_can_transmit
 1479              	.LVL144:
 1480              		.loc 1 411 0
 1481 0030 02B0     		add	sp, sp, #8
 1482              		.cfi_def_cfa_offset 8
ARM GAS  /tmp/ccs5rMQe.s 			page 27


 1483              		@ sp needed
 1484 0032 10BD     		pop	{r4, pc}
 1485              	.L104:
 1486              		.align	2
 1487              	.L103:
 1488 0034 00007A44 		.word	1148846080
 1489              		.cfi_endproc
 1490              	.LFE263:
 1491              		.size	comm_can_set_current, .-comm_can_set_current
 1492              		.section	.text.comm_can_set_current_brake,"ax",%progbits
 1493              		.align	2
 1494              		.p2align 4,,15
 1495              		.global	comm_can_set_current_brake
 1496              		.thumb
 1497              		.thumb_func
 1498              		.type	comm_can_set_current_brake, %function
 1499              	comm_can_set_current_brake:
 1500              	.LFB264:
 1501              		.loc 1 413 0
 1502              		.cfi_startproc
 1503              		@ args = 0, pretend = 0, frame = 8
 1504              		@ frame_needed = 0, uses_anonymous_args = 0
 1505              	.LVL145:
 1506 0000 10B5     		push	{r4, lr}
 1507              		.cfi_def_cfa_offset 8
 1508              		.cfi_offset 4, -8
 1509              		.cfi_offset 14, -4
 1510              		.loc 1 416 0
 1511 0002 DFED0C7A 		flds	s15, .L107
 1512 0006 20EE270A 		fmuls	s0, s0, s15
 1513              	.LVL146:
 1514              		.loc 1 413 0
 1515 000a 82B0     		sub	sp, sp, #8
 1516              		.cfi_def_cfa_offset 16
 1517              		.loc 1 416 0
 1518 000c FDEEC07A 		ftosizs	s15, s0
 1519              		.loc 1 414 0
 1520 0010 0023     		movs	r3, #0
 1521              		.loc 1 416 0
 1522 0012 17EE901A 		fmrs	r1, s15	@ int
 1523              		.loc 1 413 0
 1524 0016 0446     		mov	r4, r0
 1525              		.loc 1 416 0
 1526 0018 6A46     		mov	r2, sp
 1527 001a 01A8     		add	r0, sp, #4
 1528              	.LVL147:
 1529              		.loc 1 414 0
 1530 001c 0093     		str	r3, [sp]
 1531              		.loc 1 416 0
 1532 001e FFF7FEFF 		bl	buffer_append_int32
 1533              	.LVL148:
 1534              		.loc 1 417 0
 1535 0022 44F40070 		orr	r0, r4, #512
 1536 0026 01A9     		add	r1, sp, #4
 1537 0028 9DF80020 		ldrb	r2, [sp]	@ zero_extendqisi2
 1538 002c FFF7FEFF 		bl	comm_can_transmit
 1539              	.LVL149:
ARM GAS  /tmp/ccs5rMQe.s 			page 28


 1540              		.loc 1 418 0
 1541 0030 02B0     		add	sp, sp, #8
 1542              		.cfi_def_cfa_offset 8
 1543              		@ sp needed
 1544 0032 10BD     		pop	{r4, pc}
 1545              	.L108:
 1546              		.align	2
 1547              	.L107:
 1548 0034 00007A44 		.word	1148846080
 1549              		.cfi_endproc
 1550              	.LFE264:
 1551              		.size	comm_can_set_current_brake, .-comm_can_set_current_brake
 1552              		.section	.text.comm_can_set_rpm,"ax",%progbits
 1553              		.align	2
 1554              		.p2align 4,,15
 1555              		.global	comm_can_set_rpm
 1556              		.thumb
 1557              		.thumb_func
 1558              		.type	comm_can_set_rpm, %function
 1559              	comm_can_set_rpm:
 1560              	.LFB265:
 1561              		.loc 1 420 0
 1562              		.cfi_startproc
 1563              		@ args = 0, pretend = 0, frame = 8
 1564              		@ frame_needed = 0, uses_anonymous_args = 0
 1565              	.LVL150:
 1566 0000 10B5     		push	{r4, lr}
 1567              		.cfi_def_cfa_offset 8
 1568              		.cfi_offset 4, -8
 1569              		.cfi_offset 14, -4
 1570              		.loc 1 423 0
 1571 0002 FDEEC07A 		ftosizs	s15, s0
 1572              		.loc 1 420 0
 1573 0006 82B0     		sub	sp, sp, #8
 1574              		.cfi_def_cfa_offset 16
 1575              		.loc 1 421 0
 1576 0008 0023     		movs	r3, #0
 1577              		.loc 1 423 0
 1578 000a 17EE901A 		fmrs	r1, s15	@ int
 1579              		.loc 1 420 0
 1580 000e 0446     		mov	r4, r0
 1581              		.loc 1 423 0
 1582 0010 6A46     		mov	r2, sp
 1583 0012 01A8     		add	r0, sp, #4
 1584              	.LVL151:
 1585              		.loc 1 421 0
 1586 0014 0093     		str	r3, [sp]
 1587              		.loc 1 423 0
 1588 0016 FFF7FEFF 		bl	buffer_append_int32
 1589              	.LVL152:
 1590              		.loc 1 424 0
 1591 001a 44F44070 		orr	r0, r4, #768
 1592 001e 01A9     		add	r1, sp, #4
 1593 0020 9DF80020 		ldrb	r2, [sp]	@ zero_extendqisi2
 1594 0024 FFF7FEFF 		bl	comm_can_transmit
 1595              	.LVL153:
 1596              		.loc 1 425 0
ARM GAS  /tmp/ccs5rMQe.s 			page 29


 1597 0028 02B0     		add	sp, sp, #8
 1598              		.cfi_def_cfa_offset 8
 1599              		@ sp needed
 1600 002a 10BD     		pop	{r4, pc}
 1601              		.cfi_endproc
 1602              	.LFE265:
 1603              		.size	comm_can_set_rpm, .-comm_can_set_rpm
 1604              		.section	.text.comm_can_set_pos,"ax",%progbits
 1605              		.align	2
 1606              		.p2align 4,,15
 1607              		.global	comm_can_set_pos
 1608              		.thumb
 1609              		.thumb_func
 1610              		.type	comm_can_set_pos, %function
 1611              	comm_can_set_pos:
 1612              	.LFB266:
 1613              		.loc 1 427 0
 1614              		.cfi_startproc
 1615              		@ args = 0, pretend = 0, frame = 8
 1616              		@ frame_needed = 0, uses_anonymous_args = 0
 1617              	.LVL154:
 1618 0000 10B5     		push	{r4, lr}
 1619              		.cfi_def_cfa_offset 8
 1620              		.cfi_offset 4, -8
 1621              		.cfi_offset 14, -4
 1622              		.loc 1 430 0
 1623 0002 DFED0C7A 		flds	s15, .L113
 1624 0006 20EE270A 		fmuls	s0, s0, s15
 1625              	.LVL155:
 1626              		.loc 1 427 0
 1627 000a 82B0     		sub	sp, sp, #8
 1628              		.cfi_def_cfa_offset 16
 1629              		.loc 1 430 0
 1630 000c FDEEC07A 		ftosizs	s15, s0
 1631              		.loc 1 428 0
 1632 0010 0023     		movs	r3, #0
 1633              		.loc 1 430 0
 1634 0012 17EE901A 		fmrs	r1, s15	@ int
 1635              		.loc 1 427 0
 1636 0016 0446     		mov	r4, r0
 1637              		.loc 1 430 0
 1638 0018 6A46     		mov	r2, sp
 1639 001a 01A8     		add	r0, sp, #4
 1640              	.LVL156:
 1641              		.loc 1 428 0
 1642 001c 0093     		str	r3, [sp]
 1643              		.loc 1 430 0
 1644 001e FFF7FEFF 		bl	buffer_append_int32
 1645              	.LVL157:
 1646              		.loc 1 431 0
 1647 0022 44F48060 		orr	r0, r4, #1024
 1648 0026 01A9     		add	r1, sp, #4
 1649 0028 9DF80020 		ldrb	r2, [sp]	@ zero_extendqisi2
 1650 002c FFF7FEFF 		bl	comm_can_transmit
 1651              	.LVL158:
 1652              		.loc 1 432 0
 1653 0030 02B0     		add	sp, sp, #8
ARM GAS  /tmp/ccs5rMQe.s 			page 30


 1654              		.cfi_def_cfa_offset 8
 1655              		@ sp needed
 1656 0032 10BD     		pop	{r4, pc}
 1657              	.L114:
 1658              		.align	2
 1659              	.L113:
 1660 0034 00247449 		.word	1232348160
 1661              		.cfi_endproc
 1662              	.LFE266:
 1663              		.size	comm_can_set_pos, .-comm_can_set_pos
 1664              		.section	.text.comm_can_get_status_msg_index,"ax",%progbits
 1665              		.align	2
 1666              		.p2align 4,,15
 1667              		.global	comm_can_get_status_msg_index
 1668              		.thumb
 1669              		.thumb_func
 1670              		.type	comm_can_get_status_msg_index, %function
 1671              	comm_can_get_status_msg_index:
 1672              	.LFB267:
 1673              		.loc 1 443 0
 1674              		.cfi_startproc
 1675              		@ args = 0, pretend = 0, frame = 0
 1676              		@ frame_needed = 0, uses_anonymous_args = 0
 1677              		@ link register save eliminated.
 1678              	.LVL159:
 1679              		.loc 1 444 0
 1680 0000 0928     		cmp	r0, #9
 1681              		.loc 1 445 0
 1682 0002 DDBF     		ittte	le
 1683 0004 034B     		ldrle	r3, .L118
 1684 0006 00EB8000 		addle	r0, r0, r0, lsl #2
 1685              	.LVL160:
 1686 000a 03EB8000 		addle	r0, r3, r0, lsl #2
 1687              		.loc 1 447 0
 1688 000e 0020     		movgt	r0, #0
 1689              		.loc 1 449 0
 1690 0010 7047     		bx	lr
 1691              	.L119:
 1692 0012 00BF     		.align	2
 1693              	.L118:
 1694 0014 00000000 		.word	.LANCHOR6
 1695              		.cfi_endproc
 1696              	.LFE267:
 1697              		.size	comm_can_get_status_msg_index, .-comm_can_get_status_msg_index
 1698              		.section	.text.comm_can_get_status_msg_id,"ax",%progbits
 1699              		.align	2
 1700              		.p2align 4,,15
 1701              		.global	comm_can_get_status_msg_id
 1702              		.thumb
 1703              		.thumb_func
 1704              		.type	comm_can_get_status_msg_id, %function
 1705              	comm_can_get_status_msg_id:
 1706              	.LFB268:
 1707              		.loc 1 460 0
 1708              		.cfi_startproc
 1709              		@ args = 0, pretend = 0, frame = 0
 1710              		@ frame_needed = 0, uses_anonymous_args = 0
ARM GAS  /tmp/ccs5rMQe.s 			page 31


 1711              		@ link register save eliminated.
 1712              	.LVL161:
 1713 0000 30B4     		push	{r4, r5}
 1714              		.cfi_def_cfa_offset 8
 1715              		.cfi_offset 4, -8
 1716              		.cfi_offset 5, -4
 1717              		.loc 1 460 0
 1718 0002 0023     		movs	r3, #0
 1719 0004 094D     		ldr	r5, .L127
 1720              	.LBB128:
 1721              		.loc 1 461 0
 1722 0006 1A46     		mov	r2, r3
 1723              	.LVL162:
 1724              	.L123:
 1725              		.loc 1 462 0
 1726 0008 E958     		ldr	r1, [r5, r3]
 1727 000a 084C     		ldr	r4, .L127
 1728 000c 8142     		cmp	r1, r0
 1729 000e 03F11403 		add	r3, r3, #20
 1730 0012 05D0     		beq	.L126
 1731              		.loc 1 461 0 discriminator 2
 1732 0014 0132     		adds	r2, r2, #1
 1733              	.LVL163:
 1734 0016 0A2A     		cmp	r2, #10
 1735 0018 F6D1     		bne	.L123
 1736              	.LBE128:
 1737              		.loc 1 467 0
 1738 001a 0020     		movs	r0, #0
 1739              	.LVL164:
 1740              		.loc 1 468 0
 1741 001c 30BC     		pop	{r4, r5}
 1742              		.cfi_remember_state
 1743              		.cfi_restore 5
 1744              		.cfi_restore 4
 1745              		.cfi_def_cfa_offset 0
 1746 001e 7047     		bx	lr
 1747              	.LVL165:
 1748              	.L126:
 1749              		.cfi_restore_state
 1750              	.LBB129:
 1751              		.loc 1 463 0
 1752 0020 02EB8202 		add	r2, r2, r2, lsl #2
 1753              	.LVL166:
 1754 0024 04EB8200 		add	r0, r4, r2, lsl #2
 1755              	.LVL167:
 1756              	.LBE129:
 1757              		.loc 1 468 0
 1758 0028 30BC     		pop	{r4, r5}
 1759              		.cfi_restore 4
 1760              		.cfi_restore 5
 1761              		.cfi_def_cfa_offset 0
 1762 002a 7047     		bx	lr
 1763              	.L128:
 1764              		.align	2
 1765              	.L127:
 1766 002c 00000000 		.word	.LANCHOR6
 1767              		.cfi_endproc
ARM GAS  /tmp/ccs5rMQe.s 			page 32


 1768              	.LFE268:
 1769              		.size	comm_can_get_status_msg_id, .-comm_can_get_status_msg_id
 1770              		.section	.bss.cancom_process_thread_wa,"aw",%nobits
 1771              		.align	3
 1772              		.set	.LANCHOR11,. + 0
 1773              		.type	cancom_process_thread_wa, %object
 1774              		.size	cancom_process_thread_wa, 4504
 1775              	cancom_process_thread_wa:
 1776 0000 00000000 		.space	4504
 1776      00000000 
 1776      00000000 
 1776      00000000 
 1776      00000000 
 1777              		.section	.bss.rx_frame_read,"aw",%nobits
 1778              		.align	2
 1779              		.set	.LANCHOR1,. + 0
 1780              		.type	rx_frame_read, %object
 1781              		.size	rx_frame_read, 4
 1782              	rx_frame_read:
 1783 0000 00000000 		.space	4
 1784              		.section	.rodata.cancfg,"a",%progbits
 1785              		.align	2
 1786              		.set	.LANCHOR8,. + 0
 1787              		.type	cancfg, %object
 1788              		.size	cancfg, 8
 1789              	cancfg:
 1790 0000 64000000 		.word	100
 1791 0004 06001800 		.word	1572870
 1792              		.section	.bss.rx_buffer,"aw",%nobits
 1793              		.align	2
 1794              		.set	.LANCHOR4,. + 0
 1795              		.type	rx_buffer, %object
 1796              		.size	rx_buffer, 1024
 1797              	rx_buffer:
 1798 0000 00000000 		.space	1024
 1798      00000000 
 1798      00000000 
 1798      00000000 
 1798      00000000 
 1799              		.section	.bss.cancom_status_thread_wa,"aw",%nobits
 1800              		.align	3
 1801              		.set	.LANCHOR10,. + 0
 1802              		.type	cancom_status_thread_wa, %object
 1803              		.size	cancom_status_thread_wa, 1432
 1804              	cancom_status_thread_wa:
 1805 0000 00000000 		.space	1432
 1805      00000000 
 1805      00000000 
 1805      00000000 
 1805      00000000 
 1806              		.section	.bss.stat_msgs,"aw",%nobits
 1807              		.align	2
 1808              		.set	.LANCHOR6,. + 0
 1809              		.type	stat_msgs, %object
 1810              		.size	stat_msgs, 200
 1811              	stat_msgs:
 1812 0000 00000000 		.space	200
ARM GAS  /tmp/ccs5rMQe.s 			page 33


 1812      00000000 
 1812      00000000 
 1812      00000000 
 1812      00000000 
 1813              		.section	.bss.rx_frames,"aw",%nobits
 1814              		.align	2
 1815              		.set	.LANCHOR3,. + 0
 1816              		.type	rx_frames, %object
 1817              		.size	rx_frames, 2000
 1818              	rx_frames:
 1819 0000 00000000 		.space	2000
 1819      00000000 
 1819      00000000 
 1819      00000000 
 1819      00000000 
 1820              		.section	.rodata.str1.4,"aMS",%progbits,1
 1821              		.align	2
 1822              	.LC0:
 1823 0000 43616E63 		.ascii	"Cancom process\000"
 1823      6F6D2070 
 1823      726F6365 
 1823      737300
 1824 000f 00       		.space	1
 1825              	.LC1:
 1826 0010 43414E00 		.ascii	"CAN\000"
 1827              	.LC2:
 1828 0014 43414E20 		.ascii	"CAN status\000"
 1828      73746174 
 1828      757300
 1829              		.section	.bss.can_mtx,"aw",%nobits
 1830              		.align	2
 1831              		.set	.LANCHOR7,. + 0
 1832              		.type	can_mtx, %object
 1833              		.size	can_mtx, 16
 1834              	can_mtx:
 1835 0000 00000000 		.space	16
 1835      00000000 
 1835      00000000 
 1835      00000000 
 1836              		.section	.bss.cancom_read_thread_wa,"aw",%nobits
 1837              		.align	3
 1838              		.set	.LANCHOR9,. + 0
 1839              		.type	cancom_read_thread_wa, %object
 1840              		.size	cancom_read_thread_wa, 920
 1841              	cancom_read_thread_wa:
 1842 0000 00000000 		.space	920
 1842      00000000 
 1842      00000000 
 1842      00000000 
 1842      00000000 
 1843              		.section	.bss.process_tp,"aw",%nobits
 1844              		.align	2
 1845              		.set	.LANCHOR0,. + 0
 1846              		.type	process_tp, %object
 1847              		.size	process_tp, 4
 1848              	process_tp:
 1849 0000 00000000 		.space	4
ARM GAS  /tmp/ccs5rMQe.s 			page 34


 1850              		.section	.bss.rx_buffer_last_id,"aw",%nobits
 1851              		.align	2
 1852              		.set	.LANCHOR5,. + 0
 1853              		.type	rx_buffer_last_id, %object
 1854              		.size	rx_buffer_last_id, 4
 1855              	rx_buffer_last_id:
 1856 0000 00000000 		.space	4
 1857              		.section	.bss.rx_frame_write,"aw",%nobits
 1858              		.align	2
 1859              		.set	.LANCHOR2,. + 0
 1860              		.type	rx_frame_write, %object
 1861              		.size	rx_frame_write, 4
 1862              	rx_frame_write:
 1863 0000 00000000 		.space	4
 1864              		.text
 1865              	.Letext0:
 1866              		.file 7 "/usr/lib/gcc/arm-none-eabi/4.9.3/include/stddef.h"
 1867              		.file 8 "/usr/arm-none-eabi/include/machine/_default_types.h"
 1868              		.file 9 "/usr/arm-none-eabi/include/sys/_stdint.h"
 1869              		.file 10 "ChibiOS_3.0.2/os/rt/ports/ARMCMx/compilers/GCC/chtypes.h"
 1870              		.file 11 "ChibiOS_3.0.2/os/rt/include/chsystypes.h"
 1871              		.file 12 "ChibiOS_3.0.2/os/rt/include/chschd.h"
 1872              		.file 13 "ChibiOS_3.0.2/os/ext/CMSIS/ST/stm32f407xx.h"
 1873              		.file 14 "ChibiOS_3.0.2/os/rt/ports/ARMCMx/chcore.h"
 1874              		.file 15 "ChibiOS_3.0.2/os/rt/ports/ARMCMx/chcore_v7m.h"
 1875              		.file 16 "ChibiOS_3.0.2/os/rt/include/chtm.h"
 1876              		.file 17 "ChibiOS_3.0.2/os/rt/include/chsem.h"
 1877              		.file 18 "ChibiOS_3.0.2/os/rt/include/chmtx.h"
 1878              		.file 19 "datatypes.h"
 1879              		.file 20 "ChibiOS_3.0.2/os/hal/ports/STM32/LLD/GPIOv2/pal_lld.h"
 1880              		.file 21 "ChibiOS_3.0.2/os/hal/include/can.h"
 1881              		.file 22 "ChibiOS_3.0.2/os/hal/ports/STM32/LLD/can_lld.h"
 1882              		.file 23 "ChibiOS_3.0.2/os/rt/include/chsys.h"
 1883              		.file 24 "ChibiOS_3.0.2/os/ext/CMSIS/include/core_cm4.h"
 1884              		.file 25 "buffer.h"
 1885              		.file 26 "crc.h"
 1886              		.file 27 "commands.h"
 1887              		.file 28 "mc_interface.h"
 1888              		.file 29 "applications/app.h"
 1889              		.file 30 "timeout.h"