ARM GAS  /tmp/ccy8OeyM.s 			page 1


   1              		.syntax unified
   2              		.cpu cortex-m4
   3              		.eabi_attribute 27, 1
   4              		.eabi_attribute 28, 1
   5              		.fpu fpv4-sp-d16
   6              		.eabi_attribute 20, 1
   7              		.eabi_attribute 21, 1
   8              		.eabi_attribute 23, 3
   9              		.eabi_attribute 24, 1
  10              		.eabi_attribute 25, 1
  11              		.eabi_attribute 26, 1
  12              		.eabi_attribute 30, 2
  13              		.eabi_attribute 34, 1
  14              		.eabi_attribute 18, 4
  15              		.thumb
  16              		.file	"commands.c"
  17              		.text
  18              	.Ltext0:
  19              		.cfi_sections	.debug_frame
  20              		.section	.text.detect_thread,"ax",%progbits
  21              		.align	2
  22              		.p2align 4,,15
  23              		.thumb
  24              		.thumb_func
  25              		.type	detect_thread, %function
  26              	detect_thread:
  27              	.LFB267:
  28              		.file 1 "commands.c"
  29              		.loc 1 870 0
  30              		.cfi_startproc
  31              		@ args = 0, pretend = 0, frame = 16
  32              		@ frame_needed = 0, uses_anonymous_args = 0
  33              	.LVL0:
  34 0000 2DE9F04F 		push	{r4, r5, r6, r7, r8, r9, r10, fp, lr}
  35              		.cfi_def_cfa_offset 36
  36              		.cfi_offset 4, -36
  37              		.cfi_offset 5, -32
  38              		.cfi_offset 6, -28
  39              		.cfi_offset 7, -24
  40              		.cfi_offset 8, -20
  41              		.cfi_offset 9, -16
  42              		.cfi_offset 10, -12
  43              		.cfi_offset 11, -8
  44              		.cfi_offset 14, -4
  45              	.LBB59:
  46              	.LBB60:
  47              		.file 2 "ChibiOS_3.0.2/os/rt/include/chregistry.h"
  48              		.loc 2 135 0
  49 0004 304B     		ldr	r3, .L11
  50              	.LBE60:
  51              	.LBE59:
  52              		.loc 1 875 0
  53 0006 314A     		ldr	r2, .L11+4
  54              	.LBB63:
  55              	.LBB61:
  56              		.loc 2 135 0
  57 0008 9B69     		ldr	r3, [r3, #24]
ARM GAS  /tmp/ccy8OeyM.s 			page 2


  58 000a 3149     		ldr	r1, .L11+8
  59 000c DFF8E4B0 		ldr	fp, .L11+44
  60 0010 DFF8E4A0 		ldr	r10, .L11+48
  61 0014 DFF8E490 		ldr	r9, .L11+52
  62 0018 DFF8CC80 		ldr	r8, .L11+32
  63 001c 2D4C     		ldr	r4, .L11+12
  64 001e 2E4F     		ldr	r7, .L11+16
  65              	.LBE61:
  66              	.LBE63:
  67              	.LBB64:
  68              		.loc 1 880 0
  69 0020 2E4E     		ldr	r6, .L11+20
  70              	.LBE64:
  71              		.loc 1 870 0
  72 0022 2DED028B 		fstmfdd	sp!, {d8}
  73              		.cfi_def_cfa_offset 44
  74              		.cfi_offset 80, -44
  75              		.cfi_offset 81, -40
  76              	.LBB75:
  77              		.loc 1 883 0
  78 0026 DFED2E8A 		flds	s17, .L11+24
  79 002a 9FED2E8A 		flds	s16, .L11+28
  80              	.LBE75:
  81              	.LBB76:
  82              	.LBB62:
  83              		.loc 2 135 0
  84 002e 9961     		str	r1, [r3, #24]
  85              	.LBE62:
  86              	.LBE76:
  87              		.loc 1 870 0
  88 0030 85B0     		sub	sp, sp, #20
  89              		.cfi_def_cfa_offset 64
  90              		.loc 1 875 0
  91 0032 1360     		str	r3, [r2]
  92              	.LVL1:
  93              	.L5:
  94              	.LBB77:
  95              		.loc 1 880 0
  96 0034 2C4D     		ldr	r5, .L11+32
  97              		.loc 1 878 0
  98 0036 0120     		movs	r0, #1
  99 0038 FFF7FEFF 		bl	chEvtWaitAny
 100              	.LVL2:
 101              		.loc 1 880 0
 102 003c 2946     		mov	r1, r5
 103 003e 9BED000A 		flds	s0, [fp]
 104 0042 DAED000A 		flds	s1, [r10]
 105 0046 99ED001A 		flds	s2, [r9]
 106 004a 2448     		ldr	r0, .L11+20
 107 004c 274A     		ldr	r2, .L11+36
 108 004e 224B     		ldr	r3, .L11+16
 109 0050 FFF7FEFF 		bl	conf_general_detect_motor_param
 110              	.LVL3:
 111 0054 0028     		cmp	r0, #0
 112 0056 31D0     		beq	.L2
 113 0058 D6ED007A 		flds	s15, [r6]
 114 005c 67EE887A 		fmuls	s15, s15, s16
ARM GAS  /tmp/ccy8OeyM.s 			page 3


 115 0060 FDEEE77A 		ftosizs	s15, s15
 116 0064 CDED017A 		fsts	s15, [sp, #4]	@ int
 117              	.L3:
 118              		.loc 1 888 0
 119 0068 0122     		movs	r2, #1
 120 006a 1723     		movs	r3, #23
 121              		.loc 1 889 0
 122 006c 1948     		ldr	r0, .L11+12
 123              		.loc 1 888 0
 124 006e 0392     		str	r2, [sp, #12]
 125              		.loc 1 889 0
 126 0070 0199     		ldr	r1, [sp, #4]
 127              		.loc 1 888 0
 128 0072 2370     		strb	r3, [r4]
 129              		.loc 1 889 0
 130 0074 03AA     		add	r2, sp, #12
 131 0076 FFF7FEFF 		bl	buffer_append_int32
 132              	.LVL4:
 133              		.loc 1 890 0
 134 007a D8ED007A 		flds	s15, [r8]
 135 007e 1548     		ldr	r0, .L11+12
 136 0080 67EE887A 		fmuls	s15, s15, s16
 137 0084 03AA     		add	r2, sp, #12
 138 0086 FDEEE77A 		ftosizs	s15, s15
 139 008a 17EE901A 		fmrs	r1, s15	@ int
 140 008e FFF7FEFF 		bl	buffer_append_int32
 141              	.LVL5:
 142              	.LBB65:
 143              	.LBB66:
 144              		.loc 1 94 0
 145 0092 1749     		ldr	r1, .L11+40
 146              	.LBE66:
 147              	.LBE65:
 148              		.loc 1 891 0
 149 0094 154A     		ldr	r2, .L11+36
 150 0096 039B     		ldr	r3, [sp, #12]
 151              	.LBB71:
 152              	.LBB67:
 153              		.loc 1 94 0
 154 0098 0D68     		ldr	r5, [r1]
 155              	.LBE67:
 156              	.LBE71:
 157              		.loc 1 891 0
 158 009a 03CA     		ldmia	r2!, {r0, r1}
 159 009c 04EB030E 		add	lr, r4, r3
 160 00a0 E050     		str	r0, [r4, r3]	@ unaligned
 161              		.loc 1 893 0
 162 00a2 3A68     		ldr	r2, [r7]
 163              		.loc 1 891 0
 164 00a4 CEF80410 		str	r1, [lr, #4]	@ unaligned
 165              		.loc 1 893 0
 166 00a8 0933     		adds	r3, r3, #9
 167              	.LBB72:
 168              	.LBB68:
 169              		.loc 1 95 0
 170 00aa 0A48     		ldr	r0, .L11+12
 171              	.LBE68:
ARM GAS  /tmp/ccy8OeyM.s 			page 4


 172              	.LBE72:
 173              		.loc 1 893 0
 174 00ac 0393     		str	r3, [sp, #12]
 175              	.LBB73:
 176              	.LBB69:
 177              		.loc 1 95 0
 178 00ae 1946     		mov	r1, r3
 179              	.LBE69:
 180              	.LBE73:
 181              		.loc 1 893 0
 182 00b0 8EF80820 		strb	r2, [lr, #8]
 183              	.LVL6:
 184              	.LBB74:
 185              	.LBB70:
 186              		.loc 1 94 0
 187 00b4 002D     		cmp	r5, #0
 188 00b6 BDD0     		beq	.L5
 189              		.loc 1 95 0
 190 00b8 A847     		blx	r5
 191              	.LVL7:
 192              	.LBE70:
 193              	.LBE74:
 194              	.LBE77:
 195              		.loc 1 895 0
 196 00ba BBE7     		b	.L5
 197              	.LVL8:
 198              	.L2:
 199              	.LBB78:
 200              		.loc 1 883 0
 201 00bc C6ED008A 		fsts	s17, [r6]
 202              		.loc 1 884 0
 203 00c0 C5ED008A 		fsts	s17, [r5]
 204 00c4 0190     		str	r0, [sp, #4]
 205 00c6 CFE7     		b	.L3
 206              	.L12:
 207              		.align	2
 208              	.L11:
 209 00c8 00000000 		.word	ch
 210 00cc 00000000 		.word	.LANCHOR0
 211 00d0 00000000 		.word	.LC0
 212 00d4 00000000 		.word	.LANCHOR8
 213 00d8 00000000 		.word	.LANCHOR7
 214 00dc 00000000 		.word	.LANCHOR4
 215 00e0 00000000 		.word	0
 216 00e4 00007A44 		.word	1148846080
 217 00e8 00000000 		.word	.LANCHOR5
 218 00ec 00000000 		.word	.LANCHOR6
 219 00f0 00000000 		.word	.LANCHOR9
 220 00f4 00000000 		.word	.LANCHOR1
 221 00f8 00000000 		.word	.LANCHOR2
 222 00fc 00000000 		.word	.LANCHOR3
 223              	.LBE78:
 224              		.cfi_endproc
 225              	.LFE267:
 226              		.size	detect_thread, .-detect_thread
 227              		.section	.text.commands_init,"ax",%progbits
 228              		.align	2
ARM GAS  /tmp/ccy8OeyM.s 			page 5


 229              		.p2align 4,,15
 230              		.global	commands_init
 231              		.thumb
 232              		.thumb_func
 233              		.type	commands_init, %function
 234              	commands_init:
 235              	.LFB256:
 236              		.loc 1 70 0
 237              		.cfi_startproc
 238              		@ args = 0, pretend = 0, frame = 0
 239              		@ frame_needed = 0, uses_anonymous_args = 0
 240 0000 00B5     		push	{lr}
 241              		.cfi_def_cfa_offset 4
 242              		.cfi_offset 14, -4
 243 0002 83B0     		sub	sp, sp, #12
 244              		.cfi_def_cfa_offset 16
 245              		.loc 1 71 0
 246 0004 0023     		movs	r3, #0
 247 0006 0093     		str	r3, [sp]
 248 0008 40F69811 		movw	r1, #2456
 249 000c 034B     		ldr	r3, .L15
 250 000e 0448     		ldr	r0, .L15+4
 251 0010 4022     		movs	r2, #64
 252 0012 FFF7FEFF 		bl	chThdCreateStatic
 253              	.LVL9:
 254              		.loc 1 72 0
 255 0016 03B0     		add	sp, sp, #12
 256              		.cfi_def_cfa_offset 4
 257              		@ sp needed
 258 0018 5DF804FB 		ldr	pc, [sp], #4
 259              	.L16:
 260              		.align	2
 261              	.L15:
 262 001c 00000000 		.word	detect_thread
 263 0020 00000000 		.word	.LANCHOR10
 264              		.cfi_endproc
 265              	.LFE256:
 266              		.size	commands_init, .-commands_init
 267              		.section	.text.commands_set_send_func,"ax",%progbits
 268              		.align	2
 269              		.p2align 4,,15
 270              		.global	commands_set_send_func
 271              		.thumb
 272              		.thumb_func
 273              		.type	commands_set_send_func, %function
 274              	commands_set_send_func:
 275              	.LFB257:
 276              		.loc 1 80 0
 277              		.cfi_startproc
 278              		@ args = 0, pretend = 0, frame = 0
 279              		@ frame_needed = 0, uses_anonymous_args = 0
 280              		@ link register save eliminated.
 281              	.LVL10:
 282              		.loc 1 81 0
 283 0000 014B     		ldr	r3, .L18
 284 0002 1860     		str	r0, [r3]
 285 0004 7047     		bx	lr
ARM GAS  /tmp/ccy8OeyM.s 			page 6


 286              	.L19:
 287 0006 00BF     		.align	2
 288              	.L18:
 289 0008 00000000 		.word	.LANCHOR9
 290              		.cfi_endproc
 291              	.LFE257:
 292              		.size	commands_set_send_func, .-commands_set_send_func
 293              		.section	.text.commands_send_packet,"ax",%progbits
 294              		.align	2
 295              		.p2align 4,,15
 296              		.global	commands_send_packet
 297              		.thumb
 298              		.thumb_func
 299              		.type	commands_send_packet, %function
 300              	commands_send_packet:
 301              	.LFB258:
 302              		.loc 1 93 0
 303              		.cfi_startproc
 304              		@ args = 0, pretend = 0, frame = 0
 305              		@ frame_needed = 0, uses_anonymous_args = 0
 306              		@ link register save eliminated.
 307              	.LVL11:
 308              		.loc 1 94 0
 309 0000 024B     		ldr	r3, .L22
 310 0002 1B68     		ldr	r3, [r3]
 311 0004 03B1     		cbz	r3, .L20
 312              		.loc 1 95 0
 313 0006 1847     		bx	r3	@ indirect register sibling call
 314              	.LVL12:
 315              	.L20:
 316 0008 7047     		bx	lr
 317              	.L23:
 318 000a 00BF     		.align	2
 319              	.L22:
 320 000c 00000000 		.word	.LANCHOR9
 321              		.cfi_endproc
 322              	.LFE258:
 323              		.size	commands_send_packet, .-commands_send_packet
 324              		.section	.text.commands_process_packet,"ax",%progbits
 325              		.align	2
 326              		.p2align 4,,15
 327              		.global	commands_process_packet
 328              		.thumb
 329              		.thumb_func
 330              		.type	commands_process_packet, %function
 331              	commands_process_packet:
 332              	.LFB259:
 333              		.loc 1 108 0
 334              		.cfi_startproc
 335              		@ args = 0, pretend = 0, frame = 176
 336              		@ frame_needed = 0, uses_anonymous_args = 0
 337              	.LVL13:
 338              		.loc 1 109 0
 339 0000 A9B3     		cbz	r1, .L130
 340              		.loc 1 108 0
 341 0002 2DE9F047 		push	{r4, r5, r6, r7, r8, r9, r10, lr}
 342              		.cfi_def_cfa_offset 32
ARM GAS  /tmp/ccy8OeyM.s 			page 7


 343              		.cfi_offset 4, -32
 344              		.cfi_offset 5, -28
 345              		.cfi_offset 6, -24
 346              		.cfi_offset 7, -20
 347              		.cfi_offset 8, -16
 348              		.cfi_offset 9, -12
 349              		.cfi_offset 10, -8
 350              		.cfi_offset 14, -4
 351 0006 2DED068B 		fstmfdd	sp!, {d8, d9, d10}
 352              		.cfi_def_cfa_offset 56
 353              		.cfi_offset 80, -56
 354              		.cfi_offset 81, -52
 355              		.cfi_offset 82, -48
 356              		.cfi_offset 83, -44
 357              		.cfi_offset 84, -40
 358              		.cfi_offset 85, -36
 359              		.loc 1 124 0
 360 000a 0446     		mov	r4, r0
 361              		.loc 1 108 0
 362 000c ACB0     		sub	sp, sp, #176
 363              		.cfi_def_cfa_offset 232
 364              		.loc 1 124 0
 365 000e 14F8018B 		ldrb	r8, [r4], #1	@ zero_extendqisi2
 366              	.LVL14:
 367              		.loc 1 114 0
 368 0012 0023     		movs	r3, #0
 369 0014 0746     		mov	r7, r0
 370 0016 0293     		str	r3, [sp, #8]
 371              		.loc 1 126 0
 372 0018 4D1E     		subs	r5, r1, #1
 373              	.LVL15:
 374              		.loc 1 128 0
 375 001a B8F1230F 		cmp	r8, #35
 376 001e 00F2B681 		bhi	.L24
 377 0022 DFE818F0 		tbh	[pc, r8, lsl #1]
 378              	.L28:
 379 0026 E903     		.2byte	(.L27-.L28)/2
 380 0028 E603     		.2byte	(.L29-.L28)/2
 381 002a D103     		.2byte	(.L30-.L28)/2
 382 002c B503     		.2byte	(.L31-.L28)/2
 383 002e 4C02     		.2byte	(.L32-.L28)/2
 384 0030 3B02     		.2byte	(.L33-.L28)/2
 385 0032 2A02     		.2byte	(.L34-.L28)/2
 386 0034 1902     		.2byte	(.L35-.L28)/2
 387 0036 0C02     		.2byte	(.L36-.L28)/2
 388 0038 2D04     		.2byte	(.L37-.L28)/2
 389 003a B901     		.2byte	(.L38-.L28)/2
 390 003c B401     		.2byte	(.L24-.L28)/2
 391 003e D508     		.2byte	(.L39-.L28)/2
 392 0040 E105     		.2byte	(.L40-.L28)/2
 393 0042 E105     		.2byte	(.L40-.L28)/2
 394 0044 E30B     		.2byte	(.L41-.L28)/2
 395 0046 2500     		.2byte	(.L42-.L28)/2
 396 0048 2500     		.2byte	(.L42-.L28)/2
 397 004a C00B     		.2byte	(.L43-.L28)/2
 398 004c CA05     		.2byte	(.L44-.L28)/2
 399 004e B401     		.2byte	(.L24-.L28)/2
ARM GAS  /tmp/ccy8OeyM.s 			page 8


 400 0050 B401     		.2byte	(.L24-.L28)/2
 401 0052 B401     		.2byte	(.L24-.L28)/2
 402 0054 9E0B     		.2byte	(.L45-.L28)/2
 403 0056 8B05     		.2byte	(.L46-.L28)/2
 404 0058 4705     		.2byte	(.L47-.L28)/2
 405 005a CD04     		.2byte	(.L48-.L28)/2
 406 005c 8004     		.2byte	(.L49-.L28)/2
 407 005e 7E04     		.2byte	(.L50-.L28)/2
 408 0060 D001     		.2byte	(.L51-.L28)/2
 409 0062 DD01     		.2byte	(.L52-.L28)/2
 410 0064 4C04     		.2byte	(.L53-.L28)/2
 411 0066 3E04     		.2byte	(.L54-.L28)/2
 412 0068 2604     		.2byte	(.L55-.L28)/2
 413 006a 0104     		.2byte	(.L56-.L28)/2
 414 006c F903     		.2byte	(.L57-.L28)/2
 415              	.LVL16:
 416              		.p2align 1
 417              	.L130:
 418              		.cfi_def_cfa_offset 0
 419              		.cfi_restore 4
 420              		.cfi_restore 5
 421              		.cfi_restore 6
 422              		.cfi_restore 7
 423              		.cfi_restore 8
 424              		.cfi_restore 9
 425              		.cfi_restore 10
 426              		.cfi_restore 14
 427              		.cfi_restore 80
 428              		.cfi_restore 81
 429              		.cfi_restore 82
 430              		.cfi_restore 83
 431              		.cfi_restore 84
 432              		.cfi_restore 85
 433 006e 7047     		bx	lr
 434              	.LVL17:
 435              	.L42:
 436              		.cfi_def_cfa_offset 232
 437              		.cfi_offset 4, -32
 438              		.cfi_offset 5, -28
 439              		.cfi_offset 6, -24
 440              		.cfi_offset 7, -20
 441              		.cfi_offset 8, -16
 442              		.cfi_offset 9, -12
 443              		.cfi_offset 10, -8
 444              		.cfi_offset 14, -4
 445              		.cfi_offset 80, -56
 446              		.cfi_offset 81, -52
 447              		.cfi_offset 82, -48
 448              		.cfi_offset 83, -44
 449              		.cfi_offset 84, -40
 450              		.cfi_offset 85, -36
 451              		.loc 1 524 0
 452 0070 B8F1100F 		cmp	r8, #16
 453 0074 01F09485 		beq	.L141
 454              		.loc 1 527 0
 455 0078 04A8     		add	r0, sp, #16
 456 007a FFF7FEFF 		bl	conf_general_get_default_app_configuration
ARM GAS  /tmp/ccy8OeyM.s 			page 9


 457              	.LVL18:
 458              	.L65:
 459              		.loc 1 531 0
 460 007e D34C     		ldr	r4, .L146
 461              	.LVL19:
 462              		.loc 1 532 0
 463 0080 9DF81050 		ldrb	r5, [sp, #16]	@ zero_extendqisi2
 464              	.LVL20:
 465              		.loc 1 533 0
 466 0084 0599     		ldr	r1, [sp, #20]
 467              		.loc 1 534 0
 468 0086 9FEDD28A 		flds	s16, .L146+4
 469              		.loc 1 531 0
 470 008a 84F80080 		strb	r8, [r4]
 471              		.loc 1 532 0
 472 008e 0223     		movs	r3, #2
 473              		.loc 1 533 0
 474 0090 2046     		mov	r0, r4
 475 0092 02AA     		add	r2, sp, #8
 476              		.loc 1 532 0
 477 0094 0293     		str	r3, [sp, #8]
 478 0096 6570     		strb	r5, [r4, #1]
 479              		.loc 1 533 0
 480 0098 FFF7FEFF 		bl	buffer_append_uint32
 481              	.LVL21:
 482              		.loc 1 534 0
 483 009c DDED067A 		flds	s15, [sp, #24]
 484 00a0 67EE887A 		fmuls	s15, s15, s16
 485 00a4 2046     		mov	r0, r4
 486 00a6 FDEEE77A 		ftosizs	s15, s15
 487 00aa 02AA     		add	r2, sp, #8
 488 00ac 17EE901A 		fmrs	r1, s15	@ int
 489 00b0 FFF7FEFF 		bl	buffer_append_int32
 490              	.LVL22:
 491              		.loc 1 535 0
 492 00b4 029B     		ldr	r3, [sp, #8]
 493 00b6 9DF81C20 		ldrb	r2, [sp, #28]	@ zero_extendqisi2
 494 00ba E254     		strb	r2, [r4, r3]
 495              		.loc 1 536 0
 496 00bc BDF82010 		ldrh	r1, [sp, #32]
 497              		.loc 1 535 0
 498 00c0 0133     		adds	r3, r3, #1
 499              		.loc 1 536 0
 500 00c2 2046     		mov	r0, r4
 501 00c4 02AA     		add	r2, sp, #8
 502              		.loc 1 535 0
 503 00c6 0293     		str	r3, [sp, #8]
 504              		.loc 1 536 0
 505 00c8 FFF7FEFF 		bl	buffer_append_uint16
 506              	.LVL23:
 507              		.loc 1 541 0
 508 00cc DDED0B7A 		flds	s15, [sp, #44]
 509              		.loc 1 538 0
 510 00d0 029B     		ldr	r3, [sp, #8]
 511 00d2 9DF82420 		ldrb	r2, [sp, #36]	@ zero_extendqisi2
 512 00d6 E254     		strb	r2, [r4, r3]
 513              		.loc 1 541 0
ARM GAS  /tmp/ccy8OeyM.s 			page 10


 514 00d8 67EE887A 		fmuls	s15, s15, s16
 515              		.loc 1 540 0
 516 00dc E518     		adds	r5, r4, r3
 517              		.loc 1 541 0
 518 00de FDEEE77A 		ftosizs	s15, s15
 519              		.loc 1 540 0
 520 00e2 0233     		adds	r3, r3, #2
 521 00e4 9DF82860 		ldrb	r6, [sp, #40]	@ zero_extendqisi2
 522 00e8 0293     		str	r3, [sp, #8]
 523              		.loc 1 541 0
 524 00ea 17EE901A 		fmrs	r1, s15	@ int
 525 00ee 2046     		mov	r0, r4
 526 00f0 02AA     		add	r2, sp, #8
 527              		.loc 1 540 0
 528 00f2 6E70     		strb	r6, [r5, #1]
 529              		.loc 1 541 0
 530 00f4 FFF7FEFF 		bl	buffer_append_int32
 531              	.LVL24:
 532              		.loc 1 542 0
 533 00f8 DDED0C7A 		flds	s15, [sp, #48]
 534 00fc 67EE887A 		fmuls	s15, s15, s16
 535 0100 2046     		mov	r0, r4
 536 0102 FDEEE77A 		ftosizs	s15, s15
 537 0106 02AA     		add	r2, sp, #8
 538 0108 17EE901A 		fmrs	r1, s15	@ int
 539 010c FFF7FEFF 		bl	buffer_append_int32
 540              	.LVL25:
 541              		.loc 1 543 0
 542 0110 DDED0D7A 		flds	s15, [sp, #52]
 543 0114 67EE887A 		fmuls	s15, s15, s16
 544 0118 2046     		mov	r0, r4
 545 011a FDEEE77A 		ftosizs	s15, s15
 546 011e 02AA     		add	r2, sp, #8
 547 0120 17EE901A 		fmrs	r1, s15	@ int
 548 0124 FFF7FEFF 		bl	buffer_append_int32
 549              	.LVL26:
 550              		.loc 1 544 0
 551 0128 DDED0E7A 		flds	s15, [sp, #56]
 552 012c 67EE887A 		fmuls	s15, s15, s16
 553 0130 2046     		mov	r0, r4
 554 0132 FDEEE77A 		ftosizs	s15, s15
 555 0136 02AA     		add	r2, sp, #8
 556 0138 17EE901A 		fmrs	r1, s15	@ int
 557 013c FFF7FEFF 		bl	buffer_append_int32
 558              	.LVL27:
 559              		.loc 1 547 0
 560 0140 DDED107A 		flds	s15, [sp, #64]
 561              		.loc 1 545 0
 562 0144 029B     		ldr	r3, [sp, #8]
 563 0146 9DF83C20 		ldrb	r2, [sp, #60]	@ zero_extendqisi2
 564 014a E254     		strb	r2, [r4, r3]
 565              		.loc 1 547 0
 566 014c 67EE887A 		fmuls	s15, s15, s16
 567              		.loc 1 546 0
 568 0150 E518     		adds	r5, r4, r3
 569              		.loc 1 547 0
 570 0152 FDEEE77A 		ftosizs	s15, s15
ARM GAS  /tmp/ccy8OeyM.s 			page 11


 571              		.loc 1 546 0
 572 0156 0233     		adds	r3, r3, #2
 573 0158 9DF83D60 		ldrb	r6, [sp, #61]	@ zero_extendqisi2
 574 015c 0293     		str	r3, [sp, #8]
 575              		.loc 1 547 0
 576 015e 17EE901A 		fmrs	r1, s15	@ int
 577 0162 2046     		mov	r0, r4
 578 0164 02AA     		add	r2, sp, #8
 579              		.loc 1 546 0
 580 0166 6E70     		strb	r6, [r5, #1]
 581              		.loc 1 547 0
 582 0168 FFF7FEFF 		bl	buffer_append_int32
 583              	.LVL28:
 584              		.loc 1 548 0
 585 016c DDED117A 		flds	s15, [sp, #68]
 586 0170 67EE887A 		fmuls	s15, s15, s16
 587 0174 2046     		mov	r0, r4
 588 0176 FDEEE77A 		ftosizs	s15, s15
 589 017a 02AA     		add	r2, sp, #8
 590 017c 17EE901A 		fmrs	r1, s15	@ int
 591 0180 FFF7FEFF 		bl	buffer_append_int32
 592              	.LVL29:
 593              		.loc 1 551 0
 594 0184 DDED137A 		flds	s15, [sp, #76]
 595              		.loc 1 549 0
 596 0188 029B     		ldr	r3, [sp, #8]
 597 018a 9DF84820 		ldrb	r2, [sp, #72]	@ zero_extendqisi2
 598 018e E254     		strb	r2, [r4, r3]
 599              		.loc 1 551 0
 600 0190 67EE887A 		fmuls	s15, s15, s16
 601              		.loc 1 550 0
 602 0194 E518     		adds	r5, r4, r3
 603              		.loc 1 551 0
 604 0196 FDEEE77A 		ftosizs	s15, s15
 605              		.loc 1 550 0
 606 019a 9DF84960 		ldrb	r6, [sp, #73]	@ zero_extendqisi2
 607 019e 6E70     		strb	r6, [r5, #1]
 608              		.loc 1 551 0
 609 01a0 17EE901A 		fmrs	r1, s15	@ int
 610              		.loc 1 550 0
 611 01a4 0233     		adds	r3, r3, #2
 612              		.loc 1 551 0
 613 01a6 2046     		mov	r0, r4
 614 01a8 02AA     		add	r2, sp, #8
 615              		.loc 1 550 0
 616 01aa 0293     		str	r3, [sp, #8]
 617              		.loc 1 551 0
 618 01ac FFF7FEFF 		bl	buffer_append_int32
 619              	.LVL30:
 620              		.loc 1 554 0
 621 01b0 DDED157A 		flds	s15, [sp, #84]
 622              		.loc 1 553 0
 623 01b4 029B     		ldr	r3, [sp, #8]
 624 01b6 9DF85020 		ldrb	r2, [sp, #80]	@ zero_extendqisi2
 625 01ba E254     		strb	r2, [r4, r3]
 626              		.loc 1 554 0
 627 01bc 67EE887A 		fmuls	s15, s15, s16
ARM GAS  /tmp/ccy8OeyM.s 			page 12


 628              		.loc 1 553 0
 629 01c0 0133     		adds	r3, r3, #1
 630              		.loc 1 554 0
 631 01c2 FDEEE77A 		ftosizs	s15, s15
 632 01c6 2046     		mov	r0, r4
 633 01c8 17EE901A 		fmrs	r1, s15	@ int
 634 01cc 02AA     		add	r2, sp, #8
 635              		.loc 1 553 0
 636 01ce 0293     		str	r3, [sp, #8]
 637              		.loc 1 554 0
 638 01d0 FFF7FEFF 		bl	buffer_append_int32
 639              	.LVL31:
 640              		.loc 1 555 0
 641 01d4 DDED167A 		flds	s15, [sp, #88]
 642 01d8 67EE887A 		fmuls	s15, s15, s16
 643 01dc 2046     		mov	r0, r4
 644 01de FDEEE77A 		ftosizs	s15, s15
 645 01e2 02AA     		add	r2, sp, #8
 646 01e4 17EE901A 		fmrs	r1, s15	@ int
 647 01e8 FFF7FEFF 		bl	buffer_append_int32
 648              	.LVL32:
 649              		.loc 1 556 0
 650 01ec DDED177A 		flds	s15, [sp, #92]
 651 01f0 67EE887A 		fmuls	s15, s15, s16
 652 01f4 2046     		mov	r0, r4
 653 01f6 FDEEE77A 		ftosizs	s15, s15
 654 01fa 02AA     		add	r2, sp, #8
 655 01fc 17EE901A 		fmrs	r1, s15	@ int
 656 0200 FFF7FEFF 		bl	buffer_append_int32
 657              	.LVL33:
 658              		.loc 1 562 0
 659 0204 DDED1A7A 		flds	s15, [sp, #104]
 660              		.loc 1 557 0
 661 0208 029B     		ldr	r3, [sp, #8]
 662 020a 9DF86020 		ldrb	r2, [sp, #96]	@ zero_extendqisi2
 663              		.loc 1 558 0
 664 020e 9DF861C0 		ldrb	ip, [sp, #97]	@ zero_extendqisi2
 665              		.loc 1 559 0
 666 0212 9DF862E0 		ldrb	lr, [sp, #98]	@ zero_extendqisi2
 667              		.loc 1 557 0
 668 0216 E254     		strb	r2, [r4, r3]
 669              		.loc 1 562 0
 670 0218 67EE887A 		fmuls	s15, s15, s16
 671              		.loc 1 558 0
 672 021c E518     		adds	r5, r4, r3
 673              		.loc 1 562 0
 674 021e FDEEE77A 		ftosizs	s15, s15
 675              		.loc 1 561 0
 676 0222 0533     		adds	r3, r3, #5
 677              		.loc 1 560 0
 678 0224 9DF86370 		ldrb	r7, [sp, #99]	@ zero_extendqisi2
 679              	.LVL34:
 680              		.loc 1 561 0
 681 0228 9DF86460 		ldrb	r6, [sp, #100]	@ zero_extendqisi2
 682              		.loc 1 558 0
 683 022c 85F801C0 		strb	ip, [r5, #1]
 684              		.loc 1 562 0
ARM GAS  /tmp/ccy8OeyM.s 			page 13


 685 0230 17EE901A 		fmrs	r1, s15	@ int
 686 0234 2046     		mov	r0, r4
 687 0236 02AA     		add	r2, sp, #8
 688              		.loc 1 559 0
 689 0238 85F802E0 		strb	lr, [r5, #2]
 690              		.loc 1 561 0
 691 023c 0293     		str	r3, [sp, #8]
 692              		.loc 1 560 0
 693 023e EF70     		strb	r7, [r5, #3]
 694              		.loc 1 561 0
 695 0240 2E71     		strb	r6, [r5, #4]
 696              		.loc 1 562 0
 697 0242 FFF7FEFF 		bl	buffer_append_int32
 698              	.LVL35:
 699              		.loc 1 563 0
 700 0246 DDED1B7A 		flds	s15, [sp, #108]
 701 024a 67EE887A 		fmuls	s15, s15, s16
 702 024e 2046     		mov	r0, r4
 703 0250 FDEEE77A 		ftosizs	s15, s15
 704 0254 02AA     		add	r2, sp, #8
 705 0256 17EE901A 		fmrs	r1, s15	@ int
 706 025a FFF7FEFF 		bl	buffer_append_int32
 707              	.LVL36:
 708              		.loc 1 566 0
 709 025e DDED1D7A 		flds	s15, [sp, #116]
 710              		.loc 1 564 0
 711 0262 029B     		ldr	r3, [sp, #8]
 712 0264 9DF87020 		ldrb	r2, [sp, #112]	@ zero_extendqisi2
 713 0268 E254     		strb	r2, [r4, r3]
 714              		.loc 1 566 0
 715 026a 67EE887A 		fmuls	s15, s15, s16
 716              		.loc 1 565 0
 717 026e E518     		adds	r5, r4, r3
 718              		.loc 1 566 0
 719 0270 FDEEE77A 		ftosizs	s15, s15
 720              		.loc 1 565 0
 721 0274 0233     		adds	r3, r3, #2
 722              		.loc 1 566 0
 723 0276 17EE901A 		fmrs	r1, s15	@ int
 724              		.loc 1 565 0
 725 027a 9DF87160 		ldrb	r6, [sp, #113]	@ zero_extendqisi2
 726 027e 0293     		str	r3, [sp, #8]
 727              		.loc 1 566 0
 728 0280 2046     		mov	r0, r4
 729 0282 02AA     		add	r2, sp, #8
 730              		.loc 1 565 0
 731 0284 6E70     		strb	r6, [r5, #1]
 732              		.loc 1 566 0
 733 0286 FFF7FEFF 		bl	buffer_append_int32
 734              	.LVL37:
 735              		.loc 1 567 0
 736 028a 2046     		mov	r0, r4
 737 028c 02AA     		add	r2, sp, #8
 738 028e BDF87810 		ldrh	r1, [sp, #120]
 739 0292 FFF7FEFF 		bl	buffer_append_uint16
 740              	.LVL38:
 741              		.loc 1 569 0
ARM GAS  /tmp/ccy8OeyM.s 			page 14


 742 0296 2046     		mov	r0, r4
 743 0298 02AA     		add	r2, sp, #8
 744 029a 1F99     		ldr	r1, [sp, #124]
 745 029c FFF7FEFF 		bl	buffer_append_uint32
 746              	.LVL39:
 747              		.loc 1 571 0
 748 02a0 029B     		ldr	r3, [sp, #8]
 749 02a2 9DF88020 		ldrb	r2, [sp, #128]	@ zero_extendqisi2
 750 02a6 E254     		strb	r2, [r4, r3]
 751              		.loc 1 572 0
 752 02a8 F0EE480A 		fcpys	s1, s16
 753              		.loc 1 571 0
 754 02ac 0133     		adds	r3, r3, #1
 755              		.loc 1 572 0
 756 02ae 2046     		mov	r0, r4
 757 02b0 02A9     		add	r1, sp, #8
 758 02b2 9DED210A 		flds	s0, [sp, #132]
 759              		.loc 1 571 0
 760 02b6 0293     		str	r3, [sp, #8]
 761              		.loc 1 572 0
 762 02b8 FFF7FEFF 		bl	buffer_append_float32
 763              	.LVL40:
 764              		.loc 1 573 0
 765 02bc F0EE480A 		fcpys	s1, s16
 766 02c0 2046     		mov	r0, r4
 767 02c2 02A9     		add	r1, sp, #8
 768 02c4 9DED220A 		flds	s0, [sp, #136]
 769 02c8 FFF7FEFF 		bl	buffer_append_float32
 770              	.LVL41:
 771              		.loc 1 574 0
 772 02cc F0EE480A 		fcpys	s1, s16
 773 02d0 2046     		mov	r0, r4
 774 02d2 02A9     		add	r1, sp, #8
 775 02d4 9DED230A 		flds	s0, [sp, #140]
 776 02d8 FFF7FEFF 		bl	buffer_append_float32
 777              	.LVL42:
 778              		.loc 1 575 0
 779 02dc F0EE480A 		fcpys	s1, s16
 780 02e0 2046     		mov	r0, r4
 781 02e2 02A9     		add	r1, sp, #8
 782 02e4 9DED240A 		flds	s0, [sp, #144]
 783 02e8 FFF7FEFF 		bl	buffer_append_float32
 784              	.LVL43:
 785              		.loc 1 576 0
 786 02ec F0EE480A 		fcpys	s1, s16
 787 02f0 2046     		mov	r0, r4
 788 02f2 02A9     		add	r1, sp, #8
 789 02f4 9DED250A 		flds	s0, [sp, #148]
 790 02f8 FFF7FEFF 		bl	buffer_append_float32
 791              	.LVL44:
 792              		.loc 1 577 0
 793 02fc F0EE480A 		fcpys	s1, s16
 794 0300 2046     		mov	r0, r4
 795 0302 02A9     		add	r1, sp, #8
 796 0304 9DED260A 		flds	s0, [sp, #152]
 797 0308 FFF7FEFF 		bl	buffer_append_float32
 798              	.LVL45:
ARM GAS  /tmp/ccy8OeyM.s 			page 15


 799              		.loc 1 580 0
 800 030c DDED287A 		flds	s15, [sp, #160]
 801              		.loc 1 578 0
 802 0310 029B     		ldr	r3, [sp, #8]
 803 0312 9DF89C20 		ldrb	r2, [sp, #156]	@ zero_extendqisi2
 804 0316 E254     		strb	r2, [r4, r3]
 805              		.loc 1 580 0
 806 0318 27EE888A 		fmuls	s16, s15, s16
 807              		.loc 1 579 0
 808 031c E518     		adds	r5, r4, r3
 809              		.loc 1 580 0
 810 031e FDEEC87A 		ftosizs	s15, s16
 811              		.loc 1 579 0
 812 0322 0233     		adds	r3, r3, #2
 813 0324 9DF89D60 		ldrb	r6, [sp, #157]	@ zero_extendqisi2
 814 0328 0293     		str	r3, [sp, #8]
 815              		.loc 1 580 0
 816 032a 02AA     		add	r2, sp, #8
 817 032c 17EE901A 		fmrs	r1, s15	@ int
 818 0330 2046     		mov	r0, r4
 819              		.loc 1 579 0
 820 0332 6E70     		strb	r6, [r5, #1]
 821              		.loc 1 580 0
 822 0334 FFF7FEFF 		bl	buffer_append_int32
 823              	.LVL46:
 824              		.loc 1 588 0
 825 0338 2CAB     		add	r3, sp, #176
 826              		.loc 1 582 0
 827 033a 029A     		ldr	r2, [sp, #8]
 828              		.loc 1 588 0
 829 033c 33F8069D 		ldrh	r9, [r3, #-6]!	@ unaligned
 830              	.LBB79:
 831              	.LBB80:
 832              		.loc 1 94 0
 833 0340 2449     		ldr	r1, .L146+8
 834              	.LBE80:
 835              	.LBE79:
 836              		.loc 1 588 0
 837 0342 93F802A0 		ldrb	r10, [r3, #2]	@ zero_extendqisi2
 838              	.LBB83:
 839              	.LBB81:
 840              		.loc 1 94 0
 841 0346 0D68     		ldr	r5, [r1]
 842              	.LBE81:
 843              	.LBE83:
 844              		.loc 1 582 0
 845 0348 9DF8A410 		ldrb	r1, [sp, #164]	@ zero_extendqisi2
 846 034c A154     		strb	r1, [r4, r2]
 847              		.loc 1 583 0
 848 034e A318     		adds	r3, r4, r2
 849 0350 9DF8A580 		ldrb	r8, [sp, #165]	@ zero_extendqisi2
 850              	.LVL47:
 851              		.loc 1 584 0
 852 0354 9DF8A6C0 		ldrb	ip, [sp, #166]	@ zero_extendqisi2
 853              		.loc 1 585 0
 854 0358 9DF8A7E0 		ldrb	lr, [sp, #167]	@ zero_extendqisi2
 855              		.loc 1 586 0
ARM GAS  /tmp/ccy8OeyM.s 			page 16


 856 035c 9DF8A870 		ldrb	r7, [sp, #168]	@ zero_extendqisi2
 857              		.loc 1 587 0
 858 0360 9DF8A960 		ldrb	r6, [sp, #169]	@ zero_extendqisi2
 859              		.loc 1 590 0
 860 0364 9DF8AD00 		ldrb	r0, [sp, #173]	@ zero_extendqisi2
 861              		.loc 1 588 0
 862 0368 83F808A0 		strb	r10, [r3, #8]
 863              		.loc 1 590 0
 864 036c 02F10A01 		add	r1, r2, #10
 865              		.loc 1 588 0
 866 0370 A3F80690 		strh	r9, [r3, #6]	@ unaligned
 867              		.loc 1 590 0
 868 0374 0291     		str	r1, [sp, #8]
 869              		.loc 1 583 0
 870 0376 83F80180 		strb	r8, [r3, #1]
 871              		.loc 1 584 0
 872 037a 83F802C0 		strb	ip, [r3, #2]
 873              		.loc 1 585 0
 874 037e 83F803E0 		strb	lr, [r3, #3]
 875              		.loc 1 586 0
 876 0382 1F71     		strb	r7, [r3, #4]
 877              		.loc 1 587 0
 878 0384 5E71     		strb	r6, [r3, #5]
 879              		.loc 1 590 0
 880 0386 5872     		strb	r0, [r3, #9]
 881              	.LVL48:
 882              	.LBB84:
 883              	.LBB82:
 884              		.loc 1 94 0
 885 0388 0DB1     		cbz	r5, .L24
 886              		.loc 1 95 0
 887 038a 2046     		mov	r0, r4
 888 038c A847     		blx	r5
 889              	.LVL49:
 890              	.L24:
 891              	.LBE82:
 892              	.LBE84:
 893              		.loc 1 795 0
 894 038e 2CB0     		add	sp, sp, #176
 895              		.cfi_remember_state
 896              		.cfi_def_cfa_offset 56
 897              		@ sp needed
 898 0390 BDEC068B 		fldmfdd	sp!, {d8-d10}
 899              		.cfi_restore 84
 900              		.cfi_restore 85
 901              		.cfi_restore 82
 902              		.cfi_restore 83
 903              		.cfi_restore 80
 904              		.cfi_restore 81
 905              		.cfi_def_cfa_offset 32
 906 0394 BDE8F087 		pop	{r4, r5, r6, r7, r8, r9, r10, pc}
 907              	.LVL50:
 908              	.L38:
 909              		.cfi_restore_state
 910              		.loc 1 219 0
 911 0398 FFF7FEFF 		bl	mc_interface_get_configuration
 912              	.LVL51:
ARM GAS  /tmp/ccy8OeyM.s 			page 17


 913 039c 0E4C     		ldr	r4, .L146+12
 914              	.LVL52:
 915 039e 0146     		mov	r1, r0
 916 03a0 4FF49A72 		mov	r2, #308
 917 03a4 2046     		mov	r0, r4
 918 03a6 FFF7FEFF 		bl	memcpy
 919              	.LVL53:
 920              		.loc 1 222 0
 921 03aa 0C49     		ldr	r1, .L146+16
 922 03ac 7B78     		ldrb	r3, [r7, #1]	@ zero_extendqisi2
 923              		.loc 1 224 0
 924 03ae A278     		ldrb	r2, [r4, #2]	@ zero_extendqisi2
 925              		.loc 1 222 0
 926 03b0 0B70     		strb	r3, [r1]
 927 03b2 0121     		movs	r1, #1
 928 03b4 0291     		str	r1, [sp, #8]
 929              		.loc 1 224 0
 930 03b6 32B9     		cbnz	r2, .L51
 931              		.loc 1 225 0
 932 03b8 002B     		cmp	r3, #0
 933 03ba 01F0FA83 		beq	.L142
 934              		.loc 1 227 0
 935 03be 012B     		cmp	r3, #1
 936 03c0 01D1     		bne	.L51
 937              		.loc 1 228 0
 938 03c2 FFF7FEFF 		bl	mcpwm_set_detect
 939              	.LVL54:
 940              	.L51:
 941              		.loc 1 742 0
 942 03c6 FFF7FEFF 		bl	timeout_reset
 943              	.LVL55:
 944              		.loc 1 743 0
 945 03ca E0E7     		b	.L24
 946              	.L147:
 947              		.align	2
 948              	.L146:
 949 03cc 00000000 		.word	.LANCHOR8
 950 03d0 00007A44 		.word	1148846080
 951 03d4 00000000 		.word	.LANCHOR9
 952 03d8 00000000 		.word	.LANCHOR11
 953 03dc 00000000 		.word	.LANCHOR12
 954              	.LVL56:
 955              	.L52:
 956              		.loc 1 747 0
 957 03e0 2CAD     		add	r5, sp, #176
 958              	.LVL57:
 959 03e2 DD4C     		ldr	r4, .L148
 960              	.LVL58:
 961              		.loc 1 748 0
 962 03e4 9FEDDD8A 		flds	s16, .L148+4
 963              		.loc 1 747 0
 964 03e8 1E23     		movs	r3, #30
 965 03ea 0122     		movs	r2, #1
 966              		.loc 1 748 0
 967 03ec 0020     		movs	r0, #0
 968              	.LVL59:
 969              		.loc 1 747 0
ARM GAS  /tmp/ccy8OeyM.s 			page 18


 970 03ee 2370     		strb	r3, [r4]
 971 03f0 45F8A82D 		str	r2, [r5, #-168]!
 972              		.loc 1 748 0
 973 03f4 FFF7FEFF 		bl	servodec_get_servo
 974              	.LVL60:
 975 03f8 20EE080A 		fmuls	s0, s0, s16
 976 03fc 2A46     		mov	r2, r5
 977 03fe FDEEC07A 		ftosizs	s15, s0
 978 0402 2046     		mov	r0, r4
 979 0404 17EE901A 		fmrs	r1, s15	@ int
 980 0408 FFF7FEFF 		bl	buffer_append_int32
 981              	.LVL61:
 982              		.loc 1 749 0
 983 040c 0020     		movs	r0, #0
 984 040e FFF7FEFF 		bl	servodec_get_last_pulse_len
 985              	.LVL62:
 986 0412 20EE080A 		fmuls	s0, s0, s16
 987              	.L136:
 988              		.loc 1 766 0
 989 0416 FDEEC07A 		ftosizs	s15, s0
 990 041a 2A46     		mov	r2, r5
 991 041c 17EE901A 		fmrs	r1, s15	@ int
 992 0420 2046     		mov	r0, r4
 993 0422 FFF7FEFF 		bl	buffer_append_int32
 994              	.LVL63:
 995              	.LBB85:
 996              	.LBB86:
 997              		.loc 1 94 0
 998 0426 CE4B     		ldr	r3, .L148+8
 999              	.LBE86:
 1000              	.LBE85:
 1001              		.loc 1 767 0
 1002 0428 0299     		ldr	r1, [sp, #8]
 1003              	.LVL64:
 1004              	.LBB88:
 1005              	.LBB87:
 1006              		.loc 1 94 0
 1007 042a 1B68     		ldr	r3, [r3]
 1008 042c 002B     		cmp	r3, #0
 1009 042e AED0     		beq	.L24
 1010              	.LVL65:
 1011              	.L133:
 1012              		.loc 1 95 0
 1013 0430 2046     		mov	r0, r4
 1014 0432 9847     		blx	r3
 1015              	.LVL66:
 1016              	.LBE87:
 1017              	.LBE88:
 1018              		.loc 1 795 0
 1019 0434 2CB0     		add	sp, sp, #176
 1020              		.cfi_remember_state
 1021              		.cfi_def_cfa_offset 56
 1022              		@ sp needed
 1023 0436 BDEC068B 		fldmfdd	sp!, {d8-d10}
 1024              		.cfi_restore 80
 1025              		.cfi_restore 81
 1026              		.cfi_restore 82
ARM GAS  /tmp/ccy8OeyM.s 			page 19


 1027              		.cfi_restore 83
 1028              		.cfi_restore 84
 1029              		.cfi_restore 85
 1030              		.cfi_def_cfa_offset 32
 1031 043a BDE8F087 		pop	{r4, r5, r6, r7, r8, r9, r10, pc}
 1032              	.LVL67:
 1033              	.L36:
 1034              		.cfi_restore_state
 1035              		.loc 1 208 0
 1036 043e 02A9     		add	r1, sp, #8
 1037 0440 2046     		mov	r0, r4
 1038 0442 FFF7FEFF 		bl	buffer_get_int32
 1039              	.LVL68:
 1040 0446 07EE900A 		fmsr	s15, r0	@ int
 1041 044a B8EEE70A 		fsitos	s0, s15
 1042 044e FFF7FEFF 		bl	mc_interface_set_pid_speed
 1043              	.LVL69:
 1044              		.loc 1 209 0
 1045 0452 FFF7FEFF 		bl	timeout_reset
 1046              	.LVL70:
 1047              		.loc 1 210 0
 1048 0456 9AE7     		b	.L24
 1049              	.L35:
 1050              		.loc 1 202 0
 1051 0458 02A9     		add	r1, sp, #8
 1052 045a 2046     		mov	r0, r4
 1053 045c FFF7FEFF 		bl	buffer_get_int32
 1054              	.LVL71:
 1055 0460 07EE100A 		fmsr	s14, r0	@ int
 1056 0464 DFEDBF7A 		flds	s15, .L148+12
 1057 0468 B8EEC70A 		fsitos	s0, s14
 1058 046c 80EE270A 		fdivs	s0, s0, s15
 1059 0470 FFF7FEFF 		bl	mc_interface_set_brake_current
 1060              	.LVL72:
 1061              		.loc 1 203 0
 1062 0474 FFF7FEFF 		bl	timeout_reset
 1063              	.LVL73:
 1064              		.loc 1 204 0
 1065 0478 89E7     		b	.L24
 1066              	.L34:
 1067              		.loc 1 196 0
 1068 047a 02A9     		add	r1, sp, #8
 1069 047c 2046     		mov	r0, r4
 1070 047e FFF7FEFF 		bl	buffer_get_int32
 1071              	.LVL74:
 1072 0482 07EE100A 		fmsr	s14, r0	@ int
 1073 0486 DFEDB77A 		flds	s15, .L148+12
 1074 048a B8EEC70A 		fsitos	s0, s14
 1075 048e 80EE270A 		fdivs	s0, s0, s15
 1076 0492 FFF7FEFF 		bl	mc_interface_set_current
 1077              	.LVL75:
 1078              		.loc 1 197 0
 1079 0496 FFF7FEFF 		bl	timeout_reset
 1080              	.LVL76:
 1081              		.loc 1 198 0
 1082 049a 78E7     		b	.L24
 1083              	.L33:
ARM GAS  /tmp/ccy8OeyM.s 			page 20


 1084              		.loc 1 190 0
 1085 049c 02A9     		add	r1, sp, #8
 1086 049e 2046     		mov	r0, r4
 1087 04a0 FFF7FEFF 		bl	buffer_get_int32
 1088              	.LVL77:
 1089 04a4 07EE100A 		fmsr	s14, r0	@ int
 1090 04a8 DFEDAF7A 		flds	s15, .L148+16
 1091 04ac B8EEC70A 		fsitos	s0, s14
 1092 04b0 80EE270A 		fdivs	s0, s0, s15
 1093 04b4 FFF7FEFF 		bl	mc_interface_set_duty
 1094              	.LVL78:
 1095              		.loc 1 191 0
 1096 04b8 FFF7FEFF 		bl	timeout_reset
 1097              	.LVL79:
 1098              		.loc 1 192 0
 1099 04bc 67E7     		b	.L24
 1100              	.L32:
 1101              		.loc 1 165 0
 1102 04be AB4E     		ldr	r6, .L148+20
 1103 04c0 9FEDAB9A 		flds	s18, .L148+24
 1104 04c4 7389     		ldrh	r3, [r6, #10]
 1105 04c6 9FEDAB8A 		flds	s16, .L148+28
 1106              		.loc 1 164 0
 1107 04ca A34C     		ldr	r4, .L148
 1108              	.LVL80:
 1109              		.loc 1 165 0
 1110 04cc DFEDAA8A 		flds	s17, .L148+32
 1111 04d0 DFEDAAAA 		flds	s21, .L148+36
 1112 04d4 9FEDAAAA 		flds	s20, .L148+40
 1113 04d8 9BB2     		uxth	r3, r3
 1114 04da 07EE903A 		fmsr	s15, r3	@ int
 1115 04de B8EEE70A 		fsitos	s0, s15
 1116              		.loc 1 164 0
 1117 04e2 2CAD     		add	r5, sp, #176
 1118              	.LVL81:
 1119              		.loc 1 165 0
 1120 04e4 89EE000A 		fdivs	s0, s18, s0
 1121              		.loc 1 164 0
 1122 04e8 0122     		movs	r2, #1
 1123 04ea 0423     		movs	r3, #4
 1124 04ec 45F8A82D 		str	r2, [r5, #-168]!
 1125 04f0 2370     		strb	r3, [r4]
 1126              		.loc 1 165 0
 1127 04f2 F7EE009A 		fconsts	s19, #112
 1128 04f6 30EE480A 		fsubs	s0, s0, s16
 1129 04fa 80EE080A 		fdivs	s0, s0, s16
 1130 04fe FFF7FEFF 		bl	logf
 1131              	.LVL82:
 1132 0502 2946     		mov	r1, r5
 1133 0504 2046     		mov	r0, r4
 1134 0506 80EE280A 		fdivs	s0, s0, s17
 1135 050a F2EE040A 		fconsts	s1, #36
 1136 050e 30EE2A0A 		fadds	s0, s0, s21
 1137 0512 89EE800A 		fdivs	s0, s19, s0
 1138 0516 30EE4A0A 		fsubs	s0, s0, s20
 1139 051a FFF7FEFF 		bl	buffer_append_float16
 1140              	.LVL83:
ARM GAS  /tmp/ccy8OeyM.s 			page 21


 1141              		.loc 1 166 0
 1142 051e 7389     		ldrh	r3, [r6, #10]
 1143 0520 9BB2     		uxth	r3, r3
 1144 0522 07EE903A 		fmsr	s15, r3	@ int
 1145 0526 B8EEE70A 		fsitos	s0, s15
 1146 052a 89EE000A 		fdivs	s0, s18, s0
 1147 052e 30EE480A 		fsubs	s0, s0, s16
 1148 0532 80EE080A 		fdivs	s0, s0, s16
 1149 0536 FFF7FEFF 		bl	logf
 1150              	.LVL84:
 1151 053a 2946     		mov	r1, r5
 1152 053c 2046     		mov	r0, r4
 1153 053e 80EE280A 		fdivs	s0, s0, s17
 1154 0542 F2EE040A 		fconsts	s1, #36
 1155 0546 30EE2A0A 		fadds	s0, s0, s21
 1156 054a 89EE800A 		fdivs	s0, s19, s0
 1157 054e 30EE4A0A 		fsubs	s0, s0, s20
 1158 0552 FFF7FEFF 		bl	buffer_append_float16
 1159              	.LVL85:
 1160              		.loc 1 167 0
 1161 0556 7389     		ldrh	r3, [r6, #10]
 1162 0558 9BB2     		uxth	r3, r3
 1163 055a 07EE903A 		fmsr	s15, r3	@ int
 1164 055e B8EEE70A 		fsitos	s0, s15
 1165 0562 89EE000A 		fdivs	s0, s18, s0
 1166 0566 30EE480A 		fsubs	s0, s0, s16
 1167 056a 80EE080A 		fdivs	s0, s0, s16
 1168 056e FFF7FEFF 		bl	logf
 1169              	.LVL86:
 1170 0572 2946     		mov	r1, r5
 1171 0574 2046     		mov	r0, r4
 1172 0576 80EE280A 		fdivs	s0, s0, s17
 1173 057a F2EE040A 		fconsts	s1, #36
 1174 057e 30EE2A0A 		fadds	s0, s0, s21
 1175 0582 89EE800A 		fdivs	s0, s19, s0
 1176 0586 30EE4A0A 		fsubs	s0, s0, s20
 1177 058a FFF7FEFF 		bl	buffer_append_float16
 1178              	.LVL87:
 1179              		.loc 1 168 0
 1180 058e 7389     		ldrh	r3, [r6, #10]
 1181 0590 9BB2     		uxth	r3, r3
 1182 0592 07EE903A 		fmsr	s15, r3	@ int
 1183 0596 B8EEE70A 		fsitos	s0, s15
 1184 059a 89EE000A 		fdivs	s0, s18, s0
 1185 059e 30EE480A 		fsubs	s0, s0, s16
 1186 05a2 80EE080A 		fdivs	s0, s0, s16
 1187 05a6 FFF7FEFF 		bl	logf
 1188              	.LVL88:
 1189 05aa 2946     		mov	r1, r5
 1190 05ac 2046     		mov	r0, r4
 1191 05ae 80EE280A 		fdivs	s0, s0, s17
 1192 05b2 F2EE040A 		fconsts	s1, #36
 1193 05b6 30EE2A0A 		fadds	s0, s0, s21
 1194 05ba 89EE800A 		fdivs	s0, s19, s0
 1195 05be 30EE4A0A 		fsubs	s0, s0, s20
 1196 05c2 FFF7FEFF 		bl	buffer_append_float16
 1197              	.LVL89:
ARM GAS  /tmp/ccy8OeyM.s 			page 22


 1198              		.loc 1 169 0
 1199 05c6 7389     		ldrh	r3, [r6, #10]
 1200 05c8 9BB2     		uxth	r3, r3
 1201 05ca 07EE903A 		fmsr	s15, r3	@ int
 1202 05ce B8EEE70A 		fsitos	s0, s15
 1203 05d2 89EE000A 		fdivs	s0, s18, s0
 1204 05d6 30EE480A 		fsubs	s0, s0, s16
 1205 05da 80EE080A 		fdivs	s0, s0, s16
 1206 05de FFF7FEFF 		bl	logf
 1207              	.LVL90:
 1208 05e2 2946     		mov	r1, r5
 1209 05e4 2046     		mov	r0, r4
 1210 05e6 80EE280A 		fdivs	s0, s0, s17
 1211 05ea F2EE040A 		fconsts	s1, #36
 1212 05ee 30EE2A0A 		fadds	s0, s0, s21
 1213 05f2 89EE800A 		fdivs	s0, s19, s0
 1214 05f6 30EE4A0A 		fsubs	s0, s0, s20
 1215 05fa FFF7FEFF 		bl	buffer_append_float16
 1216              	.LVL91:
 1217              		.loc 1 170 0
 1218 05fe 7389     		ldrh	r3, [r6, #10]
 1219 0600 9BB2     		uxth	r3, r3
 1220 0602 07EE903A 		fmsr	s15, r3	@ int
 1221 0606 B8EEE70A 		fsitos	s0, s15
 1222 060a 89EE000A 		fdivs	s0, s18, s0
 1223 060e 30EE480A 		fsubs	s0, s0, s16
 1224 0612 80EE080A 		fdivs	s0, s0, s16
 1225 0616 FFF7FEFF 		bl	logf
 1226              	.LVL92:
 1227 061a 2946     		mov	r1, r5
 1228 061c 2046     		mov	r0, r4
 1229 061e 80EE280A 		fdivs	s0, s0, s17
 1230 0622 F2EE040A 		fconsts	s1, #36
 1231 0626 30EE2A0A 		fadds	s0, s0, s21
 1232 062a 89EE800A 		fdivs	s0, s19, s0
 1233 062e 30EE4A0A 		fsubs	s0, s0, s20
 1234 0632 FFF7FEFF 		bl	buffer_append_float16
 1235              	.LVL93:
 1236              		.loc 1 171 0
 1237 0636 7389     		ldrh	r3, [r6, #10]
 1238 0638 9BB2     		uxth	r3, r3
 1239 063a 07EE903A 		fmsr	s15, r3	@ int
 1240 063e B8EEE70A 		fsitos	s0, s15
 1241 0642 89EE000A 		fdivs	s0, s18, s0
 1242 0646 30EE480A 		fsubs	s0, s0, s16
 1243 064a 80EE080A 		fdivs	s0, s0, s16
 1244 064e FFF7FEFF 		bl	logf
 1245              	.LVL94:
 1246 0652 2946     		mov	r1, r5
 1247 0654 2046     		mov	r0, r4
 1248 0656 80EE280A 		fdivs	s0, s0, s17
 1249 065a F2EE040A 		fconsts	s1, #36
 1250 065e 30EE2A0A 		fadds	s0, s0, s21
 1251 0662 89EE800A 		fdivs	s0, s19, s0
 1252 0666 30EE4A0A 		fsubs	s0, s0, s20
 1253 066a FFF7FEFF 		bl	buffer_append_float16
 1254              	.LVL95:
ARM GAS  /tmp/ccy8OeyM.s 			page 23


 1255              		.loc 1 172 0
 1256 066e FFF7FEFF 		bl	mc_interface_read_reset_avg_motor_current
 1257              	.LVL96:
 1258 0672 2946     		mov	r1, r5
 1259 0674 2046     		mov	r0, r4
 1260 0676 DFED430A 		flds	s1, .L148+44
 1261 067a FFF7FEFF 		bl	buffer_append_float32
 1262              	.LVL97:
 1263              		.loc 1 173 0
 1264 067e FFF7FEFF 		bl	mc_interface_read_reset_avg_input_current
 1265              	.LVL98:
 1266 0682 2946     		mov	r1, r5
 1267 0684 2046     		mov	r0, r4
 1268 0686 DFED3F0A 		flds	s1, .L148+44
 1269 068a FFF7FEFF 		bl	buffer_append_float32
 1270              	.LVL99:
 1271              		.loc 1 174 0
 1272 068e FFF7FEFF 		bl	mc_interface_get_duty_cycle_now
 1273              	.LVL100:
 1274 0692 2946     		mov	r1, r5
 1275 0694 2046     		mov	r0, r4
 1276 0696 DFED330A 		flds	s1, .L148+12
 1277 069a FFF7FEFF 		bl	buffer_append_float16
 1278              	.LVL101:
 1279              		.loc 1 175 0
 1280 069e FFF7FEFF 		bl	mc_interface_get_rpm
 1281              	.LVL102:
 1282 06a2 2946     		mov	r1, r5
 1283 06a4 2046     		mov	r0, r4
 1284 06a6 F0EE690A 		fcpys	s1, s19
 1285 06aa FFF7FEFF 		bl	buffer_append_float32
 1286              	.LVL103:
 1287              		.loc 1 176 0
 1288 06ae 338A     		ldrh	r3, [r6, #16]
 1289 06b0 9FED357A 		flds	s14, .L148+48
 1290 06b4 9FED350A 		flds	s0, .L148+52
 1291 06b8 9BB2     		uxth	r3, r3
 1292 06ba 07EE903A 		fmsr	s15, r3	@ int
 1293 06be F8EE677A 		fuitos	s15, s15
 1294 06c2 2946     		mov	r1, r5
 1295 06c4 67EE877A 		fmuls	s15, s15, s14
 1296 06c8 F2EE040A 		fconsts	s1, #36
 1297 06cc 27EE800A 		fmuls	s0, s15, s0
 1298 06d0 2046     		mov	r0, r4
 1299 06d2 FFF7FEFF 		bl	buffer_append_float16
 1300              	.LVL104:
 1301              		.loc 1 177 0
 1302 06d6 0020     		movs	r0, #0
 1303 06d8 FFF7FEFF 		bl	mc_interface_get_amp_hours
 1304              	.LVL105:
 1305 06dc 2946     		mov	r1, r5
 1306 06de F0EE480A 		fcpys	s1, s16
 1307 06e2 2046     		mov	r0, r4
 1308 06e4 FFF7FEFF 		bl	buffer_append_float32
 1309              	.LVL106:
 1310              		.loc 1 178 0
 1311 06e8 0020     		movs	r0, #0
ARM GAS  /tmp/ccy8OeyM.s 			page 24


 1312 06ea FFF7FEFF 		bl	mc_interface_get_amp_hours_charged
 1313              	.LVL107:
 1314 06ee 2946     		mov	r1, r5
 1315 06f0 F0EE480A 		fcpys	s1, s16
 1316 06f4 2046     		mov	r0, r4
 1317 06f6 FFF7FEFF 		bl	buffer_append_float32
 1318              	.LVL108:
 1319              		.loc 1 179 0
 1320 06fa 0020     		movs	r0, #0
 1321 06fc FFF7FEFF 		bl	mc_interface_get_watt_hours
 1322              	.LVL109:
 1323 0700 2946     		mov	r1, r5
 1324 0702 F0EE480A 		fcpys	s1, s16
 1325 0706 2046     		mov	r0, r4
 1326 0708 FFF7FEFF 		bl	buffer_append_float32
 1327              	.LVL110:
 1328              		.loc 1 180 0
 1329 070c 0020     		movs	r0, #0
 1330 070e FFF7FEFF 		bl	mc_interface_get_watt_hours_charged
 1331              	.LVL111:
 1332 0712 F0EE480A 		fcpys	s1, s16
 1333 0716 2946     		mov	r1, r5
 1334 0718 2046     		mov	r0, r4
 1335 071a FFF7FEFF 		bl	buffer_append_float32
 1336              	.LVL112:
 1337              		.loc 1 181 0
 1338 071e 0020     		movs	r0, #0
 1339 0720 FFF7FEFF 		bl	mc_interface_get_tachometer_value
 1340              	.LVL113:
 1341 0724 2A46     		mov	r2, r5
 1342 0726 0146     		mov	r1, r0
 1343 0728 2046     		mov	r0, r4
 1344 072a FFF7FEFF 		bl	buffer_append_int32
 1345              	.LVL114:
 1346              		.loc 1 182 0
 1347 072e 0020     		movs	r0, #0
 1348 0730 FFF7FEFF 		bl	mc_interface_get_tachometer_abs_value
 1349              	.LVL115:
 1350 0734 2A46     		mov	r2, r5
 1351 0736 0146     		mov	r1, r0
 1352 0738 2046     		mov	r0, r4
 1353 073a FFF7FEFF 		bl	buffer_append_int32
 1354              	.LVL116:
 1355              		.loc 1 183 0
 1356 073e 029D     		ldr	r5, [sp, #8]
 1357 0740 6B1C     		adds	r3, r5, #1
 1358 0742 0293     		str	r3, [sp, #8]
 1359 0744 FFF7FEFF 		bl	mc_interface_get_fault
 1360              	.LVL117:
 1361              	.LBB89:
 1362              	.LBB90:
 1363              		.loc 1 94 0
 1364 0748 054B     		ldr	r3, .L148+8
 1365              	.LBE90:
 1366              	.LBE89:
 1367              		.loc 1 183 0
 1368 074a 6055     		strb	r0, [r4, r5]
ARM GAS  /tmp/ccy8OeyM.s 			page 25


 1369              	.LBB93:
 1370              	.LBB91:
 1371              		.loc 1 94 0
 1372 074c 1B68     		ldr	r3, [r3]
 1373              	.LBE91:
 1374              	.LBE93:
 1375              		.loc 1 185 0
 1376 074e 0299     		ldr	r1, [sp, #8]
 1377              	.LVL118:
 1378              	.LBB94:
 1379              	.LBB92:
 1380              		.loc 1 94 0
 1381 0750 002B     		cmp	r3, #0
 1382 0752 7FF46DAE 		bne	.L133
 1383 0756 1AE6     		b	.L24
 1384              	.L149:
 1385              		.align	2
 1386              	.L148:
 1387 0758 00000000 		.word	.LANCHOR8
 1388 075c 00247449 		.word	1232348160
 1389 0760 00000000 		.word	.LANCHOR9
 1390 0764 00007A44 		.word	1148846080
 1391 0768 0050C347 		.word	1203982336
 1392 076c 00000000 		.word	ADC_Value
 1393 0770 3C361C4C 		.word	1276917308
 1394 0774 00401C46 		.word	1176256512
 1395 0778 00A05645 		.word	1163304960
 1396 077c 0FCF5B3B 		.word	995872527
 1397 0780 33938843 		.word	1133024051
 1398 0784 0000C842 		.word	1120403456
 1399 0788 6740533A 		.word	978534503
 1400 078c 74D19541 		.word	1100337524
 1401              	.LVL119:
 1402              	.L31:
 1403              	.LBE92:
 1404              	.LBE94:
 1405              		.loc 1 153 0
 1406 0790 2046     		mov	r0, r4
 1407 0792 02A9     		add	r1, sp, #8
 1408 0794 FFF7FEFF 		bl	buffer_get_uint32
 1409              	.LVL120:
 1410              		.loc 1 154 0
 1411 0798 029A     		ldr	r2, [sp, #8]
 1412 079a A118     		adds	r1, r4, r2
 1413 079c AA1A     		subs	r2, r5, r2
 1414 079e FFF7FEFF 		bl	flash_helper_write_new_app_data
 1415              	.LVL121:
 1416              	.LBB95:
 1417              	.LBB96:
 1418              		.loc 1 94 0
 1419 07a2 B94A     		ldr	r2, .L150
 1420              	.LBE96:
 1421              	.LBE95:
 1422              		.loc 1 157 0
 1423 07a4 B94B     		ldr	r3, .L150+4
 1424              	.LBB99:
 1425              	.LBB97:
ARM GAS  /tmp/ccy8OeyM.s 			page 26


 1426              		.loc 1 94 0
 1427 07a6 1268     		ldr	r2, [r2]
 1428              	.LBE97:
 1429              	.LBE99:
 1430              		.loc 1 158 0
 1431 07a8 A0F10900 		sub	r0, #9
 1432              	.LVL122:
 1433              		.loc 1 157 0
 1434 07ac 0324     		movs	r4, #3
 1435              	.LVL123:
 1436              		.loc 1 158 0
 1437 07ae B0FA80F0 		clz	r0, r0
 1438 07b2 0221     		movs	r1, #2
 1439 07b4 4009     		lsrs	r0, r0, #5
 1440 07b6 5870     		strb	r0, [r3, #1]
 1441              	.LVL124:
 1442              		.loc 1 157 0
 1443 07b8 1C70     		strb	r4, [r3]
 1444              		.loc 1 158 0
 1445 07ba 0291     		str	r1, [sp, #8]
 1446              	.LBB100:
 1447              	.LBB98:
 1448              		.loc 1 94 0
 1449 07bc 002A     		cmp	r2, #0
 1450 07be 3FF4E6AD 		beq	.L24
 1451              	.LVL125:
 1452              	.L132:
 1453              		.loc 1 95 0
 1454 07c2 1846     		mov	r0, r3
 1455 07c4 9047     		blx	r2
 1456              	.LVL126:
 1457 07c6 E2E5     		b	.L24
 1458              	.LVL127:
 1459              	.L30:
 1460              	.LBE98:
 1461              	.LBE100:
 1462              		.loc 1 143 0
 1463 07c8 02A9     		add	r1, sp, #8
 1464 07ca 2046     		mov	r0, r4
 1465 07cc FFF7FEFF 		bl	buffer_get_uint32
 1466              	.LVL128:
 1467 07d0 FFF7FEFF 		bl	flash_helper_erase_new_app
 1468              	.LVL129:
 1469              	.LBB101:
 1470              	.LBB102:
 1471              		.loc 1 94 0
 1472 07d4 AC4A     		ldr	r2, .L150
 1473              	.LBE102:
 1474              	.LBE101:
 1475              		.loc 1 146 0
 1476 07d6 AD4B     		ldr	r3, .L150+4
 1477              	.LBB105:
 1478              	.LBB103:
 1479              		.loc 1 94 0
 1480 07d8 1268     		ldr	r2, [r2]
 1481              	.LBE103:
 1482              	.LBE105:
ARM GAS  /tmp/ccy8OeyM.s 			page 27


 1483              		.loc 1 146 0
 1484 07da 0221     		movs	r1, #2
 1485              		.loc 1 147 0
 1486 07dc A0F10900 		sub	r0, #9
 1487              	.LVL130:
 1488 07e0 B0FA80F0 		clz	r0, r0
 1489 07e4 4009     		lsrs	r0, r0, #5
 1490 07e6 5870     		strb	r0, [r3, #1]
 1491              	.LVL131:
 1492              		.loc 1 146 0
 1493 07e8 1970     		strb	r1, [r3]
 1494              		.loc 1 147 0
 1495 07ea 0291     		str	r1, [sp, #8]
 1496              	.LBB106:
 1497              	.LBB104:
 1498              		.loc 1 94 0
 1499 07ec 002A     		cmp	r2, #0
 1500 07ee E8D1     		bne	.L132
 1501 07f0 CDE5     		b	.L24
 1502              	.LVL132:
 1503              	.L29:
 1504              	.LBE104:
 1505              	.LBE106:
 1506              		.loc 1 138 0
 1507 07f2 FFF7FEFF 		bl	flash_helper_jump_to_bootloader
 1508              	.LVL133:
 1509              		.loc 1 139 0
 1510 07f6 CAE5     		b	.L24
 1511              	.L27:
 1512              	.LBB107:
 1513              	.LBB108:
 1514              		.loc 1 94 0
 1515 07f8 A34B     		ldr	r3, .L150
 1516              	.LBE108:
 1517              	.LBE107:
 1518              		.loc 1 131 0
 1519 07fa A448     		ldr	r0, .L150+4
 1520              	.LBB111:
 1521              	.LBB109:
 1522              		.loc 1 94 0
 1523 07fc 1B68     		ldr	r3, [r3]
 1524              	.LBE109:
 1525              	.LBE111:
 1526              		.loc 1 131 0
 1527 07fe 0025     		movs	r5, #0
 1528              	.LVL134:
 1529              		.loc 1 132 0
 1530 0800 0224     		movs	r4, #2
 1531              	.LVL135:
 1532              		.loc 1 133 0
 1533 0802 1222     		movs	r2, #18
 1534 0804 0321     		movs	r1, #3
 1535              	.LVL136:
 1536              		.loc 1 131 0
 1537 0806 0570     		strb	r5, [r0]
 1538              		.loc 1 132 0
 1539 0808 4470     		strb	r4, [r0, #1]
ARM GAS  /tmp/ccy8OeyM.s 			page 28


 1540              		.loc 1 133 0
 1541 080a 8270     		strb	r2, [r0, #2]
 1542              	.LVL137:
 1543 080c 0291     		str	r1, [sp, #8]
 1544              	.LBB112:
 1545              	.LBB110:
 1546              		.loc 1 94 0
 1547 080e 002B     		cmp	r3, #0
 1548 0810 3FF4BDAD 		beq	.L24
 1549              	.LVL138:
 1550              	.L131:
 1551              	.LBE110:
 1552              	.LBE112:
 1553              		.loc 1 788 0
 1554 0814 9847     		blx	r3
 1555              	.LVL139:
 1556 0816 BAE5     		b	.L24
 1557              	.LVL140:
 1558              	.L57:
 1559              		.loc 1 787 0
 1560 0818 9D4B     		ldr	r3, .L150+8
 1561 081a 1B68     		ldr	r3, [r3]
 1562 081c 002B     		cmp	r3, #0
 1563 081e 3FF4B6AD 		beq	.L24
 1564              		.loc 1 788 0
 1565 0822 2046     		mov	r0, r4
 1566 0824 2946     		mov	r1, r5
 1567 0826 F5E7     		b	.L131
 1568              	.L56:
 1569              		.loc 1 778 0
 1570 0828 C278     		ldrb	r2, [r0, #3]	@ zero_extendqisi2
 1571              		.loc 1 779 0
 1572 082a 0379     		ldrb	r3, [r0, #4]	@ zero_extendqisi2
 1573              		.loc 1 776 0
 1574 082c 4178     		ldrb	r1, [r0, #1]	@ zero_extendqisi2
 1575              		.loc 1 777 0
 1576 082e 8678     		ldrb	r6, [r0, #2]	@ zero_extendqisi2
 1577              		.loc 1 776 0
 1578 0830 0491     		str	r1, [sp, #16]
 1579              		.loc 1 778 0
 1580 0832 0032     		adds	r2, r2, #0
 1581 0834 18BF     		it	ne
 1582 0836 0122     		movne	r2, #1
 1583              		.loc 1 779 0
 1584 0838 0033     		adds	r3, r3, #0
 1585 083a 18BF     		it	ne
 1586 083c 0123     		movne	r3, #1
 1587              		.loc 1 780 0
 1588 083e 02A9     		add	r1, sp, #8
 1589              		.loc 1 779 0
 1590 0840 0425     		movs	r5, #4
 1591              	.LVL141:
 1592              		.loc 1 780 0
 1593 0842 2046     		mov	r0, r4
 1594              		.loc 1 778 0
 1595 0844 8DF82420 		strb	r2, [sp, #36]
 1596              		.loc 1 779 0
ARM GAS  /tmp/ccy8OeyM.s 			page 29


 1597 0848 8DF82530 		strb	r3, [sp, #37]
 1598              		.loc 1 777 0
 1599 084c 0596     		str	r6, [sp, #20]
 1600              		.loc 1 779 0
 1601 084e 0295     		str	r5, [sp, #8]
 1602              		.loc 1 780 0
 1603 0850 FFF7FEFF 		bl	buffer_get_int16
 1604              	.LVL142:
 1605              		.loc 1 781 0
 1606 0854 02A9     		add	r1, sp, #8
 1607              		.loc 1 780 0
 1608 0856 0690     		str	r0, [sp, #24]
 1609              		.loc 1 781 0
 1610 0858 2046     		mov	r0, r4
 1611 085a FFF7FEFF 		bl	buffer_get_int16
 1612              	.LVL143:
 1613              		.loc 1 782 0
 1614 085e 02A9     		add	r1, sp, #8
 1615              		.loc 1 781 0
 1616 0860 0790     		str	r0, [sp, #28]
 1617              		.loc 1 782 0
 1618 0862 2046     		mov	r0, r4
 1619 0864 FFF7FEFF 		bl	buffer_get_int16
 1620              	.LVL144:
 1621 0868 0890     		str	r0, [sp, #32]
 1622              		.loc 1 783 0
 1623 086a 04A8     		add	r0, sp, #16
 1624 086c FFF7FEFF 		bl	app_nunchuk_update_output
 1625              	.LVL145:
 1626              		.loc 1 784 0
 1627 0870 8DE5     		b	.L24
 1628              	.LVL146:
 1629              	.L55:
 1630              		.loc 1 771 0
 1631 0872 8A1E     		subs	r2, r1, #2
 1632 0874 4078     		ldrb	r0, [r0, #1]	@ zero_extendqisi2
 1633 0876 B91C     		adds	r1, r7, #2
 1634 0878 0023     		movs	r3, #0
 1635 087a FFF7FEFF 		bl	comm_can_send_buffer
 1636              	.LVL147:
 1637              		.loc 1 772 0
 1638 087e 86E5     		b	.L24
 1639              	.L37:
 1640              		.loc 1 214 0
 1641 0880 02A9     		add	r1, sp, #8
 1642 0882 2046     		mov	r0, r4
 1643 0884 FFF7FEFF 		bl	buffer_get_int32
 1644              	.LVL148:
 1645 0888 07EE100A 		fmsr	s14, r0	@ int
 1646 088c DFED877A 		flds	s15, .L150+36
 1647 0890 B8EEC70A 		fsitos	s0, s14
 1648 0894 80EE270A 		fdivs	s0, s0, s15
 1649 0898 FFF7FEFF 		bl	mc_interface_set_pid_pos
 1650              	.LVL149:
 1651              		.loc 1 215 0
 1652 089c FFF7FEFF 		bl	timeout_reset
 1653              	.LVL150:
ARM GAS  /tmp/ccy8OeyM.s 			page 30


 1654              		.loc 1 216 0
 1655 08a0 75E5     		b	.L24
 1656              	.L54:
 1657              		.loc 1 765 0
 1658 08a2 2CAD     		add	r5, sp, #176
 1659              	.LVL151:
 1660 08a4 794C     		ldr	r4, .L150+4
 1661              	.LVL152:
 1662 08a6 0122     		movs	r2, #1
 1663 08a8 2023     		movs	r3, #32
 1664 08aa 45F8A82D 		str	r2, [r5, #-168]!
 1665 08ae 2370     		strb	r3, [r4]
 1666              		.loc 1 766 0
 1667 08b0 FFF7FEFF 		bl	app_nunchuk_get_decoded_chuk
 1668              	.LVL153:
 1669 08b4 DFED7D7A 		flds	s15, .L150+36
 1670 08b8 20EE270A 		fmuls	s0, s0, s15
 1671 08bc ABE5     		b	.L136
 1672              	.LVL154:
 1673              	.L53:
 1674              		.loc 1 755 0
 1675 08be 2CAD     		add	r5, sp, #176
 1676              	.LVL155:
 1677 08c0 724C     		ldr	r4, .L150+4
 1678              	.LVL156:
 1679              		.loc 1 756 0
 1680 08c2 9FED7A8A 		flds	s16, .L150+36
 1681              		.loc 1 755 0
 1682 08c6 1F23     		movs	r3, #31
 1683 08c8 0122     		movs	r2, #1
 1684 08ca 2370     		strb	r3, [r4]
 1685 08cc 45F8A82D 		str	r2, [r5, #-168]!
 1686              		.loc 1 756 0
 1687 08d0 FFF7FEFF 		bl	app_adc_get_decoded_level
 1688              	.LVL157:
 1689 08d4 20EE080A 		fmuls	s0, s0, s16
 1690 08d8 2A46     		mov	r2, r5
 1691 08da FDEEC07A 		ftosizs	s15, s0
 1692 08de 2046     		mov	r0, r4
 1693 08e0 17EE901A 		fmrs	r1, s15	@ int
 1694 08e4 FFF7FEFF 		bl	buffer_append_int32
 1695              	.LVL158:
 1696              		.loc 1 757 0
 1697 08e8 FFF7FEFF 		bl	app_adc_get_voltage
 1698              	.LVL159:
 1699 08ec 20EE080A 		fmuls	s0, s0, s16
 1700 08f0 2A46     		mov	r2, r5
 1701 08f2 FDEEC07A 		ftosizs	s15, s0
 1702 08f6 2046     		mov	r0, r4
 1703 08f8 17EE901A 		fmrs	r1, s15	@ int
 1704 08fc FFF7FEFF 		bl	buffer_append_int32
 1705              	.LVL160:
 1706              		.loc 1 758 0
 1707 0900 FFF7FEFF 		bl	app_adc_get_decoded_level2
 1708              	.LVL161:
 1709 0904 20EE080A 		fmuls	s0, s0, s16
 1710 0908 2A46     		mov	r2, r5
ARM GAS  /tmp/ccy8OeyM.s 			page 31


 1711 090a FDEEC07A 		ftosizs	s15, s0
 1712 090e 2046     		mov	r0, r4
 1713 0910 17EE901A 		fmrs	r1, s15	@ int
 1714 0914 FFF7FEFF 		bl	buffer_append_int32
 1715              	.LVL162:
 1716              		.loc 1 759 0
 1717 0918 FFF7FEFF 		bl	app_adc_get_voltage2
 1718              	.LVL163:
 1719 091c 20EE080A 		fmuls	s0, s0, s16
 1720 0920 79E5     		b	.L136
 1721              	.LVL164:
 1722              	.L50:
 1723              	.LBB113:
 1724              	.LBB114:
 1725              		.file 3 "ChibiOS_3.0.2/os/ext/CMSIS/include/core_cmFunc.h"
 1726              		.loc 3 342 0
 1727              	@ 342 "ChibiOS_3.0.2/os/ext/CMSIS/include/core_cmFunc.h" 1
 1728 0922 72B6     		cpsid i
 1729              	@ 0 "" 2
 1730              		.thumb
 1731              	.L76:
 1732              	.LBE114:
 1733              	.LBE113:
 1734              		.loc 1 738 0 discriminator 8
 1735 0924 FEE7     		b	.L76
 1736              	.L49:
 1737              		.loc 1 701 0
 1738 0926 FFF7FEFF 		bl	mc_interface_get_configuration
 1739              	.LVL165:
 1740 092a 5A4D     		ldr	r5, .L150+12
 1741              	.LVL166:
 1742 092c 0146     		mov	r1, r0
 1743 092e 4FF49A72 		mov	r2, #308
 1744 0932 2846     		mov	r0, r5
 1745 0934 FFF7FEFF 		bl	memcpy
 1746              	.LVL167:
 1747              		.loc 1 703 0
 1748 0938 95F83061 		ldrb	r6, [r5, #304]	@ zero_extendqisi2
 1749 093c 002E     		cmp	r6, #0
 1750 093e 41F04681 		bne	.L74
 1751              	.LBB115:
 1752              		.loc 1 704 0
 1753 0942 2946     		mov	r1, r5
 1754 0944 4FF49A72 		mov	r2, #308
 1755 0948 5348     		ldr	r0, .L150+16
 1756 094a FFF7FEFF 		bl	memcpy
 1757              	.LVL168:
 1758              		.loc 1 705 0
 1759 094e 2CA9     		add	r1, sp, #176
 1760              		.loc 1 706 0
 1761 0950 2046     		mov	r0, r4
 1762              		.loc 1 705 0
 1763 0952 41F8A86D 		str	r6, [r1, #-168]!
 1764              		.loc 1 706 0
 1765 0956 9FED540A 		flds	s0, .L150+32
 1766              	.LBB116:
 1767              	.LBB117:
ARM GAS  /tmp/ccy8OeyM.s 			page 32


 1768              		.loc 1 94 0
 1769 095a 4B4E     		ldr	r6, .L150
 1770              	.LBE117:
 1771              	.LBE116:
 1772              		.loc 1 706 0
 1773 095c FFF7FEFF 		bl	buffer_get_float32
 1774              	.LVL169:
 1775              		.loc 1 709 0
 1776 0960 4E4B     		ldr	r3, .L150+20
 1777              		.loc 1 710 0
 1778 0962 4F49     		ldr	r1, .L150+24
 1779              		.loc 1 709 0
 1780 0964 C5F89430 		str	r3, [r5, #148]	@ float
 1781              		.loc 1 708 0
 1782 0968 0222     		movs	r2, #2
 1783              		.loc 1 711 0
 1784 096a 4E4B     		ldr	r3, .L150+28
 1785              		.loc 1 710 0
 1786 096c C5F88C10 		str	r1, [r5, #140]	@ float
 1787              		.loc 1 712 0
 1788 0970 2846     		mov	r0, r5
 1789              		.loc 1 706 0
 1790 0972 B0EE408A 		fcpys	s16, s0
 1791              	.LVL170:
 1792              		.loc 1 708 0
 1793 0976 AA70     		strb	r2, [r5, #2]
 1794              		.loc 1 711 0
 1795 0978 C5F89030 		str	r3, [r5, #144]	@ float
 1796              		.loc 1 712 0
 1797 097c FFF7FEFF 		bl	mc_interface_set_configuration
 1798              	.LVL171:
 1799              		.loc 1 715 0
 1800 0980 B0EE480A 		fcpys	s0, s16
 1801 0984 04A8     		add	r0, sp, #16
 1802 0986 FFF7FEFF 		bl	mcpwm_foc_hall_detect
 1803              	.LVL172:
 1804 098a 0446     		mov	r4, r0
 1805              	.LVL173:
 1806              		.loc 1 716 0
 1807 098c 4248     		ldr	r0, .L150+16
 1808 098e FFF7FEFF 		bl	mc_interface_set_configuration
 1809              	.LVL174:
 1810              		.loc 1 719 0
 1811 0992 3E4A     		ldr	r2, .L150+4
 1812              		.loc 1 720 0
 1813 0994 04AB     		add	r3, sp, #16
 1814              		.loc 1 719 0
 1815 0996 1546     		mov	r5, r2
 1816              		.loc 1 720 0
 1817 0998 03CB     		ldmia	r3!, {r0, r1}
 1818              		.loc 1 719 0
 1819 099a 1B23     		movs	r3, #27
 1820 099c 05F8013B 		strb	r3, [r5], #1
 1821              	.LBB120:
 1822              	.LBB118:
 1823              		.loc 1 94 0
 1824 09a0 3368     		ldr	r3, [r6]
ARM GAS  /tmp/ccy8OeyM.s 			page 33


 1825              	.LBE118:
 1826              	.LBE120:
 1827              		.loc 1 720 0
 1828 09a2 C2F80100 		str	r0, [r2, #1]	@ unaligned
 1829              		.loc 1 722 0
 1830 09a6 84F00104 		eor	r4, r4, #1
 1831              	.LVL175:
 1832 09aa 0A26     		movs	r6, #10
 1833              		.loc 1 720 0
 1834 09ac 6960     		str	r1, [r5, #4]	@ unaligned
 1835              		.loc 1 722 0
 1836 09ae 0296     		str	r6, [sp, #8]
 1837 09b0 5472     		strb	r4, [r2, #9]
 1838              	.LVL176:
 1839              	.LBB121:
 1840              	.LBB119:
 1841              		.loc 1 94 0
 1842 09b2 002B     		cmp	r3, #0
 1843 09b4 3FF4EBAC 		beq	.L24
 1844              		.loc 1 95 0
 1845 09b8 1046     		mov	r0, r2
 1846 09ba 3146     		mov	r1, r6
 1847 09bc 9847     		blx	r3
 1848              	.LVL177:
 1849 09be E6E4     		b	.L24
 1850              	.LVL178:
 1851              	.L48:
 1852              	.LBE119:
 1853              	.LBE121:
 1854              	.LBE115:
 1855              		.loc 1 664 0
 1856 09c0 FFF7FEFF 		bl	encoder_is_configured
 1857              	.LVL179:
 1858 09c4 0646     		mov	r6, r0
 1859 09c6 0028     		cmp	r0, #0
 1860 09c8 01F00B81 		beq	.L72
 1861              	.LBB122:
 1862              		.loc 1 665 0
 1863 09cc FFF7FEFF 		bl	mc_interface_get_configuration
 1864              	.LVL180:
 1865 09d0 304D     		ldr	r5, .L150+12
 1866              	.LVL181:
 1867              		.loc 1 684 0
 1868 09d2 2E4E     		ldr	r6, .L150+4
 1869              		.loc 1 668 0
 1870 09d4 2CAF     		add	r7, sp, #176
 1871              		.loc 1 665 0
 1872 09d6 0146     		mov	r1, r0
 1873 09d8 4FF49A72 		mov	r2, #308
 1874 09dc 2846     		mov	r0, r5
 1875 09de FFF7FEFF 		bl	memcpy
 1876              	.LVL182:
 1877              		.loc 1 668 0
 1878 09e2 4FF00008 		mov	r8, #0
 1879              	.LVL183:
 1880              		.loc 1 666 0
 1881 09e6 4FF49A72 		mov	r2, #308
ARM GAS  /tmp/ccy8OeyM.s 			page 34


 1882 09ea 2946     		mov	r1, r5
 1883 09ec 2A48     		ldr	r0, .L150+16
 1884 09ee FFF7FEFF 		bl	memcpy
 1885              	.LVL184:
 1886              		.loc 1 668 0
 1887 09f2 47F8A88D 		str	r8, [r7, #-168]!
 1888              		.loc 1 669 0
 1889 09f6 2046     		mov	r0, r4
 1890 09f8 3946     		mov	r1, r7
 1891 09fa 9FED2B0A 		flds	s0, .L150+32
 1892 09fe FFF7FEFF 		bl	buffer_get_float32
 1893              	.LVL185:
 1894              		.loc 1 672 0
 1895 0a02 264B     		ldr	r3, .L150+20
 1896              		.loc 1 673 0
 1897 0a04 264A     		ldr	r2, .L150+24
 1898              		.loc 1 672 0
 1899 0a06 C5F89430 		str	r3, [r5, #148]	@ float
 1900              		.loc 1 671 0
 1901 0a0a 0221     		movs	r1, #2
 1902              		.loc 1 674 0
 1903 0a0c 254B     		ldr	r3, .L150+28
 1904              		.loc 1 671 0
 1905 0a0e A970     		strb	r1, [r5, #2]
 1906              		.loc 1 669 0
 1907 0a10 B0EE408A 		fcpys	s16, s0
 1908              	.LVL186:
 1909              		.loc 1 675 0
 1910 0a14 2846     		mov	r0, r5
 1911              		.loc 1 673 0
 1912 0a16 C5F88C20 		str	r2, [r5, #140]	@ float
 1913              		.loc 1 674 0
 1914 0a1a C5F89030 		str	r3, [r5, #144]	@ float
 1915              		.loc 1 677 0
 1916 0a1e 0024     		movs	r4, #0
 1917              	.LVL187:
 1918              		.loc 1 675 0
 1919 0a20 FFF7FEFF 		bl	mc_interface_set_configuration
 1920              	.LVL188:
 1921              		.loc 1 680 0
 1922 0a24 B0EE480A 		fcpys	s0, s16
 1923 0a28 03A9     		add	r1, sp, #12
 1924 0a2a 04AA     		add	r2, sp, #16
 1925 0a2c 0DF10703 		add	r3, sp, #7
 1926 0a30 4046     		mov	r0, r8
 1927              		.loc 1 679 0
 1928 0a32 8DF80780 		strb	r8, [sp, #7]
 1929              		.loc 1 677 0
 1930 0a36 0394     		str	r4, [sp, #12]	@ float
 1931              		.loc 1 678 0
 1932 0a38 0494     		str	r4, [sp, #16]	@ float
 1933              		.loc 1 680 0
 1934 0a3a FFF7FEFF 		bl	mcpwm_foc_encoder_detect
 1935              	.LVL189:
 1936              		.loc 1 681 0
 1937 0a3e 1648     		ldr	r0, .L150+16
 1938 0a40 FFF7FEFF 		bl	mc_interface_set_configuration
ARM GAS  /tmp/ccy8OeyM.s 			page 35


 1939              	.LVL190:
 1940              		.loc 1 684 0
 1941 0a44 1A22     		movs	r2, #26
 1942 0a46 0123     		movs	r3, #1
 1943              		.loc 1 685 0
 1944 0a48 3946     		mov	r1, r7
 1945 0a4a 3046     		mov	r0, r6
 1946 0a4c 9DED030A 		flds	s0, [sp, #12]
 1947 0a50 DFED160A 		flds	s1, .L150+36
 1948              		.loc 1 684 0
 1949 0a54 3270     		strb	r2, [r6]
 1950 0a56 0293     		str	r3, [sp, #8]
 1951              		.loc 1 685 0
 1952 0a58 FFF7FEFF 		bl	buffer_append_float32
 1953              	.LVL191:
 1954              		.loc 1 686 0
 1955 0a5c 3946     		mov	r1, r7
 1956 0a5e 3046     		mov	r0, r6
 1957 0a60 9DED040A 		flds	s0, [sp, #16]
 1958 0a64 DFED110A 		flds	s1, .L150+36
 1959 0a68 FFF7FEFF 		bl	buffer_append_float32
 1960              	.LVL192:
 1961              	.LBB123:
 1962              	.LBB124:
 1963              		.loc 1 94 0
 1964 0a6c 064B     		ldr	r3, .L150
 1965              	.LBE124:
 1966              	.LBE123:
 1967              		.loc 1 687 0
 1968 0a6e 0299     		ldr	r1, [sp, #8]
 1969 0a70 9DF80720 		ldrb	r2, [sp, #7]	@ zero_extendqisi2
 1970              	.LBB127:
 1971              	.LBB125:
 1972              		.loc 1 94 0
 1973 0a74 1B68     		ldr	r3, [r3]
 1974              	.LBE125:
 1975              	.LBE127:
 1976              		.loc 1 687 0
 1977 0a76 7254     		strb	r2, [r6, r1]
 1978              	.LVL193:
 1979 0a78 0131     		adds	r1, r1, #1
 1980              	.LVL194:
 1981 0a7a 0291     		str	r1, [sp, #8]
 1982              	.LBB128:
 1983              	.LBB126:
 1984              		.loc 1 94 0
 1985 0a7c 002B     		cmp	r3, #0
 1986 0a7e 3FF486AC 		beq	.L24
 1987              		.loc 1 95 0
 1988 0a82 3046     		mov	r0, r6
 1989 0a84 9847     		blx	r3
 1990              	.LVL195:
 1991 0a86 82E4     		b	.L24
 1992              	.L151:
 1993              		.align	2
 1994              	.L150:
 1995 0a88 00000000 		.word	.LANCHOR9
ARM GAS  /tmp/ccy8OeyM.s 			page 36


 1996 0a8c 00000000 		.word	.LANCHOR8
 1997 0a90 00000000 		.word	.LANCHOR14
 1998 0a94 00000000 		.word	.LANCHOR11
 1999 0a98 00000000 		.word	.LANCHOR13
 2000 0a9c 00401C46 		.word	1176256512
 2001 0aa0 0AD7233C 		.word	1008981770
 2002 0aa4 00002041 		.word	1092616192
 2003 0aa8 00007A44 		.word	1148846080
 2004 0aac 00247449 		.word	1232348160
 2005 0ab0 00000000 		.word	0
 2006              	.LVL196:
 2007              	.L47:
 2008              	.LBE126:
 2009              	.LBE128:
 2010              	.LBE122:
 2011              	.LBB129:
 2012              		.loc 1 644 0
 2013 0ab4 02A9     		add	r1, sp, #8
 2014 0ab6 2046     		mov	r0, r4
 2015 0ab8 1FED050A 		flds	s0, .L150+32
 2016 0abc FFF7FEFF 		bl	buffer_get_float32
 2017              	.LVL197:
 2018              		.loc 1 645 0
 2019 0ac0 2046     		mov	r0, r4
 2020              		.loc 1 644 0
 2021 0ac2 B0EE409A 		fcpys	s18, s0
 2022              	.LVL198:
 2023              		.loc 1 645 0
 2024 0ac6 02A9     		add	r1, sp, #8
 2025 0ac8 1FED090A 		flds	s0, .L150+32
 2026              	.LVL199:
 2027 0acc FFF7FEFF 		bl	buffer_get_float32
 2028              	.LVL200:
 2029              		.loc 1 646 0
 2030 0ad0 2046     		mov	r0, r4
 2031              		.loc 1 645 0
 2032 0ad2 B0EE408A 		fcpys	s16, s0
 2033              	.LVL201:
 2034              		.loc 1 646 0
 2035 0ad6 02A9     		add	r1, sp, #8
 2036 0ad8 1FED0D0A 		flds	s0, .L150+32
 2037              	.LVL202:
 2038 0adc FFF7FEFF 		bl	buffer_get_float32
 2039              	.LVL203:
 2040              		.loc 1 647 0
 2041 0ae0 2046     		mov	r0, r4
 2042              		.loc 1 646 0
 2043 0ae2 F0EE408A 		fcpys	s17, s0
 2044              	.LVL204:
 2045              		.loc 1 647 0
 2046 0ae6 02A9     		add	r1, sp, #8
 2047 0ae8 1FED100A 		flds	s0, .L150+36
 2048              	.LVL205:
 2049 0aec FFF7FEFF 		bl	buffer_get_float32
 2050              	.LVL206:
 2051              		.loc 1 650 0
 2052 0af0 F0EE680A 		fcpys	s1, s17
ARM GAS  /tmp/ccy8OeyM.s 			page 37


 2053              		.loc 1 647 0
 2054 0af4 F0EE401A 		fcpys	s3, s0
 2055              	.LVL207:
 2056              		.loc 1 650 0
 2057 0af8 B0EE481A 		fcpys	s2, s16
 2058 0afc B0EE490A 		fcpys	s0, s18
 2059              	.LVL208:
 2060 0b00 04A8     		add	r0, sp, #16
 2061 0b02 FFF7FEFF 		bl	conf_general_measure_flux_linkage
 2062              	.LVL209:
 2063              		.loc 1 652 0
 2064 0b06 0028     		cmp	r0, #0
 2065 0b08 41F04680 		bne	.L143
 2066              		.loc 1 653 0
 2067 0b0c 5FED187A 		flds	s15, .L150+40
 2068 0b10 B0EE670A 		fcpys	s0, s15
 2069 0b14 CDED047A 		fsts	s15, [sp, #16]
 2070              	.L70:
 2071              		.loc 1 657 0 discriminator 3
 2072 0b18 2B4C     		ldr	r4, .L152
 2073              	.LVL210:
 2074              		.loc 1 658 0 discriminator 3
 2075 0b1a DFED2C0A 		flds	s1, .L152+4
 2076              		.loc 1 657 0 discriminator 3
 2077 0b1e 1922     		movs	r2, #25
 2078 0b20 0123     		movs	r3, #1
 2079              		.loc 1 658 0 discriminator 3
 2080 0b22 02A9     		add	r1, sp, #8
 2081 0b24 2046     		mov	r0, r4
 2082              	.LVL211:
 2083              		.loc 1 657 0 discriminator 3
 2084 0b26 2270     		strb	r2, [r4]
 2085 0b28 0293     		str	r3, [sp, #8]
 2086              	.LVL212:
 2087              	.L139:
 2088              		.loc 1 658 0 discriminator 3
 2089 0b2a FFF7FEFF 		bl	buffer_append_float32
 2090              	.LVL213:
 2091              	.LBB130:
 2092              	.LBB131:
 2093              		.loc 1 94 0 discriminator 3
 2094 0b2e 284B     		ldr	r3, .L152+8
 2095              	.LBE131:
 2096              	.LBE130:
 2097              		.loc 1 659 0 discriminator 3
 2098 0b30 0299     		ldr	r1, [sp, #8]
 2099              	.LVL214:
 2100              	.LBB133:
 2101              	.LBB132:
 2102              		.loc 1 94 0 discriminator 3
 2103 0b32 1B68     		ldr	r3, [r3]
 2104 0b34 002B     		cmp	r3, #0
 2105 0b36 7FF47BAC 		bne	.L133
 2106 0b3a 28E4     		b	.L24
 2107              	.LVL215:
 2108              	.L46:
 2109              	.LBE132:
ARM GAS  /tmp/ccy8OeyM.s 			page 38


 2110              	.LBE133:
 2111              	.LBE129:
 2112              	.LBB134:
 2113              		.loc 1 618 0
 2114 0b3c FFF7FEFF 		bl	mc_interface_get_configuration
 2115              	.LVL216:
 2116 0b40 244C     		ldr	r4, .L152+12
 2117              	.LVL217:
 2118              		.loc 1 624 0
 2119 0b42 9FED258A 		flds	s16, .L152+16
 2120              		.loc 1 618 0
 2121 0b46 0146     		mov	r1, r0
 2122 0b48 4FF49A72 		mov	r2, #308
 2123 0b4c 2046     		mov	r0, r4
 2124 0b4e FFF7FEFF 		bl	memcpy
 2125              	.LVL218:
 2126              		.loc 1 619 0
 2127 0b52 2146     		mov	r1, r4
 2128 0b54 4FF49A72 		mov	r2, #308
 2129 0b58 2048     		ldr	r0, .L152+20
 2130 0b5a FFF7FEFF 		bl	memcpy
 2131              	.LVL219:
 2132              		.loc 1 621 0
 2133 0b5e 0223     		movs	r3, #2
 2134              		.loc 1 622 0
 2135 0b60 2046     		mov	r0, r4
 2136              		.loc 1 621 0
 2137 0b62 A370     		strb	r3, [r4, #2]
 2138              		.loc 1 622 0
 2139 0b64 FFF7FEFF 		bl	mc_interface_set_configuration
 2140              	.LVL220:
 2141              		.loc 1 626 0
 2142 0b68 03A8     		add	r0, sp, #12
 2143 0b6a 04A9     		add	r1, sp, #16
 2144              		.loc 1 624 0
 2145 0b6c 8DED038A 		fsts	s16, [sp, #12]
 2146              		.loc 1 625 0
 2147 0b70 8DED048A 		fsts	s16, [sp, #16]
 2148              		.loc 1 626 0
 2149 0b74 FFF7FEFF 		bl	mcpwm_foc_measure_res_ind
 2150              	.LVL221:
 2151 0b78 0446     		mov	r4, r0
 2152              	.LVL222:
 2153              		.loc 1 627 0
 2154 0b7a 1848     		ldr	r0, .L152+20
 2155 0b7c FFF7FEFF 		bl	mc_interface_set_configuration
 2156              	.LVL223:
 2157              		.loc 1 629 0
 2158 0b80 002C     		cmp	r4, #0
 2159 0b82 41F00580 		bne	.L144
 2160              		.loc 1 631 0
 2161 0b86 B0EE480A 		fcpys	s0, s16
 2162              		.loc 1 630 0
 2163 0b8a 8DED038A 		fsts	s16, [sp, #12]
 2164              		.loc 1 631 0
 2165 0b8e 8DED048A 		fsts	s16, [sp, #16]
 2166              	.L67:
ARM GAS  /tmp/ccy8OeyM.s 			page 39


 2167              		.loc 1 635 0 discriminator 2
 2168 0b92 2CAD     		add	r5, sp, #176
 2169              	.LVL224:
 2170 0b94 0123     		movs	r3, #1
 2171 0b96 45F8A83D 		str	r3, [r5, #-168]!
 2172 0b9a 0B4C     		ldr	r4, .L152
 2173              	.LVL225:
 2174              		.loc 1 636 0 discriminator 2
 2175 0b9c DFED100A 		flds	s1, .L152+24
 2176 0ba0 2946     		mov	r1, r5
 2177              		.loc 1 635 0 discriminator 2
 2178 0ba2 1823     		movs	r3, #24
 2179              		.loc 1 636 0 discriminator 2
 2180 0ba4 2046     		mov	r0, r4
 2181              		.loc 1 635 0 discriminator 2
 2182 0ba6 2370     		strb	r3, [r4]
 2183              		.loc 1 636 0 discriminator 2
 2184 0ba8 FFF7FEFF 		bl	buffer_append_float32
 2185              	.LVL226:
 2186              		.loc 1 637 0 discriminator 2
 2187 0bac 2046     		mov	r0, r4
 2188 0bae 2946     		mov	r1, r5
 2189 0bb0 9DED040A 		flds	s0, [sp, #16]
 2190 0bb4 DFED0B0A 		flds	s1, .L152+28
 2191 0bb8 B7E7     		b	.L139
 2192              	.LVL227:
 2193              	.L44:
 2194              	.LBE134:
 2195              		.loc 1 604 0
 2196 0bba 0023     		movs	r3, #0
 2197 0bbc 6355     		strb	r3, [r4, r5]
 2198              		.loc 1 605 0
 2199 0bbe 2046     		mov	r0, r4
 2200 0bc0 FFF7FEFF 		bl	terminal_process_string
 2201              	.LVL228:
 2202              		.loc 1 606 0
 2203 0bc4 FFF7E3BB 		b	.L24
 2204              	.L153:
 2205              		.align	2
 2206              	.L152:
 2207 0bc8 00000000 		.word	.LANCHOR8
 2208 0bcc 8096184B 		.word	1259902592
 2209 0bd0 00000000 		.word	.LANCHOR9
 2210 0bd4 00000000 		.word	.LANCHOR11
 2211 0bd8 00000000 		.word	0
 2212 0bdc 00000000 		.word	.LANCHOR13
 2213 0be0 00247449 		.word	1232348160
 2214 0be4 00007A44 		.word	1148846080
 2215              	.L40:
 2216              		.loc 1 351 0
 2217 0be8 B8F10D0F 		cmp	r8, #13
 2218 0bec 00F0E587 		beq	.L145
 2219              		.loc 1 354 0
 2220 0bf0 F548     		ldr	r0, .L154
 2221 0bf2 FFF7FEFF 		bl	conf_general_get_default_mc_configuration
 2222              	.LVL229:
 2223              	.L63:
ARM GAS  /tmp/ccy8OeyM.s 			page 40


 2224              		.loc 1 360 0
 2225 0bf6 F44D     		ldr	r5, .L154
 2226              	.LVL230:
 2227              		.loc 1 365 0
 2228 0bf8 9FEDF48A 		flds	s16, .L154+4
 2229 0bfc D5ED017A 		flds	s15, [r5, #4]
 2230              		.loc 1 358 0
 2231 0c00 F34C     		ldr	r4, .L154+8
 2232              	.LVL231:
 2233              		.loc 1 360 0
 2234 0c02 2A78     		ldrb	r2, [r5]	@ zero_extendqisi2
 2235 0c04 6270     		strb	r2, [r4, #1]
 2236              		.loc 1 363 0
 2237 0c06 2CAE     		add	r6, sp, #176
 2238              		.loc 1 365 0
 2239 0c08 67EE887A 		fmuls	s15, s15, s16
 2240              		.loc 1 363 0
 2241 0c0c 0522     		movs	r2, #5
 2242 0c0e 46F8A82D 		str	r2, [r6, #-168]!
 2243              		.loc 1 365 0
 2244 0c12 FDEEE77A 		ftosizs	s15, s15
 2245              		.loc 1 361 0
 2246 0c16 95F801E0 		ldrb	lr, [r5, #1]	@ zero_extendqisi2
 2247              		.loc 1 363 0
 2248 0c1a EB78     		ldrb	r3, [r5, #3]	@ zero_extendqisi2
 2249              		.loc 1 362 0
 2250 0c1c AF78     		ldrb	r7, [r5, #2]	@ zero_extendqisi2
 2251              	.LVL232:
 2252              		.loc 1 361 0
 2253 0c1e 84F802E0 		strb	lr, [r4, #2]
 2254              		.loc 1 365 0
 2255 0c22 17EE901A 		fmrs	r1, s15	@ int
 2256 0c26 3246     		mov	r2, r6
 2257 0c28 2046     		mov	r0, r4
 2258              		.loc 1 363 0
 2259 0c2a 2371     		strb	r3, [r4, #4]
 2260              		.loc 1 362 0
 2261 0c2c E770     		strb	r7, [r4, #3]
 2262              		.loc 1 358 0
 2263 0c2e 84F80080 		strb	r8, [r4]
 2264              		.loc 1 365 0
 2265 0c32 FFF7FEFF 		bl	buffer_append_int32
 2266              	.LVL233:
 2267              		.loc 1 366 0
 2268 0c36 D5ED027A 		flds	s15, [r5, #8]
 2269              		.loc 1 384 0
 2270 0c3a DFEDE68A 		flds	s17, .L154+12
 2271              		.loc 1 366 0
 2272 0c3e 67EE887A 		fmuls	s15, s15, s16
 2273 0c42 3246     		mov	r2, r6
 2274 0c44 FDEEE77A 		ftosizs	s15, s15
 2275 0c48 2046     		mov	r0, r4
 2276 0c4a 17EE901A 		fmrs	r1, s15	@ int
 2277 0c4e FFF7FEFF 		bl	buffer_append_int32
 2278              	.LVL234:
 2279              		.loc 1 367 0
 2280 0c52 D5ED037A 		flds	s15, [r5, #12]
ARM GAS  /tmp/ccy8OeyM.s 			page 41


 2281 0c56 67EE887A 		fmuls	s15, s15, s16
 2282 0c5a 3246     		mov	r2, r6
 2283 0c5c FDEEE77A 		ftosizs	s15, s15
 2284 0c60 2046     		mov	r0, r4
 2285 0c62 17EE901A 		fmrs	r1, s15	@ int
 2286 0c66 FFF7FEFF 		bl	buffer_append_int32
 2287              	.LVL235:
 2288              		.loc 1 368 0
 2289 0c6a D5ED047A 		flds	s15, [r5, #16]
 2290 0c6e 67EE887A 		fmuls	s15, s15, s16
 2291 0c72 3246     		mov	r2, r6
 2292 0c74 FDEEE77A 		ftosizs	s15, s15
 2293 0c78 2046     		mov	r0, r4
 2294 0c7a 17EE901A 		fmrs	r1, s15	@ int
 2295 0c7e FFF7FEFF 		bl	buffer_append_int32
 2296              	.LVL236:
 2297              		.loc 1 369 0
 2298 0c82 D5ED057A 		flds	s15, [r5, #20]
 2299 0c86 67EE887A 		fmuls	s15, s15, s16
 2300 0c8a 3246     		mov	r2, r6
 2301 0c8c FDEEE77A 		ftosizs	s15, s15
 2302 0c90 2046     		mov	r0, r4
 2303 0c92 17EE901A 		fmrs	r1, s15	@ int
 2304 0c96 FFF7FEFF 		bl	buffer_append_int32
 2305              	.LVL237:
 2306              		.loc 1 370 0
 2307 0c9a D5ED067A 		flds	s15, [r5, #24]
 2308 0c9e 67EE887A 		fmuls	s15, s15, s16
 2309 0ca2 3246     		mov	r2, r6
 2310 0ca4 FDEEE77A 		ftosizs	s15, s15
 2311 0ca8 2046     		mov	r0, r4
 2312 0caa 17EE901A 		fmrs	r1, s15	@ int
 2313 0cae FFF7FEFF 		bl	buffer_append_int32
 2314              	.LVL238:
 2315              		.loc 1 371 0
 2316 0cb2 D5ED077A 		flds	s15, [r5, #28]
 2317 0cb6 67EE887A 		fmuls	s15, s15, s16
 2318 0cba 3246     		mov	r2, r6
 2319 0cbc FDEEE77A 		ftosizs	s15, s15
 2320 0cc0 2046     		mov	r0, r4
 2321 0cc2 17EE901A 		fmrs	r1, s15	@ int
 2322 0cc6 FFF7FEFF 		bl	buffer_append_int32
 2323              	.LVL239:
 2324              		.loc 1 372 0
 2325 0cca D5ED087A 		flds	s15, [r5, #32]
 2326 0cce 67EE887A 		fmuls	s15, s15, s16
 2327 0cd2 3246     		mov	r2, r6
 2328 0cd4 FDEEE77A 		ftosizs	s15, s15
 2329 0cd8 2046     		mov	r0, r4
 2330 0cda 17EE901A 		fmrs	r1, s15	@ int
 2331 0cde FFF7FEFF 		bl	buffer_append_int32
 2332              	.LVL240:
 2333              		.loc 1 373 0
 2334 0ce2 D5ED097A 		flds	s15, [r5, #36]
 2335 0ce6 67EE887A 		fmuls	s15, s15, s16
 2336 0cea 3246     		mov	r2, r6
 2337 0cec FDEEE77A 		ftosizs	s15, s15
ARM GAS  /tmp/ccy8OeyM.s 			page 42


 2338 0cf0 2046     		mov	r0, r4
 2339 0cf2 17EE901A 		fmrs	r1, s15	@ int
 2340 0cf6 FFF7FEFF 		bl	buffer_append_int32
 2341              	.LVL241:
 2342              		.loc 1 374 0
 2343 0cfa D5ED0A7A 		flds	s15, [r5, #40]
 2344 0cfe 67EE887A 		fmuls	s15, s15, s16
 2345 0d02 3246     		mov	r2, r6
 2346 0d04 FDEEE77A 		ftosizs	s15, s15
 2347 0d08 2046     		mov	r0, r4
 2348 0d0a 17EE901A 		fmrs	r1, s15	@ int
 2349 0d0e FFF7FEFF 		bl	buffer_append_int32
 2350              	.LVL242:
 2351              		.loc 1 375 0
 2352 0d12 D5ED0B7A 		flds	s15, [r5, #44]
 2353 0d16 67EE887A 		fmuls	s15, s15, s16
 2354 0d1a 3246     		mov	r2, r6
 2355 0d1c FDEEE77A 		ftosizs	s15, s15
 2356 0d20 2046     		mov	r0, r4
 2357 0d22 17EE901A 		fmrs	r1, s15	@ int
 2358 0d26 FFF7FEFF 		bl	buffer_append_int32
 2359              	.LVL243:
 2360              		.loc 1 376 0
 2361 0d2a F0EE480A 		fcpys	s1, s16
 2362 0d2e 2046     		mov	r0, r4
 2363 0d30 3146     		mov	r1, r6
 2364 0d32 95ED0C0A 		flds	s0, [r5, #48]
 2365 0d36 FFF7FEFF 		bl	buffer_append_float32
 2366              	.LVL244:
 2367              		.loc 1 377 0
 2368 0d3a F0EE480A 		fcpys	s1, s16
 2369 0d3e 95ED0D0A 		flds	s0, [r5, #52]
 2370 0d42 2046     		mov	r0, r4
 2371 0d44 3146     		mov	r1, r6
 2372 0d46 FFF7FEFF 		bl	buffer_append_float32
 2373              	.LVL245:
 2374              		.loc 1 380 0
 2375 0d4a D5ED0F7A 		flds	s15, [r5, #60]
 2376              		.loc 1 378 0
 2377 0d4e 029B     		ldr	r3, [sp, #8]
 2378 0d50 95F83820 		ldrb	r2, [r5, #56]	@ zero_extendqisi2
 2379              		.loc 1 379 0
 2380 0d54 95F839E0 		ldrb	lr, [r5, #57]	@ zero_extendqisi2
 2381              		.loc 1 378 0
 2382 0d58 E254     		strb	r2, [r4, r3]
 2383              		.loc 1 380 0
 2384 0d5a 67EE887A 		fmuls	s15, s15, s16
 2385              		.loc 1 379 0
 2386 0d5e E718     		adds	r7, r4, r3
 2387              		.loc 1 380 0
 2388 0d60 FDEEE77A 		ftosizs	s15, s15
 2389              		.loc 1 379 0
 2390 0d64 0233     		adds	r3, r3, #2
 2391              		.loc 1 380 0
 2392 0d66 17EE901A 		fmrs	r1, s15	@ int
 2393 0d6a 3246     		mov	r2, r6
 2394 0d6c 2046     		mov	r0, r4
ARM GAS  /tmp/ccy8OeyM.s 			page 43


 2395              		.loc 1 379 0
 2396 0d6e 87F801E0 		strb	lr, [r7, #1]
 2397 0d72 0293     		str	r3, [sp, #8]
 2398              		.loc 1 380 0
 2399 0d74 FFF7FEFF 		bl	buffer_append_int32
 2400              	.LVL246:
 2401              		.loc 1 381 0
 2402 0d78 D5ED107A 		flds	s15, [r5, #64]
 2403 0d7c 67EE887A 		fmuls	s15, s15, s16
 2404 0d80 3246     		mov	r2, r6
 2405 0d82 FDEEE77A 		ftosizs	s15, s15
 2406 0d86 2046     		mov	r0, r4
 2407 0d88 17EE901A 		fmrs	r1, s15	@ int
 2408 0d8c FFF7FEFF 		bl	buffer_append_int32
 2409              	.LVL247:
 2410              		.loc 1 382 0
 2411 0d90 D5ED117A 		flds	s15, [r5, #68]
 2412 0d94 67EE887A 		fmuls	s15, s15, s16
 2413 0d98 3246     		mov	r2, r6
 2414 0d9a FDEEE77A 		ftosizs	s15, s15
 2415 0d9e 2046     		mov	r0, r4
 2416 0da0 17EE901A 		fmrs	r1, s15	@ int
 2417 0da4 FFF7FEFF 		bl	buffer_append_int32
 2418              	.LVL248:
 2419              		.loc 1 383 0
 2420 0da8 D5ED127A 		flds	s15, [r5, #72]
 2421 0dac 67EE887A 		fmuls	s15, s15, s16
 2422 0db0 3246     		mov	r2, r6
 2423 0db2 FDEEE77A 		ftosizs	s15, s15
 2424 0db6 2046     		mov	r0, r4
 2425 0db8 17EE901A 		fmrs	r1, s15	@ int
 2426 0dbc FFF7FEFF 		bl	buffer_append_int32
 2427              	.LVL249:
 2428              		.loc 1 384 0
 2429 0dc0 D5ED137A 		flds	s15, [r5, #76]
 2430 0dc4 67EEA87A 		fmuls	s15, s15, s17
 2431 0dc8 3246     		mov	r2, r6
 2432 0dca FDEEE77A 		ftosizs	s15, s15
 2433 0dce 2046     		mov	r0, r4
 2434 0dd0 17EE901A 		fmrs	r1, s15	@ int
 2435 0dd4 FFF7FEFF 		bl	buffer_append_int32
 2436              	.LVL250:
 2437              		.loc 1 385 0
 2438 0dd8 D5ED147A 		flds	s15, [r5, #80]
 2439 0ddc 67EEA87A 		fmuls	s15, s15, s17
 2440 0de0 3246     		mov	r2, r6
 2441 0de2 FDEEE77A 		ftosizs	s15, s15
 2442 0de6 2046     		mov	r0, r4
 2443 0de8 17EE901A 		fmrs	r1, s15	@ int
 2444 0dec FFF7FEFF 		bl	buffer_append_int32
 2445              	.LVL251:
 2446              		.loc 1 387 0
 2447 0df0 D5ED197A 		flds	s15, [r5, #100]
 2448 0df4 67EE887A 		fmuls	s15, s15, s16
 2449 0df8 3246     		mov	r2, r6
 2450 0dfa FDEEE77A 		ftosizs	s15, s15
 2451 0dfe 2046     		mov	r0, r4
ARM GAS  /tmp/ccy8OeyM.s 			page 44


 2452 0e00 17EE901A 		fmrs	r1, s15	@ int
 2453 0e04 FFF7FEFF 		bl	buffer_append_int32
 2454              	.LVL252:
 2455              		.loc 1 388 0
 2456 0e08 D5ED1A7A 		flds	s15, [r5, #104]
 2457 0e0c 67EE887A 		fmuls	s15, s15, s16
 2458 0e10 3246     		mov	r2, r6
 2459 0e12 FDEEE77A 		ftosizs	s15, s15
 2460 0e16 2046     		mov	r0, r4
 2461 0e18 17EE901A 		fmrs	r1, s15	@ int
 2462 0e1c FFF7FEFF 		bl	buffer_append_int32
 2463              	.LVL253:
 2464              		.loc 1 389 0
 2465 0e20 D5ED1B7A 		flds	s15, [r5, #108]
 2466 0e24 67EE887A 		fmuls	s15, s15, s16
 2467 0e28 3246     		mov	r2, r6
 2468 0e2a FDEEE77A 		ftosizs	s15, s15
 2469 0e2e 2046     		mov	r0, r4
 2470 0e30 17EE901A 		fmrs	r1, s15	@ int
 2471 0e34 FFF7FEFF 		bl	buffer_append_int32
 2472              	.LVL254:
 2473              		.loc 1 390 0
 2474 0e38 D5ED1C7A 		flds	s15, [r5, #112]
 2475 0e3c 67EE887A 		fmuls	s15, s15, s16
 2476 0e40 3246     		mov	r2, r6
 2477 0e42 FDEEE77A 		ftosizs	s15, s15
 2478 0e46 2046     		mov	r0, r4
 2479 0e48 17EE901A 		fmrs	r1, s15	@ int
 2480 0e4c FFF7FEFF 		bl	buffer_append_int32
 2481              	.LVL255:
 2482              		.loc 1 391 0
 2483 0e50 D5ED1D7A 		flds	s15, [r5, #116]
 2484 0e54 67EE887A 		fmuls	s15, s15, s16
 2485 0e58 3246     		mov	r2, r6
 2486 0e5a FDEEE77A 		ftosizs	s15, s15
 2487 0e5e 2046     		mov	r0, r4
 2488 0e60 17EE901A 		fmrs	r1, s15	@ int
 2489 0e64 FFF7FEFF 		bl	buffer_append_int32
 2490              	.LVL256:
 2491              		.loc 1 392 0
 2492 0e68 D5ED1E7A 		flds	s15, [r5, #120]
 2493 0e6c 67EE887A 		fmuls	s15, s15, s16
 2494 0e70 3246     		mov	r2, r6
 2495 0e72 FDEEE77A 		ftosizs	s15, s15
 2496 0e76 2046     		mov	r0, r4
 2497 0e78 17EE901A 		fmrs	r1, s15	@ int
 2498 0e7c FFF7FEFF 		bl	buffer_append_int32
 2499              	.LVL257:
 2500              		.loc 1 393 0
 2501 0e80 D5ED1F7A 		flds	s15, [r5, #124]
 2502 0e84 67EE887A 		fmuls	s15, s15, s16
 2503 0e88 3246     		mov	r2, r6
 2504 0e8a FDEEE77A 		ftosizs	s15, s15
 2505 0e8e 2046     		mov	r0, r4
 2506 0e90 17EE901A 		fmrs	r1, s15	@ int
 2507 0e94 FFF7FEFF 		bl	buffer_append_int32
 2508              	.LVL258:
ARM GAS  /tmp/ccy8OeyM.s 			page 45


 2509              		.loc 1 397 0
 2510 0e98 D5ED227A 		flds	s15, [r5, #136]
 2511              		.loc 1 395 0
 2512 0e9c 029B     		ldr	r3, [sp, #8]
 2513              		.loc 1 397 0
 2514 0e9e 67EE887A 		fmuls	s15, s15, s16
 2515              		.loc 1 395 0
 2516 0ea2 05F18002 		add	r2, r5, #128
 2517 0ea6 03CA     		ldmia	r2!, {r0, r1}
 2518              		.loc 1 397 0
 2519 0ea8 FDEEE77A 		ftosizs	s15, s15
 2520              		.loc 1 395 0
 2521 0eac E218     		adds	r2, r4, r3
 2522 0eae E050     		str	r0, [r4, r3]	@ unaligned
 2523              		.loc 1 396 0
 2524 0eb0 0833     		adds	r3, r3, #8
 2525              		.loc 1 395 0
 2526 0eb2 5160     		str	r1, [r2, #4]	@ unaligned
 2527              		.loc 1 397 0
 2528 0eb4 2046     		mov	r0, r4
 2529 0eb6 17EE901A 		fmrs	r1, s15	@ int
 2530 0eba 3246     		mov	r2, r6
 2531              		.loc 1 396 0
 2532 0ebc 0293     		str	r3, [sp, #8]
 2533              		.loc 1 397 0
 2534 0ebe FFF7FEFF 		bl	buffer_append_int32
 2535              	.LVL259:
 2536              		.loc 1 399 0
 2537 0ec2 2046     		mov	r0, r4
 2538 0ec4 3146     		mov	r1, r6
 2539 0ec6 95ED230A 		flds	s0, [r5, #140]
 2540 0eca DFED440A 		flds	s1, .L154+20
 2541 0ece FFF7FEFF 		bl	buffer_append_float32
 2542              	.LVL260:
 2543              		.loc 1 400 0
 2544 0ed2 2046     		mov	r0, r4
 2545 0ed4 3146     		mov	r1, r6
 2546 0ed6 95ED240A 		flds	s0, [r5, #144]
 2547 0eda DFED400A 		flds	s1, .L154+20
 2548 0ede FFF7FEFF 		bl	buffer_append_float32
 2549              	.LVL261:
 2550              		.loc 1 401 0
 2551 0ee2 F0EE480A 		fcpys	s1, s16
 2552 0ee6 2046     		mov	r0, r4
 2553 0ee8 3146     		mov	r1, r6
 2554 0eea 95ED250A 		flds	s0, [r5, #148]
 2555 0eee FFF7FEFF 		bl	buffer_append_float32
 2556              	.LVL262:
 2557              		.loc 1 402 0
 2558 0ef2 2046     		mov	r0, r4
 2559 0ef4 3146     		mov	r1, r6
 2560 0ef6 95ED260A 		flds	s0, [r5, #152]
 2561 0efa F0EE680A 		fcpys	s1, s17
 2562 0efe FFF7FEFF 		bl	buffer_append_float32
 2563              	.LVL263:
 2564              		.loc 1 403 0
 2565 0f02 029B     		ldr	r3, [sp, #8]
ARM GAS  /tmp/ccy8OeyM.s 			page 46


 2566 0f04 95F8A020 		ldrb	r2, [r5, #160]	@ zero_extendqisi2
 2567 0f08 E254     		strb	r2, [r4, r3]
 2568              		.loc 1 404 0
 2569 0f0a F0EE480A 		fcpys	s1, s16
 2570              		.loc 1 403 0
 2571 0f0e 0133     		adds	r3, r3, #1
 2572              		.loc 1 404 0
 2573 0f10 95ED270A 		flds	s0, [r5, #156]
 2574              		.loc 1 403 0
 2575 0f14 0293     		str	r3, [sp, #8]
 2576              		.loc 1 404 0
 2577 0f16 3146     		mov	r1, r6
 2578 0f18 2046     		mov	r0, r4
 2579 0f1a FFF7FEFF 		bl	buffer_append_float32
 2580              	.LVL264:
 2581              		.loc 1 405 0
 2582 0f1e F0EE480A 		fcpys	s1, s16
 2583 0f22 2046     		mov	r0, r4
 2584 0f24 3146     		mov	r1, r6
 2585 0f26 95ED290A 		flds	s0, [r5, #164]
 2586 0f2a FFF7FEFF 		bl	buffer_append_float32
 2587              	.LVL265:
 2588              		.loc 1 406 0
 2589 0f2e 029B     		ldr	r3, [sp, #8]
 2590 0f30 95F8DC20 		ldrb	r2, [r5, #220]	@ zero_extendqisi2
 2591 0f34 E254     		strb	r2, [r4, r3]
 2592              		.loc 1 407 0
 2593 0f36 F0EE480A 		fcpys	s1, s16
 2594              		.loc 1 406 0
 2595 0f3a 0133     		adds	r3, r3, #1
 2596              		.loc 1 407 0
 2597 0f3c 95ED2E0A 		flds	s0, [r5, #184]
 2598              		.loc 1 406 0
 2599 0f40 0293     		str	r3, [sp, #8]
 2600              		.loc 1 407 0
 2601 0f42 3146     		mov	r1, r6
 2602 0f44 2046     		mov	r0, r4
 2603 0f46 FFF7FEFF 		bl	buffer_append_float32
 2604              	.LVL266:
 2605              		.loc 1 408 0
 2606 0f4a F0EE480A 		fcpys	s1, s16
 2607 0f4e 2046     		mov	r0, r4
 2608 0f50 3146     		mov	r1, r6
 2609 0f52 95ED2F0A 		flds	s0, [r5, #188]
 2610 0f56 FFF7FEFF 		bl	buffer_append_float32
 2611              	.LVL267:
 2612              		.loc 1 409 0
 2613 0f5a 2046     		mov	r0, r4
 2614 0f5c 3146     		mov	r1, r6
 2615 0f5e 95ED2A0A 		flds	s0, [r5, #168]
 2616 0f62 DFED1D0A 		flds	s1, .L154+16
 2617 0f66 FFF7FEFF 		bl	buffer_append_float32
 2618              	.LVL268:
 2619              		.loc 1 410 0
 2620 0f6a 2046     		mov	r0, r4
 2621 0f6c 3146     		mov	r1, r6
 2622 0f6e 95ED2B0A 		flds	s0, [r5, #172]
ARM GAS  /tmp/ccy8OeyM.s 			page 47


 2623 0f72 DFED1A0A 		flds	s1, .L154+20
 2624 0f76 FFF7FEFF 		bl	buffer_append_float32
 2625              	.LVL269:
 2626              		.loc 1 411 0
 2627 0f7a 2046     		mov	r0, r4
 2628 0f7c 3146     		mov	r1, r6
 2629 0f7e 95ED2C0A 		flds	s0, [r5, #176]
 2630 0f82 DFED160A 		flds	s1, .L154+20
 2631 0f86 FFF7FEFF 		bl	buffer_append_float32
 2632              	.LVL270:
 2633              		.loc 1 412 0
 2634 0f8a 2046     		mov	r0, r4
 2635 0f8c 3146     		mov	r1, r6
 2636 0f8e 95ED2D0A 		flds	s0, [r5, #180]
 2637 0f92 F7EE000A 		fconsts	s1, #112
 2638 0f96 FFF7FEFF 		bl	buffer_append_float32
 2639              	.LVL271:
 2640              		.loc 1 413 0
 2641 0f9a F0EE480A 		fcpys	s1, s16
 2642 0f9e 2046     		mov	r0, r4
 2643 0fa0 3146     		mov	r1, r6
 2644 0fa2 95ED300A 		flds	s0, [r5, #192]
 2645 0fa6 FFF7FEFF 		bl	buffer_append_float32
 2646              	.LVL272:
 2647              		.loc 1 414 0
 2648 0faa F0EE480A 		fcpys	s1, s16
 2649 0fae 2046     		mov	r0, r4
 2650 0fb0 3146     		mov	r1, r6
 2651 0fb2 95ED310A 		flds	s0, [r5, #196]
 2652 0fb6 FFF7FEFF 		bl	buffer_append_float32
 2653              	.LVL273:
 2654              		.loc 1 415 0
 2655 0fba F0EE480A 		fcpys	s1, s16
 2656 0fbe 2046     		mov	r0, r4
 2657 0fc0 3146     		mov	r1, r6
 2658 0fc2 95ED320A 		flds	s0, [r5, #200]
 2659 0fc6 0BE0     		b	.L155
 2660              	.L156:
 2661              		.align	2
 2662              	.L154:
 2663 0fc8 00000000 		.word	.LANCHOR11
 2664 0fcc 00007A44 		.word	1148846080
 2665 0fd0 00000000 		.word	.LANCHOR8
 2666 0fd4 00247449 		.word	1232348160
 2667 0fd8 20BCBE4C 		.word	1287568416
 2668 0fdc 0050C347 		.word	1203982336
 2669              	.L155:
 2670 0fe0 FFF7FEFF 		bl	buffer_append_float32
 2671              	.LVL274:
 2672              		.loc 1 416 0
 2673 0fe4 F0EE480A 		fcpys	s1, s16
 2674 0fe8 2046     		mov	r0, r4
 2675 0fea 3146     		mov	r1, r6
 2676 0fec 95ED330A 		flds	s0, [r5, #204]
 2677 0ff0 FFF7FEFF 		bl	buffer_append_float32
 2678              	.LVL275:
 2679              		.loc 1 417 0
ARM GAS  /tmp/ccy8OeyM.s 			page 48


 2680 0ff4 F0EE480A 		fcpys	s1, s16
 2681 0ff8 2046     		mov	r0, r4
 2682 0ffa 3146     		mov	r1, r6
 2683 0ffc 95ED340A 		flds	s0, [r5, #208]
 2684 1000 FFF7FEFF 		bl	buffer_append_float32
 2685              	.LVL276:
 2686              		.loc 1 418 0
 2687 1004 F0EE480A 		fcpys	s1, s16
 2688 1008 2046     		mov	r0, r4
 2689 100a 3146     		mov	r1, r6
 2690 100c 95ED350A 		flds	s0, [r5, #212]
 2691 1010 FFF7FEFF 		bl	buffer_append_float32
 2692              	.LVL277:
 2693              		.loc 1 419 0
 2694 1014 F0EE480A 		fcpys	s1, s16
 2695 1018 95ED360A 		flds	s0, [r5, #216]
 2696 101c 2046     		mov	r0, r4
 2697 101e 3146     		mov	r1, r6
 2698 1020 FFF7FEFF 		bl	buffer_append_float32
 2699              	.LVL278:
 2700              		.loc 1 422 0
 2701 1024 D5ED3A7A 		flds	s15, [r5, #232]
 2702              		.loc 1 420 0
 2703 1028 029B     		ldr	r3, [sp, #8]
 2704 102a 2A46     		mov	r2, r5
 2705              		.loc 1 422 0
 2706 102c 67EE887A 		fmuls	s15, s15, s16
 2707              		.loc 1 420 0
 2708 1030 52F8DD1F 		ldr	r1, [r2, #221]!	@ unaligned
 2709 1034 E150     		str	r1, [r4, r3]	@ unaligned
 2710              		.loc 1 422 0
 2711 1036 FDEEE77A 		ftosizs	s15, s15
 2712              		.loc 1 420 0
 2713 103a E118     		adds	r1, r4, r3
 2714 103c 5268     		ldr	r2, [r2, #4]	@ unaligned
 2715 103e 4A60     		str	r2, [r1, #4]	@ unaligned
 2716              		.loc 1 421 0
 2717 1040 0833     		adds	r3, r3, #8
 2718              		.loc 1 422 0
 2719 1042 17EE901A 		fmrs	r1, s15	@ int
 2720 1046 3246     		mov	r2, r6
 2721 1048 2046     		mov	r0, r4
 2722              		.loc 1 421 0
 2723 104a 0293     		str	r3, [sp, #8]
 2724              		.loc 1 422 0
 2725 104c FFF7FEFF 		bl	buffer_append_int32
 2726              	.LVL279:
 2727              		.loc 1 424 0
 2728 1050 D5ED3B7A 		flds	s15, [r5, #236]
 2729 1054 67EEA87A 		fmuls	s15, s15, s17
 2730 1058 3246     		mov	r2, r6
 2731 105a FDEEE77A 		ftosizs	s15, s15
 2732 105e 2046     		mov	r0, r4
 2733 1060 17EE901A 		fmrs	r1, s15	@ int
 2734 1064 FFF7FEFF 		bl	buffer_append_int32
 2735              	.LVL280:
 2736              		.loc 1 425 0
ARM GAS  /tmp/ccy8OeyM.s 			page 49


 2737 1068 D5ED3C7A 		flds	s15, [r5, #240]
 2738 106c 67EEA87A 		fmuls	s15, s15, s17
 2739 1070 3246     		mov	r2, r6
 2740 1072 FDEEE77A 		ftosizs	s15, s15
 2741 1076 2046     		mov	r0, r4
 2742 1078 17EE901A 		fmrs	r1, s15	@ int
 2743 107c FFF7FEFF 		bl	buffer_append_int32
 2744              	.LVL281:
 2745              		.loc 1 426 0
 2746 1080 D5ED3D7A 		flds	s15, [r5, #244]
 2747 1084 67EEA87A 		fmuls	s15, s15, s17
 2748 1088 3246     		mov	r2, r6
 2749 108a FDEEE77A 		ftosizs	s15, s15
 2750 108e 2046     		mov	r0, r4
 2751 1090 17EE901A 		fmrs	r1, s15	@ int
 2752 1094 FFF7FEFF 		bl	buffer_append_int32
 2753              	.LVL282:
 2754              		.loc 1 427 0
 2755 1098 D5ED3E7A 		flds	s15, [r5, #248]
 2756 109c 67EE887A 		fmuls	s15, s15, s16
 2757 10a0 3246     		mov	r2, r6
 2758 10a2 FDEEE77A 		ftosizs	s15, s15
 2759 10a6 2046     		mov	r0, r4
 2760 10a8 17EE901A 		fmrs	r1, s15	@ int
 2761 10ac FFF7FEFF 		bl	buffer_append_int32
 2762              	.LVL283:
 2763              		.loc 1 429 0
 2764 10b0 D5ED3F7A 		flds	s15, [r5, #252]
 2765 10b4 67EEA87A 		fmuls	s15, s15, s17
 2766 10b8 3246     		mov	r2, r6
 2767 10ba FDEEE77A 		ftosizs	s15, s15
 2768 10be 2046     		mov	r0, r4
 2769 10c0 17EE901A 		fmrs	r1, s15	@ int
 2770 10c4 FFF7FEFF 		bl	buffer_append_int32
 2771              	.LVL284:
 2772              		.loc 1 430 0
 2773 10c8 D5ED407A 		flds	s15, [r5, #256]
 2774 10cc 67EEA87A 		fmuls	s15, s15, s17
 2775 10d0 3246     		mov	r2, r6
 2776 10d2 FDEEE77A 		ftosizs	s15, s15
 2777 10d6 2046     		mov	r0, r4
 2778 10d8 17EE901A 		fmrs	r1, s15	@ int
 2779 10dc FFF7FEFF 		bl	buffer_append_int32
 2780              	.LVL285:
 2781              		.loc 1 431 0
 2782 10e0 D5ED417A 		flds	s15, [r5, #260]
 2783 10e4 67EEA87A 		fmuls	s15, s15, s17
 2784 10e8 3246     		mov	r2, r6
 2785 10ea FDEEE77A 		ftosizs	s15, s15
 2786 10ee 2046     		mov	r0, r4
 2787 10f0 17EE901A 		fmrs	r1, s15	@ int
 2788 10f4 FFF7FEFF 		bl	buffer_append_int32
 2789              	.LVL286:
 2790              		.loc 1 432 0
 2791 10f8 95ED420A 		flds	s0, [r5, #264]
 2792 10fc 5FED490A 		flds	s1, .L154+20
 2793 1100 2046     		mov	r0, r4
ARM GAS  /tmp/ccy8OeyM.s 			page 50


 2794 1102 3146     		mov	r1, r6
 2795 1104 FFF7FEFF 		bl	buffer_append_float32
 2796              	.LVL287:
 2797              		.loc 1 434 0
 2798 1108 D5ED437A 		flds	s15, [r5, #268]
 2799 110c 67EEA87A 		fmuls	s15, s15, s17
 2800 1110 3246     		mov	r2, r6
 2801 1112 FDEEE77A 		ftosizs	s15, s15
 2802 1116 2046     		mov	r0, r4
 2803 1118 17EE901A 		fmrs	r1, s15	@ int
 2804 111c FFF7FEFF 		bl	buffer_append_int32
 2805              	.LVL288:
 2806              		.loc 1 435 0
 2807 1120 D5ED447A 		flds	s15, [r5, #272]
 2808 1124 27EE888A 		fmuls	s16, s15, s16
 2809 1128 3246     		mov	r2, r6
 2810 112a FDEEC87A 		ftosizs	s15, s16
 2811 112e 2046     		mov	r0, r4
 2812 1130 17EE901A 		fmrs	r1, s15	@ int
 2813 1134 FFF7FEFF 		bl	buffer_append_int32
 2814              	.LVL289:
 2815              		.loc 1 436 0
 2816 1138 D5ED457A 		flds	s15, [r5, #276]
 2817 113c 67EEA87A 		fmuls	s15, s15, s17
 2818 1140 3246     		mov	r2, r6
 2819 1142 FDEEE77A 		ftosizs	s15, s15
 2820 1146 2046     		mov	r0, r4
 2821 1148 17EE901A 		fmrs	r1, s15	@ int
 2822 114c FFF7FEFF 		bl	buffer_append_int32
 2823              	.LVL290:
 2824              		.loc 1 437 0
 2825 1150 D5ED467A 		flds	s15, [r5, #280]
 2826 1154 67EEA87A 		fmuls	s15, s15, s17
 2827 1158 3246     		mov	r2, r6
 2828 115a FDEEE77A 		ftosizs	s15, s15
 2829 115e 2046     		mov	r0, r4
 2830 1160 17EE901A 		fmrs	r1, s15	@ int
 2831 1164 FFF7FEFF 		bl	buffer_append_int32
 2832              	.LVL291:
 2833              		.loc 1 439 0
 2834 1168 3246     		mov	r2, r6
 2835 116a 2046     		mov	r0, r4
 2836 116c D5F81C11 		ldr	r1, [r5, #284]
 2837 1170 FFF7FEFF 		bl	buffer_append_int32
 2838              	.LVL292:
 2839              		.loc 1 440 0
 2840 1174 2046     		mov	r0, r4
 2841 1176 3146     		mov	r1, r6
 2842 1178 95ED480A 		flds	s0, [r5, #288]
 2843 117c F0EE680A 		fcpys	s1, s17
 2844 1180 FFF7FEFF 		bl	buffer_append_float32
 2845              	.LVL293:
 2846              		.loc 1 441 0
 2847 1184 2046     		mov	r0, r4
 2848 1186 3146     		mov	r1, r6
 2849 1188 95ED490A 		flds	s0, [r5, #292]
 2850 118c F0EE680A 		fcpys	s1, s17
ARM GAS  /tmp/ccy8OeyM.s 			page 51


 2851 1190 FFF7FEFF 		bl	buffer_append_float32
 2852              	.LVL294:
 2853              		.loc 1 442 0
 2854 1194 2046     		mov	r0, r4
 2855 1196 F0EE680A 		fcpys	s1, s17
 2856 119a 3146     		mov	r1, r6
 2857 119c 95ED4A0A 		flds	s0, [r5, #296]
 2858 11a0 FFF7FEFF 		bl	buffer_append_float32
 2859              	.LVL295:
 2860              		.loc 1 443 0
 2861 11a4 3246     		mov	r2, r6
 2862 11a6 D5F82C11 		ldr	r1, [r5, #300]
 2863 11aa 2046     		mov	r0, r4
 2864 11ac FFF7FEFF 		bl	buffer_append_uint32
 2865              	.LVL296:
 2866              	.LBB135:
 2867              	.LBB136:
 2868              		.loc 1 94 0
 2869 11b0 064B     		ldr	r3, .L157
 2870              	.LBE136:
 2871              	.LBE135:
 2872              		.loc 1 444 0
 2873 11b2 0299     		ldr	r1, [sp, #8]
 2874 11b4 95F83021 		ldrb	r2, [r5, #304]	@ zero_extendqisi2
 2875              	.LBB139:
 2876              	.LBB137:
 2877              		.loc 1 94 0
 2878 11b8 1B68     		ldr	r3, [r3]
 2879              	.LBE137:
 2880              	.LBE139:
 2881              		.loc 1 444 0
 2882 11ba 6254     		strb	r2, [r4, r1]
 2883              	.LVL297:
 2884 11bc 0131     		adds	r1, r1, #1
 2885              	.LVL298:
 2886 11be 0291     		str	r1, [sp, #8]
 2887              	.LBB140:
 2888              	.LBB138:
 2889              		.loc 1 94 0
 2890 11c0 002B     		cmp	r3, #0
 2891 11c2 7FF435A9 		bne	.L133
 2892 11c6 FFF7E2B8 		b	.L24
 2893              	.L158:
 2894 11ca 00BF     		.align	2
 2895              	.L157:
 2896 11cc 00000000 		.word	.LANCHOR9
 2897              	.LVL299:
 2898              	.L39:
 2899              	.LBE138:
 2900              	.LBE140:
 2901              		.loc 1 247 0
 2902 11d0 FFF7FEFF 		bl	mc_interface_get_configuration
 2903              	.LVL300:
 2904 11d4 EE4D     		ldr	r5, .L159
 2905              	.LVL301:
 2906              		.loc 1 255 0
 2907 11d6 9FEDEF8A 		flds	s16, .L159+4
ARM GAS  /tmp/ccy8OeyM.s 			page 52


 2908              		.loc 1 274 0
 2909 11da DFEDEF8A 		flds	s17, .L159+8
 2910              		.loc 1 294 0
 2911 11de 9FEDEF9A 		flds	s18, .L159+12
 2912              		.loc 1 253 0
 2913 11e2 2CAE     		add	r6, sp, #176
 2914              		.loc 1 247 0
 2915 11e4 0146     		mov	r1, r0
 2916 11e6 4FF49A72 		mov	r2, #308
 2917 11ea 2846     		mov	r0, r5
 2918 11ec FFF7FEFF 		bl	memcpy
 2919              	.LVL302:
 2920              		.loc 1 253 0
 2921 11f0 0423     		movs	r3, #4
 2922 11f2 46F8A83D 		str	r3, [r6, #-168]!
 2923              		.loc 1 250 0
 2924 11f6 7978     		ldrb	r1, [r7, #1]	@ zero_extendqisi2
 2925              		.loc 1 251 0
 2926 11f8 97F802E0 		ldrb	lr, [r7, #2]	@ zero_extendqisi2
 2927              		.loc 1 252 0
 2928 11fc FA78     		ldrb	r2, [r7, #3]	@ zero_extendqisi2
 2929              		.loc 1 253 0
 2930 11fe 3B79     		ldrb	r3, [r7, #4]	@ zero_extendqisi2
 2931              		.loc 1 250 0
 2932 1200 2970     		strb	r1, [r5]
 2933              		.loc 1 255 0
 2934 1202 B0EE480A 		fcpys	s0, s16
 2935 1206 3146     		mov	r1, r6
 2936 1208 2046     		mov	r0, r4
 2937              		.loc 1 251 0
 2938 120a 85F801E0 		strb	lr, [r5, #1]
 2939              		.loc 1 252 0
 2940 120e AA70     		strb	r2, [r5, #2]
 2941              		.loc 1 253 0
 2942 1210 EB70     		strb	r3, [r5, #3]
 2943              		.loc 1 255 0
 2944 1212 FFF7FEFF 		bl	buffer_get_float32
 2945              	.LVL303:
 2946              		.loc 1 256 0
 2947 1216 3146     		mov	r1, r6
 2948              		.loc 1 255 0
 2949 1218 85ED010A 		fsts	s0, [r5, #4]
 2950              		.loc 1 256 0
 2951 121c 2046     		mov	r0, r4
 2952 121e B0EE480A 		fcpys	s0, s16
 2953 1222 FFF7FEFF 		bl	buffer_get_float32
 2954              	.LVL304:
 2955              		.loc 1 257 0
 2956 1226 3146     		mov	r1, r6
 2957              		.loc 1 256 0
 2958 1228 85ED020A 		fsts	s0, [r5, #8]
 2959              		.loc 1 257 0
 2960 122c 2046     		mov	r0, r4
 2961 122e B0EE480A 		fcpys	s0, s16
 2962 1232 FFF7FEFF 		bl	buffer_get_float32
 2963              	.LVL305:
 2964              		.loc 1 258 0
ARM GAS  /tmp/ccy8OeyM.s 			page 53


 2965 1236 3146     		mov	r1, r6
 2966              		.loc 1 257 0
 2967 1238 85ED030A 		fsts	s0, [r5, #12]
 2968              		.loc 1 258 0
 2969 123c 2046     		mov	r0, r4
 2970 123e B0EE480A 		fcpys	s0, s16
 2971 1242 FFF7FEFF 		bl	buffer_get_float32
 2972              	.LVL306:
 2973              		.loc 1 259 0
 2974 1246 3146     		mov	r1, r6
 2975              		.loc 1 258 0
 2976 1248 85ED040A 		fsts	s0, [r5, #16]
 2977              		.loc 1 259 0
 2978 124c 2046     		mov	r0, r4
 2979 124e B0EE480A 		fcpys	s0, s16
 2980 1252 FFF7FEFF 		bl	buffer_get_float32
 2981              	.LVL307:
 2982              		.loc 1 260 0
 2983 1256 3146     		mov	r1, r6
 2984              		.loc 1 259 0
 2985 1258 85ED050A 		fsts	s0, [r5, #20]
 2986              		.loc 1 260 0
 2987 125c 2046     		mov	r0, r4
 2988 125e B0EE480A 		fcpys	s0, s16
 2989 1262 FFF7FEFF 		bl	buffer_get_float32
 2990              	.LVL308:
 2991              		.loc 1 261 0
 2992 1266 3146     		mov	r1, r6
 2993              		.loc 1 260 0
 2994 1268 85ED060A 		fsts	s0, [r5, #24]
 2995              		.loc 1 261 0
 2996 126c 2046     		mov	r0, r4
 2997 126e B0EE480A 		fcpys	s0, s16
 2998 1272 FFF7FEFF 		bl	buffer_get_float32
 2999              	.LVL309:
 3000              		.loc 1 262 0
 3001 1276 3146     		mov	r1, r6
 3002              		.loc 1 261 0
 3003 1278 85ED070A 		fsts	s0, [r5, #28]
 3004              		.loc 1 262 0
 3005 127c 2046     		mov	r0, r4
 3006 127e B0EE480A 		fcpys	s0, s16
 3007 1282 FFF7FEFF 		bl	buffer_get_float32
 3008              	.LVL310:
 3009              		.loc 1 263 0
 3010 1286 3146     		mov	r1, r6
 3011              		.loc 1 262 0
 3012 1288 85ED080A 		fsts	s0, [r5, #32]
 3013              		.loc 1 263 0
 3014 128c 2046     		mov	r0, r4
 3015 128e B0EE480A 		fcpys	s0, s16
 3016 1292 FFF7FEFF 		bl	buffer_get_float32
 3017              	.LVL311:
 3018              		.loc 1 264 0
 3019 1296 3146     		mov	r1, r6
 3020              		.loc 1 263 0
 3021 1298 85ED090A 		fsts	s0, [r5, #36]
ARM GAS  /tmp/ccy8OeyM.s 			page 54


 3022              		.loc 1 264 0
 3023 129c 2046     		mov	r0, r4
 3024 129e B0EE480A 		fcpys	s0, s16
 3025 12a2 FFF7FEFF 		bl	buffer_get_float32
 3026              	.LVL312:
 3027              		.loc 1 265 0
 3028 12a6 3146     		mov	r1, r6
 3029              		.loc 1 264 0
 3030 12a8 85ED0A0A 		fsts	s0, [r5, #40]
 3031              		.loc 1 265 0
 3032 12ac 2046     		mov	r0, r4
 3033 12ae B0EE480A 		fcpys	s0, s16
 3034 12b2 FFF7FEFF 		bl	buffer_get_float32
 3035              	.LVL313:
 3036              		.loc 1 266 0
 3037 12b6 3146     		mov	r1, r6
 3038              		.loc 1 265 0
 3039 12b8 85ED0B0A 		fsts	s0, [r5, #44]
 3040              		.loc 1 266 0
 3041 12bc 2046     		mov	r0, r4
 3042 12be B0EE480A 		fcpys	s0, s16
 3043 12c2 FFF7FEFF 		bl	buffer_get_float32
 3044              	.LVL314:
 3045              		.loc 1 267 0
 3046 12c6 3146     		mov	r1, r6
 3047              		.loc 1 266 0
 3048 12c8 85ED0C0A 		fsts	s0, [r5, #48]
 3049              		.loc 1 267 0
 3050 12cc 2046     		mov	r0, r4
 3051 12ce B0EE480A 		fcpys	s0, s16
 3052 12d2 FFF7FEFF 		bl	buffer_get_float32
 3053              	.LVL315:
 3054              		.loc 1 268 0
 3055 12d6 029B     		ldr	r3, [sp, #8]
 3056              		.loc 1 267 0
 3057 12d8 85ED0D0A 		fsts	s0, [r5, #52]
 3058              		.loc 1 268 0
 3059 12dc E25C     		ldrb	r2, [r4, r3]	@ zero_extendqisi2
 3060 12de 0032     		adds	r2, r2, #0
 3061 12e0 03F10101 		add	r1, r3, #1
 3062 12e4 18BF     		it	ne
 3063 12e6 0122     		movne	r2, #1
 3064 12e8 85F83820 		strb	r2, [r5, #56]
 3065              		.loc 1 269 0
 3066 12ec 625C     		ldrb	r2, [r4, r1]	@ zero_extendqisi2
 3067 12ee 0032     		adds	r2, r2, #0
 3068 12f0 18BF     		it	ne
 3069 12f2 0122     		movne	r2, #1
 3070 12f4 0233     		adds	r3, r3, #2
 3071              		.loc 1 270 0
 3072 12f6 3146     		mov	r1, r6
 3073 12f8 B0EE480A 		fcpys	s0, s16
 3074 12fc 2046     		mov	r0, r4
 3075              		.loc 1 269 0
 3076 12fe 85F83920 		strb	r2, [r5, #57]
 3077 1302 0293     		str	r3, [sp, #8]
 3078              		.loc 1 270 0
ARM GAS  /tmp/ccy8OeyM.s 			page 55


 3079 1304 FFF7FEFF 		bl	buffer_get_float32
 3080              	.LVL316:
 3081              		.loc 1 271 0
 3082 1308 3146     		mov	r1, r6
 3083              		.loc 1 270 0
 3084 130a 85ED0F0A 		fsts	s0, [r5, #60]
 3085              		.loc 1 271 0
 3086 130e 2046     		mov	r0, r4
 3087 1310 B0EE480A 		fcpys	s0, s16
 3088 1314 FFF7FEFF 		bl	buffer_get_float32
 3089              	.LVL317:
 3090              		.loc 1 272 0
 3091 1318 3146     		mov	r1, r6
 3092              		.loc 1 271 0
 3093 131a 85ED100A 		fsts	s0, [r5, #64]
 3094              		.loc 1 272 0
 3095 131e 2046     		mov	r0, r4
 3096 1320 B0EE480A 		fcpys	s0, s16
 3097 1324 FFF7FEFF 		bl	buffer_get_float32
 3098              	.LVL318:
 3099              		.loc 1 273 0
 3100 1328 3146     		mov	r1, r6
 3101              		.loc 1 272 0
 3102 132a 85ED110A 		fsts	s0, [r5, #68]
 3103              		.loc 1 273 0
 3104 132e 2046     		mov	r0, r4
 3105 1330 B0EE480A 		fcpys	s0, s16
 3106 1334 FFF7FEFF 		bl	buffer_get_float32
 3107              	.LVL319:
 3108              		.loc 1 274 0
 3109 1338 3146     		mov	r1, r6
 3110              		.loc 1 273 0
 3111 133a 85ED120A 		fsts	s0, [r5, #72]
 3112              		.loc 1 274 0
 3113 133e 2046     		mov	r0, r4
 3114 1340 B0EE680A 		fcpys	s0, s17
 3115 1344 FFF7FEFF 		bl	buffer_get_float32
 3116              	.LVL320:
 3117              		.loc 1 275 0
 3118 1348 3146     		mov	r1, r6
 3119              		.loc 1 274 0
 3120 134a 85ED130A 		fsts	s0, [r5, #76]
 3121              		.loc 1 275 0
 3122 134e 2046     		mov	r0, r4
 3123 1350 B0EE680A 		fcpys	s0, s17
 3124 1354 FFF7FEFF 		bl	buffer_get_float32
 3125              	.LVL321:
 3126              		.loc 1 277 0
 3127 1358 D5F804E0 		ldr	lr, [r5, #4]	@ float
 3128              		.loc 1 279 0
 3129 135c EA68     		ldr	r2, [r5, #12]	@ float
 3130              		.loc 1 280 0
 3131 135e 2B69     		ldr	r3, [r5, #16]	@ float
 3132              		.loc 1 278 0
 3133 1360 AF68     		ldr	r7, [r5, #8]	@ float
 3134              		.loc 1 277 0
 3135 1362 C5F854E0 		str	lr, [r5, #84]	@ float
ARM GAS  /tmp/ccy8OeyM.s 			page 56


 3136              		.loc 1 282 0
 3137 1366 3146     		mov	r1, r6
 3138 1368 2046     		mov	r0, r4
 3139              		.loc 1 275 0
 3140 136a 85ED140A 		fsts	s0, [r5, #80]
 3141              		.loc 1 279 0
 3142 136e EA65     		str	r2, [r5, #92]	@ float
 3143              		.loc 1 280 0
 3144 1370 2B66     		str	r3, [r5, #96]	@ float
 3145              		.loc 1 278 0
 3146 1372 AF65     		str	r7, [r5, #88]	@ float
 3147              		.loc 1 282 0
 3148 1374 FFF7FEFF 		bl	buffer_get_int32
 3149              	.LVL322:
 3150 1378 07EE900A 		fmsr	s15, r0	@ int
 3151 137c F8EEE77A 		fsitos	s15, s15
 3152              		.loc 1 283 0
 3153 1380 3146     		mov	r1, r6
 3154              		.loc 1 282 0
 3155 1382 C7EE887A 		fdivs	s15, s15, s16
 3156              		.loc 1 283 0
 3157 1386 2046     		mov	r0, r4
 3158              		.loc 1 282 0
 3159 1388 C5ED197A 		fsts	s15, [r5, #100]
 3160              		.loc 1 283 0
 3161 138c FFF7FEFF 		bl	buffer_get_int32
 3162              	.LVL323:
 3163 1390 07EE900A 		fmsr	s15, r0	@ int
 3164 1394 F8EEE77A 		fsitos	s15, s15
 3165              		.loc 1 284 0
 3166 1398 3146     		mov	r1, r6
 3167              		.loc 1 283 0
 3168 139a C7EE887A 		fdivs	s15, s15, s16
 3169              		.loc 1 284 0
 3170 139e 2046     		mov	r0, r4
 3171              		.loc 1 283 0
 3172 13a0 C5ED1A7A 		fsts	s15, [r5, #104]
 3173              		.loc 1 284 0
 3174 13a4 FFF7FEFF 		bl	buffer_get_int32
 3175              	.LVL324:
 3176 13a8 07EE900A 		fmsr	s15, r0	@ int
 3177 13ac F8EEE77A 		fsitos	s15, s15
 3178              		.loc 1 285 0
 3179 13b0 3146     		mov	r1, r6
 3180              		.loc 1 284 0
 3181 13b2 C7EE887A 		fdivs	s15, s15, s16
 3182              		.loc 1 285 0
 3183 13b6 2046     		mov	r0, r4
 3184              		.loc 1 284 0
 3185 13b8 C5ED1B7A 		fsts	s15, [r5, #108]
 3186              		.loc 1 285 0
 3187 13bc FFF7FEFF 		bl	buffer_get_int32
 3188              	.LVL325:
 3189 13c0 07EE900A 		fmsr	s15, r0	@ int
 3190 13c4 F8EEE77A 		fsitos	s15, s15
 3191              		.loc 1 286 0
 3192 13c8 3146     		mov	r1, r6
ARM GAS  /tmp/ccy8OeyM.s 			page 57


 3193              		.loc 1 285 0
 3194 13ca C7EE887A 		fdivs	s15, s15, s16
 3195              		.loc 1 286 0
 3196 13ce 2046     		mov	r0, r4
 3197              		.loc 1 285 0
 3198 13d0 C5ED1C7A 		fsts	s15, [r5, #112]
 3199              		.loc 1 286 0
 3200 13d4 FFF7FEFF 		bl	buffer_get_int32
 3201              	.LVL326:
 3202 13d8 07EE900A 		fmsr	s15, r0	@ int
 3203 13dc F8EEE77A 		fsitos	s15, s15
 3204              		.loc 1 287 0
 3205 13e0 3146     		mov	r1, r6
 3206              		.loc 1 286 0
 3207 13e2 C7EE887A 		fdivs	s15, s15, s16
 3208              		.loc 1 287 0
 3209 13e6 2046     		mov	r0, r4
 3210              		.loc 1 286 0
 3211 13e8 C5ED1D7A 		fsts	s15, [r5, #116]
 3212              		.loc 1 287 0
 3213 13ec FFF7FEFF 		bl	buffer_get_int32
 3214              	.LVL327:
 3215 13f0 07EE900A 		fmsr	s15, r0	@ int
 3216 13f4 F8EEE77A 		fsitos	s15, s15
 3217              		.loc 1 288 0
 3218 13f8 3146     		mov	r1, r6
 3219              		.loc 1 287 0
 3220 13fa C7EE887A 		fdivs	s15, s15, s16
 3221              		.loc 1 288 0
 3222 13fe 2046     		mov	r0, r4
 3223              		.loc 1 287 0
 3224 1400 C5ED1E7A 		fsts	s15, [r5, #120]
 3225              		.loc 1 288 0
 3226 1404 FFF7FEFF 		bl	buffer_get_int32
 3227              	.LVL328:
 3228 1408 07EE900A 		fmsr	s15, r0	@ int
 3229 140c F8EEE77A 		fsitos	s15, s15
 3230              		.loc 1 290 0
 3231 1410 029A     		ldr	r2, [sp, #8]
 3232              		.loc 1 288 0
 3233 1412 C7EE887A 		fdivs	s15, s15, s16
 3234              		.loc 1 290 0
 3235 1416 A118     		adds	r1, r4, r2
 3236              		.loc 1 291 0
 3237 1418 0832     		adds	r2, r2, #8
 3238 141a 0292     		str	r2, [sp, #8]
 3239              		.loc 1 290 0
 3240 141c 05F18003 		add	r3, r5, #128
 3241              		.loc 1 288 0
 3242 1420 C5ED1F7A 		fsts	s15, [r5, #124]
 3243              		.loc 1 290 0
 3244 1424 0868     		ldr	r0, [r1]	@ unaligned
 3245 1426 4968     		ldr	r1, [r1, #4]	@ unaligned
 3246 1428 03C3     		stmia	r3!, {r0, r1}
 3247              		.loc 1 292 0
 3248 142a 3146     		mov	r1, r6
 3249 142c 2046     		mov	r0, r4
ARM GAS  /tmp/ccy8OeyM.s 			page 58


 3250 142e FFF7FEFF 		bl	buffer_get_int32
 3251              	.LVL329:
 3252 1432 07EE900A 		fmsr	s15, r0	@ int
 3253 1436 F8EEE77A 		fsitos	s15, s15
 3254              		.loc 1 294 0
 3255 143a 3146     		mov	r1, r6
 3256              		.loc 1 292 0
 3257 143c C7EE887A 		fdivs	s15, s15, s16
 3258              		.loc 1 294 0
 3259 1440 2046     		mov	r0, r4
 3260 1442 B0EE490A 		fcpys	s0, s18
 3261              		.loc 1 292 0
 3262 1446 C5ED227A 		fsts	s15, [r5, #136]
 3263              		.loc 1 294 0
 3264 144a FFF7FEFF 		bl	buffer_get_float32
 3265              	.LVL330:
 3266              		.loc 1 295 0
 3267 144e 3146     		mov	r1, r6
 3268              		.loc 1 294 0
 3269 1450 85ED230A 		fsts	s0, [r5, #140]
 3270              		.loc 1 295 0
 3271 1454 2046     		mov	r0, r4
 3272 1456 B0EE490A 		fcpys	s0, s18
 3273 145a FFF7FEFF 		bl	buffer_get_float32
 3274              	.LVL331:
 3275              		.loc 1 296 0
 3276 145e 3146     		mov	r1, r6
 3277              		.loc 1 295 0
 3278 1460 85ED240A 		fsts	s0, [r5, #144]
 3279              		.loc 1 296 0
 3280 1464 2046     		mov	r0, r4
 3281 1466 B0EE480A 		fcpys	s0, s16
 3282 146a FFF7FEFF 		bl	buffer_get_float32
 3283              	.LVL332:
 3284              		.loc 1 297 0
 3285 146e 3146     		mov	r1, r6
 3286              		.loc 1 296 0
 3287 1470 85ED250A 		fsts	s0, [r5, #148]
 3288              		.loc 1 297 0
 3289 1474 2046     		mov	r0, r4
 3290 1476 B0EE680A 		fcpys	s0, s17
 3291 147a FFF7FEFF 		bl	buffer_get_float32
 3292              	.LVL333:
 3293              		.loc 1 298 0
 3294 147e 029B     		ldr	r3, [sp, #8]
 3295              		.loc 1 297 0
 3296 1480 85ED260A 		fsts	s0, [r5, #152]
 3297              		.loc 1 298 0
 3298 1484 E25C     		ldrb	r2, [r4, r3]	@ zero_extendqisi2
 3299 1486 0032     		adds	r2, r2, #0
 3300 1488 18BF     		it	ne
 3301 148a 0122     		movne	r2, #1
 3302 148c 0133     		adds	r3, r3, #1
 3303              		.loc 1 299 0
 3304 148e 3146     		mov	r1, r6
 3305 1490 B0EE480A 		fcpys	s0, s16
 3306 1494 2046     		mov	r0, r4
ARM GAS  /tmp/ccy8OeyM.s 			page 59


 3307              		.loc 1 298 0
 3308 1496 85F8A020 		strb	r2, [r5, #160]
 3309 149a 0293     		str	r3, [sp, #8]
 3310              		.loc 1 299 0
 3311 149c FFF7FEFF 		bl	buffer_get_float32
 3312              	.LVL334:
 3313              		.loc 1 300 0
 3314 14a0 3146     		mov	r1, r6
 3315              		.loc 1 299 0
 3316 14a2 85ED270A 		fsts	s0, [r5, #156]
 3317              		.loc 1 300 0
 3318 14a6 2046     		mov	r0, r4
 3319 14a8 B0EE480A 		fcpys	s0, s16
 3320 14ac FFF7FEFF 		bl	buffer_get_float32
 3321              	.LVL335:
 3322              		.loc 1 301 0
 3323 14b0 029B     		ldr	r3, [sp, #8]
 3324              		.loc 1 300 0
 3325 14b2 85ED290A 		fsts	s0, [r5, #164]
 3326              		.loc 1 301 0
 3327 14b6 E25C     		ldrb	r2, [r4, r3]	@ zero_extendqisi2
 3328 14b8 85F8DC20 		strb	r2, [r5, #220]
 3329 14bc 0133     		adds	r3, r3, #1
 3330              		.loc 1 302 0
 3331 14be 3146     		mov	r1, r6
 3332 14c0 B0EE480A 		fcpys	s0, s16
 3333 14c4 2046     		mov	r0, r4
 3334              		.loc 1 301 0
 3335 14c6 0293     		str	r3, [sp, #8]
 3336              		.loc 1 302 0
 3337 14c8 FFF7FEFF 		bl	buffer_get_float32
 3338              	.LVL336:
 3339              		.loc 1 303 0
 3340 14cc 3146     		mov	r1, r6
 3341              		.loc 1 302 0
 3342 14ce 85ED2E0A 		fsts	s0, [r5, #184]
 3343              		.loc 1 303 0
 3344 14d2 2046     		mov	r0, r4
 3345 14d4 B0EE480A 		fcpys	s0, s16
 3346 14d8 FFF7FEFF 		bl	buffer_get_float32
 3347              	.LVL337:
 3348              		.loc 1 304 0
 3349 14dc 3146     		mov	r1, r6
 3350              		.loc 1 303 0
 3351 14de 85ED2F0A 		fsts	s0, [r5, #188]
 3352              		.loc 1 304 0
 3353 14e2 2046     		mov	r0, r4
 3354 14e4 9FED2E0A 		flds	s0, .L159+16
 3355 14e8 FFF7FEFF 		bl	buffer_get_float32
 3356              	.LVL338:
 3357              		.loc 1 305 0
 3358 14ec 3146     		mov	r1, r6
 3359              		.loc 1 304 0
 3360 14ee 85ED2A0A 		fsts	s0, [r5, #168]
 3361              		.loc 1 305 0
 3362 14f2 2046     		mov	r0, r4
 3363 14f4 B0EE490A 		fcpys	s0, s18
ARM GAS  /tmp/ccy8OeyM.s 			page 60


 3364 14f8 FFF7FEFF 		bl	buffer_get_float32
 3365              	.LVL339:
 3366              		.loc 1 306 0
 3367 14fc 3146     		mov	r1, r6
 3368              		.loc 1 305 0
 3369 14fe 85ED2B0A 		fsts	s0, [r5, #172]
 3370              		.loc 1 306 0
 3371 1502 2046     		mov	r0, r4
 3372 1504 B0EE490A 		fcpys	s0, s18
 3373 1508 FFF7FEFF 		bl	buffer_get_float32
 3374              	.LVL340:
 3375              		.loc 1 307 0
 3376 150c 3146     		mov	r1, r6
 3377              		.loc 1 306 0
 3378 150e 85ED2C0A 		fsts	s0, [r5, #176]
 3379              		.loc 1 307 0
 3380 1512 2046     		mov	r0, r4
 3381 1514 B7EE000A 		fconsts	s0, #112
 3382 1518 FFF7FEFF 		bl	buffer_get_float32
 3383              	.LVL341:
 3384              		.loc 1 308 0
 3385 151c 3146     		mov	r1, r6
 3386              		.loc 1 307 0
 3387 151e 85ED2D0A 		fsts	s0, [r5, #180]
 3388              		.loc 1 308 0
 3389 1522 2046     		mov	r0, r4
 3390 1524 B0EE480A 		fcpys	s0, s16
 3391 1528 FFF7FEFF 		bl	buffer_get_float32
 3392              	.LVL342:
 3393              		.loc 1 309 0
 3394 152c 3146     		mov	r1, r6
 3395              		.loc 1 308 0
 3396 152e 85ED300A 		fsts	s0, [r5, #192]
 3397              		.loc 1 309 0
 3398 1532 2046     		mov	r0, r4
 3399 1534 B0EE480A 		fcpys	s0, s16
 3400 1538 FFF7FEFF 		bl	buffer_get_float32
 3401              	.LVL343:
 3402              		.loc 1 310 0
 3403 153c 3146     		mov	r1, r6
 3404              		.loc 1 309 0
 3405 153e 85ED310A 		fsts	s0, [r5, #196]
 3406              		.loc 1 310 0
 3407 1542 2046     		mov	r0, r4
 3408 1544 B0EE480A 		fcpys	s0, s16
 3409 1548 FFF7FEFF 		bl	buffer_get_float32
 3410              	.LVL344:
 3411              		.loc 1 311 0
 3412 154c 3146     		mov	r1, r6
 3413              		.loc 1 310 0
 3414 154e 85ED320A 		fsts	s0, [r5, #200]
 3415              		.loc 1 311 0
 3416 1552 2046     		mov	r0, r4
 3417 1554 B0EE480A 		fcpys	s0, s16
 3418 1558 FFF7FEFF 		bl	buffer_get_float32
 3419              	.LVL345:
 3420              		.loc 1 312 0
ARM GAS  /tmp/ccy8OeyM.s 			page 61


 3421 155c 3146     		mov	r1, r6
 3422              		.loc 1 311 0
 3423 155e 85ED330A 		fsts	s0, [r5, #204]
 3424              		.loc 1 312 0
 3425 1562 2046     		mov	r0, r4
 3426 1564 B0EE480A 		fcpys	s0, s16
 3427 1568 FFF7FEFF 		bl	buffer_get_float32
 3428              	.LVL346:
 3429              		.loc 1 313 0
 3430 156c 3146     		mov	r1, r6
 3431              		.loc 1 312 0
 3432 156e 85ED340A 		fsts	s0, [r5, #208]
 3433              		.loc 1 313 0
 3434 1572 2046     		mov	r0, r4
 3435 1574 B0EE480A 		fcpys	s0, s16
 3436 1578 FFF7FEFF 		bl	buffer_get_float32
 3437              	.LVL347:
 3438              		.loc 1 314 0
 3439 157c 3146     		mov	r1, r6
 3440              		.loc 1 313 0
 3441 157e 85ED350A 		fsts	s0, [r5, #212]
 3442              		.loc 1 314 0
 3443 1582 2046     		mov	r0, r4
 3444 1584 B0EE480A 		fcpys	s0, s16
 3445 1588 FFF7FEFF 		bl	buffer_get_float32
 3446              	.LVL348:
 3447              		.loc 1 315 0
 3448 158c 029B     		ldr	r3, [sp, #8]
 3449 158e 09E0     		b	.L160
 3450              	.L161:
 3451              		.align	2
 3452              	.L159:
 3453 1590 00000000 		.word	.LANCHOR11
 3454 1594 00007A44 		.word	1148846080
 3455 1598 00247449 		.word	1232348160
 3456 159c 0050C347 		.word	1203982336
 3457 15a0 20BCBE4C 		.word	1287568416
 3458              	.L160:
 3459              		.loc 1 314 0
 3460 15a4 85ED360A 		fsts	s0, [r5, #216]
 3461              		.loc 1 315 0
 3462 15a8 E218     		adds	r2, r4, r3
 3463              		.loc 1 317 0
 3464 15aa 3146     		mov	r1, r6
 3465              		.loc 1 315 0
 3466 15ac 1768     		ldr	r7, [r2]	@ unaligned
 3467 15ae 5268     		ldr	r2, [r2, #4]	@ unaligned
 3468 15b0 C5F8E120 		str	r2, [r5, #225]	@ unaligned
 3469              		.loc 1 316 0
 3470 15b4 0833     		adds	r3, r3, #8
 3471              		.loc 1 317 0
 3472 15b6 2046     		mov	r0, r4
 3473              		.loc 1 315 0
 3474 15b8 C5F8DD70 		str	r7, [r5, #221]	@ unaligned
 3475              		.loc 1 316 0
 3476 15bc 0293     		str	r3, [sp, #8]
 3477              		.loc 1 317 0
ARM GAS  /tmp/ccy8OeyM.s 			page 62


 3478 15be FFF7FEFF 		bl	buffer_get_int32
 3479              	.LVL349:
 3480 15c2 07EE900A 		fmsr	s15, r0	@ int
 3481 15c6 F8EEE77A 		fsitos	s15, s15
 3482              		.loc 1 319 0
 3483 15ca 3146     		mov	r1, r6
 3484              		.loc 1 317 0
 3485 15cc C7EE887A 		fdivs	s15, s15, s16
 3486              		.loc 1 319 0
 3487 15d0 2046     		mov	r0, r4
 3488              		.loc 1 317 0
 3489 15d2 C5ED3A7A 		fsts	s15, [r5, #232]
 3490              		.loc 1 319 0
 3491 15d6 FFF7FEFF 		bl	buffer_get_int32
 3492              	.LVL350:
 3493 15da 07EE900A 		fmsr	s15, r0	@ int
 3494 15de F8EEE77A 		fsitos	s15, s15
 3495              		.loc 1 320 0
 3496 15e2 3146     		mov	r1, r6
 3497              		.loc 1 319 0
 3498 15e4 C7EEA87A 		fdivs	s15, s15, s17
 3499              		.loc 1 320 0
 3500 15e8 2046     		mov	r0, r4
 3501              		.loc 1 319 0
 3502 15ea C5ED3B7A 		fsts	s15, [r5, #236]
 3503              		.loc 1 320 0
 3504 15ee FFF7FEFF 		bl	buffer_get_int32
 3505              	.LVL351:
 3506 15f2 07EE900A 		fmsr	s15, r0	@ int
 3507 15f6 F8EEE77A 		fsitos	s15, s15
 3508              		.loc 1 321 0
 3509 15fa 3146     		mov	r1, r6
 3510              		.loc 1 320 0
 3511 15fc C7EEA87A 		fdivs	s15, s15, s17
 3512              		.loc 1 321 0
 3513 1600 2046     		mov	r0, r4
 3514              		.loc 1 320 0
 3515 1602 C5ED3C7A 		fsts	s15, [r5, #240]
 3516              		.loc 1 321 0
 3517 1606 FFF7FEFF 		bl	buffer_get_int32
 3518              	.LVL352:
 3519 160a 07EE900A 		fmsr	s15, r0	@ int
 3520 160e F8EEE77A 		fsitos	s15, s15
 3521              		.loc 1 322 0
 3522 1612 3146     		mov	r1, r6
 3523              		.loc 1 321 0
 3524 1614 C7EEA87A 		fdivs	s15, s15, s17
 3525              		.loc 1 322 0
 3526 1618 2046     		mov	r0, r4
 3527              		.loc 1 321 0
 3528 161a C5ED3D7A 		fsts	s15, [r5, #244]
 3529              		.loc 1 322 0
 3530 161e FFF7FEFF 		bl	buffer_get_int32
 3531              	.LVL353:
 3532 1622 07EE900A 		fmsr	s15, r0	@ int
 3533 1626 F8EEE77A 		fsitos	s15, s15
 3534              		.loc 1 324 0
ARM GAS  /tmp/ccy8OeyM.s 			page 63


 3535 162a 3146     		mov	r1, r6
 3536              		.loc 1 322 0
 3537 162c C7EE887A 		fdivs	s15, s15, s16
 3538              		.loc 1 324 0
 3539 1630 2046     		mov	r0, r4
 3540              		.loc 1 322 0
 3541 1632 C5ED3E7A 		fsts	s15, [r5, #248]
 3542              		.loc 1 324 0
 3543 1636 FFF7FEFF 		bl	buffer_get_int32
 3544              	.LVL354:
 3545 163a 07EE900A 		fmsr	s15, r0	@ int
 3546 163e F8EEE77A 		fsitos	s15, s15
 3547              		.loc 1 325 0
 3548 1642 3146     		mov	r1, r6
 3549              		.loc 1 324 0
 3550 1644 C7EEA87A 		fdivs	s15, s15, s17
 3551              		.loc 1 325 0
 3552 1648 2046     		mov	r0, r4
 3553              		.loc 1 324 0
 3554 164a C5ED3F7A 		fsts	s15, [r5, #252]
 3555              		.loc 1 325 0
 3556 164e FFF7FEFF 		bl	buffer_get_int32
 3557              	.LVL355:
 3558 1652 07EE900A 		fmsr	s15, r0	@ int
 3559 1656 F8EEE77A 		fsitos	s15, s15
 3560              		.loc 1 326 0
 3561 165a 3146     		mov	r1, r6
 3562              		.loc 1 325 0
 3563 165c C7EEA87A 		fdivs	s15, s15, s17
 3564              		.loc 1 326 0
 3565 1660 2046     		mov	r0, r4
 3566              		.loc 1 325 0
 3567 1662 C5ED407A 		fsts	s15, [r5, #256]
 3568              		.loc 1 326 0
 3569 1666 FFF7FEFF 		bl	buffer_get_int32
 3570              	.LVL356:
 3571 166a 07EE900A 		fmsr	s15, r0	@ int
 3572 166e F8EEE77A 		fsitos	s15, s15
 3573              		.loc 1 327 0
 3574 1672 3146     		mov	r1, r6
 3575              		.loc 1 326 0
 3576 1674 C7EEA87A 		fdivs	s15, s15, s17
 3577              		.loc 1 327 0
 3578 1678 2046     		mov	r0, r4
 3579              		.loc 1 326 0
 3580 167a C5ED417A 		fsts	s15, [r5, #260]
 3581              		.loc 1 327 0
 3582 167e FFF7FEFF 		bl	buffer_get_int32
 3583              	.LVL357:
 3584 1682 07EE900A 		fmsr	s15, r0	@ int
 3585 1686 F8EEE77A 		fsitos	s15, s15
 3586              		.loc 1 329 0
 3587 168a 3146     		mov	r1, r6
 3588              		.loc 1 327 0
 3589 168c 87EE899A 		fdivs	s18, s15, s18
 3590              		.loc 1 329 0
 3591 1690 2046     		mov	r0, r4
ARM GAS  /tmp/ccy8OeyM.s 			page 64


 3592              		.loc 1 327 0
 3593 1692 85ED429A 		fsts	s18, [r5, #264]
 3594              		.loc 1 329 0
 3595 1696 FFF7FEFF 		bl	buffer_get_int32
 3596              	.LVL358:
 3597 169a 07EE900A 		fmsr	s15, r0	@ int
 3598 169e F8EEE77A 		fsitos	s15, s15
 3599              		.loc 1 330 0
 3600 16a2 3146     		mov	r1, r6
 3601              		.loc 1 329 0
 3602 16a4 C7EEA87A 		fdivs	s15, s15, s17
 3603              		.loc 1 330 0
 3604 16a8 2046     		mov	r0, r4
 3605              		.loc 1 329 0
 3606 16aa C5ED437A 		fsts	s15, [r5, #268]
 3607              		.loc 1 330 0
 3608 16ae FFF7FEFF 		bl	buffer_get_int32
 3609              	.LVL359:
 3610 16b2 07EE900A 		fmsr	s15, r0	@ int
 3611 16b6 F8EEE77A 		fsitos	s15, s15
 3612              		.loc 1 331 0
 3613 16ba 3146     		mov	r1, r6
 3614              		.loc 1 330 0
 3615 16bc 87EE888A 		fdivs	s16, s15, s16
 3616              		.loc 1 331 0
 3617 16c0 2046     		mov	r0, r4
 3618              		.loc 1 330 0
 3619 16c2 85ED448A 		fsts	s16, [r5, #272]
 3620              		.loc 1 331 0
 3621 16c6 FFF7FEFF 		bl	buffer_get_int32
 3622              	.LVL360:
 3623 16ca 07EE900A 		fmsr	s15, r0	@ int
 3624 16ce F8EEE77A 		fsitos	s15, s15
 3625              		.loc 1 332 0
 3626 16d2 3146     		mov	r1, r6
 3627              		.loc 1 331 0
 3628 16d4 C7EEA87A 		fdivs	s15, s15, s17
 3629              		.loc 1 332 0
 3630 16d8 2046     		mov	r0, r4
 3631 16da B0EE680A 		fcpys	s0, s17
 3632              		.loc 1 331 0
 3633 16de C5ED457A 		fsts	s15, [r5, #276]
 3634              		.loc 1 332 0
 3635 16e2 FFF7FEFF 		bl	buffer_get_float32
 3636              	.LVL361:
 3637              		.loc 1 334 0
 3638 16e6 3146     		mov	r1, r6
 3639 16e8 2046     		mov	r0, r4
 3640              		.loc 1 332 0
 3641 16ea 85ED460A 		fsts	s0, [r5, #280]
 3642              		.loc 1 334 0
 3643 16ee FFF7FEFF 		bl	buffer_get_int32
 3644              	.LVL362:
 3645              		.loc 1 335 0
 3646 16f2 3146     		mov	r1, r6
 3647              		.loc 1 334 0
 3648 16f4 C5F81C01 		str	r0, [r5, #284]
ARM GAS  /tmp/ccy8OeyM.s 			page 65


 3649              		.loc 1 335 0
 3650 16f8 B0EE680A 		fcpys	s0, s17
 3651 16fc 2046     		mov	r0, r4
 3652 16fe FFF7FEFF 		bl	buffer_get_float32
 3653              	.LVL363:
 3654              		.loc 1 336 0
 3655 1702 3146     		mov	r1, r6
 3656              		.loc 1 335 0
 3657 1704 85ED480A 		fsts	s0, [r5, #288]
 3658              		.loc 1 336 0
 3659 1708 2046     		mov	r0, r4
 3660 170a B0EE680A 		fcpys	s0, s17
 3661 170e FFF7FEFF 		bl	buffer_get_float32
 3662              	.LVL364:
 3663              		.loc 1 337 0
 3664 1712 3146     		mov	r1, r6
 3665              		.loc 1 336 0
 3666 1714 85ED490A 		fsts	s0, [r5, #292]
 3667              		.loc 1 337 0
 3668 1718 2046     		mov	r0, r4
 3669 171a B0EE680A 		fcpys	s0, s17
 3670 171e FFF7FEFF 		bl	buffer_get_float32
 3671              	.LVL365:
 3672              		.loc 1 338 0
 3673 1722 3146     		mov	r1, r6
 3674 1724 2046     		mov	r0, r4
 3675              		.loc 1 337 0
 3676 1726 85ED4A0A 		fsts	s0, [r5, #296]
 3677              		.loc 1 338 0
 3678 172a FFF7FEFF 		bl	buffer_get_uint32
 3679              	.LVL366:
 3680              		.loc 1 339 0
 3681 172e 029B     		ldr	r3, [sp, #8]
 3682              		.loc 1 338 0
 3683 1730 C5F82C01 		str	r0, [r5, #300]
 3684              		.loc 1 339 0
 3685 1734 E25C     		ldrb	r2, [r4, r3]	@ zero_extendqisi2
 3686 1736 85F83021 		strb	r2, [r5, #304]
 3687 173a 0133     		adds	r3, r3, #1
 3688              		.loc 1 341 0
 3689 173c 2846     		mov	r0, r5
 3690              		.loc 1 339 0
 3691 173e 0293     		str	r3, [sp, #8]
 3692              		.loc 1 341 0
 3693 1740 FFF7FEFF 		bl	conf_general_store_mc_configuration
 3694              	.LVL367:
 3695              		.loc 1 342 0
 3696 1744 2846     		mov	r0, r5
 3697 1746 FFF7FEFF 		bl	mc_interface_set_configuration
 3698              	.LVL368:
 3699              	.LBB141:
 3700              	.LBB142:
 3701              		.loc 1 94 0
 3702 174a 214B     		ldr	r3, .L162
 3703              	.LBE142:
 3704              	.LBE141:
 3705              		.loc 1 345 0
ARM GAS  /tmp/ccy8OeyM.s 			page 66


 3706 174c 2148     		ldr	r0, .L162+4
 3707              	.LBB145:
 3708              	.LBB143:
 3709              		.loc 1 94 0
 3710 174e 1B68     		ldr	r3, [r3]
 3711              	.LBE143:
 3712              	.LBE145:
 3713              		.loc 1 345 0
 3714 1750 0C22     		movs	r2, #12
 3715 1752 0121     		movs	r1, #1
 3716 1754 0270     		strb	r2, [r0]
 3717              	.LVL369:
 3718 1756 0291     		str	r1, [sp, #8]
 3719              	.LBB146:
 3720              	.LBB144:
 3721              		.loc 1 94 0
 3722 1758 002B     		cmp	r3, #0
 3723 175a 7FF45BA8 		bne	.L131
 3724 175e FEF716BE 		b	.L24
 3725              	.LVL370:
 3726              	.L45:
 3727              	.LBE144:
 3728              	.LBE146:
 3729              		.loc 1 610 0
 3730 1762 02A9     		add	r1, sp, #8
 3731 1764 2046     		mov	r0, r4
 3732 1766 9FED200A 		flds	s0, .L162+24
 3733 176a FFF7FEFF 		bl	buffer_get_float32
 3734              	.LVL371:
 3735 176e 1A4B     		ldr	r3, .L162+8
 3736              		.loc 1 611 0
 3737 1770 02A9     		add	r1, sp, #8
 3738              		.loc 1 610 0
 3739 1772 83ED000A 		fsts	s0, [r3]
 3740              		.loc 1 611 0
 3741 1776 2046     		mov	r0, r4
 3742 1778 9FED1B0A 		flds	s0, .L162+24
 3743 177c FFF7FEFF 		bl	buffer_get_float32
 3744              	.LVL372:
 3745 1780 164B     		ldr	r3, .L162+12
 3746              		.loc 1 612 0
 3747 1782 02A9     		add	r1, sp, #8
 3748 1784 2046     		mov	r0, r4
 3749              		.loc 1 611 0
 3750 1786 83ED000A 		fsts	s0, [r3]
 3751              		.loc 1 612 0
 3752 178a 9FED170A 		flds	s0, .L162+24
 3753 178e FFF7FEFF 		bl	buffer_get_float32
 3754              	.LVL373:
 3755              		.loc 1 614 0
 3756 1792 134A     		ldr	r2, .L162+16
 3757              		.loc 1 612 0
 3758 1794 134B     		ldr	r3, .L162+20
 3759              		.loc 1 614 0
 3760 1796 1068     		ldr	r0, [r2]
 3761              		.loc 1 612 0
 3762 1798 83ED000A 		fsts	s0, [r3]
ARM GAS  /tmp/ccy8OeyM.s 			page 67


 3763              		.loc 1 614 0
 3764 179c 0121     		movs	r1, #1
 3765 179e FFF7FEFF 		bl	chEvtSignal
 3766              	.LVL374:
 3767              		.loc 1 615 0
 3768 17a2 FEF7F4BD 		b	.L24
 3769              	.L43:
 3770              		.loc 1 597 0
 3771 17a6 2CA9     		add	r1, sp, #176
 3772 17a8 4578     		ldrb	r5, [r0, #1]	@ zero_extendqisi2
 3773              	.LVL375:
 3774 17aa 0123     		movs	r3, #1
 3775 17ac 0035     		adds	r5, r5, #0
 3776 17ae 41F8A83D 		str	r3, [r1, #-168]!
 3777              		.loc 1 598 0
 3778 17b2 2046     		mov	r0, r4
 3779              		.loc 1 597 0
 3780 17b4 18BF     		it	ne
 3781 17b6 0125     		movne	r5, #1
 3782              	.LVL376:
 3783              		.loc 1 598 0
 3784 17b8 FFF7FEFF 		bl	buffer_get_uint16
 3785              	.LVL377:
 3786              		.loc 1 599 0
 3787 17bc 029B     		ldr	r3, [sp, #8]
 3788              		.loc 1 598 0
 3789 17be 0146     		mov	r1, r0
 3790              	.LVL378:
 3791              		.loc 1 600 0
 3792 17c0 E25C     		ldrb	r2, [r4, r3]	@ zero_extendqisi2
 3793 17c2 2846     		mov	r0, r5
 3794              		.loc 1 599 0
 3795 17c4 0133     		adds	r3, r3, #1
 3796 17c6 0293     		str	r3, [sp, #8]
 3797              	.LVL379:
 3798              		.loc 1 600 0
 3799 17c8 FFF7FEFF 		bl	mc_interface_sample_print_data
 3800              	.LVL380:
 3801              		.loc 1 601 0
 3802 17cc FEF7DFBD 		b	.L24
 3803              	.L163:
 3804              		.align	2
 3805              	.L162:
 3806 17d0 00000000 		.word	.LANCHOR9
 3807 17d4 00000000 		.word	.LANCHOR8
 3808 17d8 00000000 		.word	.LANCHOR1
 3809 17dc 00000000 		.word	.LANCHOR2
 3810 17e0 00000000 		.word	.LANCHOR0
 3811 17e4 00000000 		.word	.LANCHOR3
 3812 17e8 00007A44 		.word	1148846080
 3813              	.LVL381:
 3814              	.L41:
 3815              		.loc 1 450 0
 3816 17ec FFF7FEFF 		bl	app_get_configuration
 3817              	.LVL382:
 3818 17f0 A022     		movs	r2, #160
 3819 17f2 0146     		mov	r1, r0
ARM GAS  /tmp/ccy8OeyM.s 			page 68


 3820 17f4 04A8     		add	r0, sp, #16
 3821 17f6 FFF7FEFF 		bl	memcpy
 3822              	.LVL383:
 3823              		.loc 1 453 0
 3824 17fa 0125     		movs	r5, #1
 3825              	.LVL384:
 3826 17fc 7B78     		ldrb	r3, [r7, #1]	@ zero_extendqisi2
 3827 17fe 8DF81030 		strb	r3, [sp, #16]
 3828              		.loc 1 454 0
 3829 1802 02A9     		add	r1, sp, #8
 3830 1804 2046     		mov	r0, r4
 3831              		.loc 1 453 0
 3832 1806 0295     		str	r5, [sp, #8]
 3833              		.loc 1 454 0
 3834 1808 FFF7FEFF 		bl	buffer_get_uint32
 3835              	.LVL385:
 3836              		.loc 1 455 0
 3837 180c 02A9     		add	r1, sp, #8
 3838              		.loc 1 454 0
 3839 180e 0590     		str	r0, [sp, #20]
 3840              		.loc 1 455 0
 3841 1810 2046     		mov	r0, r4
 3842 1812 FFF7FEFF 		bl	buffer_get_int32
 3843              	.LVL386:
 3844 1816 07EE900A 		fmsr	s15, r0	@ int
 3845 181a 1FED0D8A 		flds	s16, .L162+24
 3846              		.loc 1 456 0
 3847 181e 029B     		ldr	r3, [sp, #8]
 3848              		.loc 1 455 0
 3849 1820 F8EEE77A 		fsitos	s15, s15
 3850              		.loc 1 456 0
 3851 1824 E25C     		ldrb	r2, [r4, r3]	@ zero_extendqisi2
 3852              		.loc 1 455 0
 3853 1826 C7EE887A 		fdivs	s15, s15, s16
 3854              		.loc 1 456 0
 3855 182a 0032     		adds	r2, r2, #0
 3856 182c 18BF     		it	ne
 3857 182e 0122     		movne	r2, #1
 3858 1830 2B44     		add	r3, r3, r5
 3859              		.loc 1 457 0
 3860 1832 02A9     		add	r1, sp, #8
 3861 1834 2046     		mov	r0, r4
 3862              		.loc 1 456 0
 3863 1836 8DF81C20 		strb	r2, [sp, #28]
 3864 183a 0293     		str	r3, [sp, #8]
 3865              		.loc 1 455 0
 3866 183c CDED067A 		fsts	s15, [sp, #24]
 3867              		.loc 1 457 0
 3868 1840 FFF7FEFF 		bl	buffer_get_uint16
 3869              	.LVL387:
 3870              		.loc 1 459 0
 3871 1844 029B     		ldr	r3, [sp, #8]
 3872              		.loc 1 457 0
 3873 1846 0890     		str	r0, [sp, #32]
 3874              		.loc 1 459 0
 3875 1848 5919     		adds	r1, r3, r5
 3876 184a E25C     		ldrb	r2, [r4, r3]	@ zero_extendqisi2
ARM GAS  /tmp/ccy8OeyM.s 			page 69


 3877              		.loc 1 461 0
 3878 184c 615C     		ldrb	r1, [r4, r1]	@ zero_extendqisi2
 3879 184e 8DF82810 		strb	r1, [sp, #40]
 3880 1852 0233     		adds	r3, r3, #2
 3881              		.loc 1 462 0
 3882 1854 02A9     		add	r1, sp, #8
 3883 1856 2046     		mov	r0, r4
 3884              		.loc 1 459 0
 3885 1858 8DF82420 		strb	r2, [sp, #36]
 3886              		.loc 1 461 0
 3887 185c 0293     		str	r3, [sp, #8]
 3888              		.loc 1 462 0
 3889 185e FFF7FEFF 		bl	buffer_get_int32
 3890              	.LVL388:
 3891 1862 07EE900A 		fmsr	s15, r0	@ int
 3892 1866 F8EEE77A 		fsitos	s15, s15
 3893              		.loc 1 463 0
 3894 186a 02A9     		add	r1, sp, #8
 3895              		.loc 1 462 0
 3896 186c C7EE887A 		fdivs	s15, s15, s16
 3897              		.loc 1 463 0
 3898 1870 2046     		mov	r0, r4
 3899              		.loc 1 462 0
 3900 1872 CDED0B7A 		fsts	s15, [sp, #44]
 3901              		.loc 1 463 0
 3902 1876 FFF7FEFF 		bl	buffer_get_int32
 3903              	.LVL389:
 3904 187a 07EE900A 		fmsr	s15, r0	@ int
 3905 187e F8EEE77A 		fsitos	s15, s15
 3906              		.loc 1 464 0
 3907 1882 02A9     		add	r1, sp, #8
 3908              		.loc 1 463 0
 3909 1884 C7EE887A 		fdivs	s15, s15, s16
 3910              		.loc 1 464 0
 3911 1888 2046     		mov	r0, r4
 3912              		.loc 1 463 0
 3913 188a CDED0C7A 		fsts	s15, [sp, #48]
 3914              		.loc 1 464 0
 3915 188e FFF7FEFF 		bl	buffer_get_int32
 3916              	.LVL390:
 3917 1892 07EE900A 		fmsr	s15, r0	@ int
 3918 1896 F8EEE77A 		fsitos	s15, s15
 3919              		.loc 1 465 0
 3920 189a 02A9     		add	r1, sp, #8
 3921              		.loc 1 464 0
 3922 189c C7EE887A 		fdivs	s15, s15, s16
 3923              		.loc 1 465 0
 3924 18a0 2046     		mov	r0, r4
 3925              		.loc 1 464 0
 3926 18a2 CDED0D7A 		fsts	s15, [sp, #52]
 3927              		.loc 1 465 0
 3928 18a6 FFF7FEFF 		bl	buffer_get_int32
 3929              	.LVL391:
 3930 18aa 07EE900A 		fmsr	s15, r0	@ int
 3931 18ae F8EEE77A 		fsitos	s15, s15
 3932              		.loc 1 466 0
 3933 18b2 029B     		ldr	r3, [sp, #8]
ARM GAS  /tmp/ccy8OeyM.s 			page 70


 3934              		.loc 1 465 0
 3935 18b4 C7EE887A 		fdivs	s15, s15, s16
 3936              		.loc 1 466 0
 3937 18b8 5919     		adds	r1, r3, r5
 3938 18ba E25C     		ldrb	r2, [r4, r3]	@ zero_extendqisi2
 3939              		.loc 1 467 0
 3940 18bc 665C     		ldrb	r6, [r4, r1]	@ zero_extendqisi2
 3941              		.loc 1 466 0
 3942 18be 0032     		adds	r2, r2, #0
 3943 18c0 18BF     		it	ne
 3944 18c2 0122     		movne	r2, #1
 3945              		.loc 1 467 0
 3946 18c4 0036     		adds	r6, r6, #0
 3947 18c6 18BF     		it	ne
 3948 18c8 0126     		movne	r6, #1
 3949 18ca 0233     		adds	r3, r3, #2
 3950              		.loc 1 468 0
 3951 18cc 02A9     		add	r1, sp, #8
 3952 18ce 2046     		mov	r0, r4
 3953              		.loc 1 466 0
 3954 18d0 8DF83C20 		strb	r2, [sp, #60]
 3955              		.loc 1 467 0
 3956 18d4 0293     		str	r3, [sp, #8]
 3957 18d6 8DF83D60 		strb	r6, [sp, #61]
 3958              		.loc 1 465 0
 3959 18da CDED0E7A 		fsts	s15, [sp, #56]
 3960              		.loc 1 468 0
 3961 18de FFF7FEFF 		bl	buffer_get_int32
 3962              	.LVL392:
 3963 18e2 07EE900A 		fmsr	s15, r0	@ int
 3964 18e6 F8EEE77A 		fsitos	s15, s15
 3965              		.loc 1 469 0
 3966 18ea 02A9     		add	r1, sp, #8
 3967              		.loc 1 468 0
 3968 18ec C7EE887A 		fdivs	s15, s15, s16
 3969              		.loc 1 469 0
 3970 18f0 2046     		mov	r0, r4
 3971              		.loc 1 468 0
 3972 18f2 CDED107A 		fsts	s15, [sp, #64]
 3973              		.loc 1 469 0
 3974 18f6 FFF7FEFF 		bl	buffer_get_int32
 3975              	.LVL393:
 3976 18fa 07EE900A 		fmsr	s15, r0	@ int
 3977 18fe F8EEE77A 		fsitos	s15, s15
 3978              		.loc 1 470 0
 3979 1902 029B     		ldr	r3, [sp, #8]
 3980              		.loc 1 469 0
 3981 1904 C7EE887A 		fdivs	s15, s15, s16
 3982              		.loc 1 470 0
 3983 1908 5919     		adds	r1, r3, r5
 3984 190a E25C     		ldrb	r2, [r4, r3]	@ zero_extendqisi2
 3985              		.loc 1 471 0
 3986 190c 665C     		ldrb	r6, [r4, r1]	@ zero_extendqisi2
 3987              		.loc 1 470 0
 3988 190e 0032     		adds	r2, r2, #0
 3989 1910 18BF     		it	ne
 3990 1912 0122     		movne	r2, #1
ARM GAS  /tmp/ccy8OeyM.s 			page 71


 3991              		.loc 1 471 0
 3992 1914 0036     		adds	r6, r6, #0
 3993 1916 18BF     		it	ne
 3994 1918 0126     		movne	r6, #1
 3995 191a 0233     		adds	r3, r3, #2
 3996              		.loc 1 472 0
 3997 191c 02A9     		add	r1, sp, #8
 3998 191e 2046     		mov	r0, r4
 3999              		.loc 1 471 0
 4000 1920 8DF84960 		strb	r6, [sp, #73]
 4001              		.loc 1 470 0
 4002 1924 8DF84820 		strb	r2, [sp, #72]
 4003              		.loc 1 471 0
 4004 1928 0293     		str	r3, [sp, #8]
 4005              		.loc 1 469 0
 4006 192a CDED117A 		fsts	s15, [sp, #68]
 4007              		.loc 1 472 0
 4008 192e FFF7FEFF 		bl	buffer_get_int32
 4009              	.LVL394:
 4010 1932 07EE900A 		fmsr	s15, r0	@ int
 4011 1936 F8EEE77A 		fsitos	s15, s15
 4012              		.loc 1 474 0
 4013 193a 029B     		ldr	r3, [sp, #8]
 4014              		.loc 1 472 0
 4015 193c C7EE887A 		fdivs	s15, s15, s16
 4016              		.loc 1 474 0
 4017 1940 5A19     		adds	r2, r3, r5
 4018              		.loc 1 475 0
 4019 1942 02A9     		add	r1, sp, #8
 4020              		.loc 1 474 0
 4021 1944 E35C     		ldrb	r3, [r4, r3]	@ zero_extendqisi2
 4022 1946 8DF85030 		strb	r3, [sp, #80]
 4023              		.loc 1 475 0
 4024 194a 2046     		mov	r0, r4
 4025              		.loc 1 474 0
 4026 194c 0292     		str	r2, [sp, #8]
 4027              		.loc 1 472 0
 4028 194e CDED137A 		fsts	s15, [sp, #76]
 4029              		.loc 1 475 0
 4030 1952 FFF7FEFF 		bl	buffer_get_int32
 4031              	.LVL395:
 4032 1956 07EE900A 		fmsr	s15, r0	@ int
 4033 195a F8EEE77A 		fsitos	s15, s15
 4034              		.loc 1 476 0
 4035 195e 02A9     		add	r1, sp, #8
 4036              		.loc 1 475 0
 4037 1960 C7EE887A 		fdivs	s15, s15, s16
 4038              		.loc 1 476 0
 4039 1964 2046     		mov	r0, r4
 4040              		.loc 1 475 0
 4041 1966 CDED157A 		fsts	s15, [sp, #84]
 4042              		.loc 1 476 0
 4043 196a FFF7FEFF 		bl	buffer_get_int32
 4044              	.LVL396:
 4045 196e 07EE900A 		fmsr	s15, r0	@ int
 4046 1972 F8EEE77A 		fsitos	s15, s15
 4047              		.loc 1 477 0
ARM GAS  /tmp/ccy8OeyM.s 			page 72


 4048 1976 02A9     		add	r1, sp, #8
 4049              		.loc 1 476 0
 4050 1978 C7EE887A 		fdivs	s15, s15, s16
 4051              		.loc 1 477 0
 4052 197c 2046     		mov	r0, r4
 4053              		.loc 1 476 0
 4054 197e CDED167A 		fsts	s15, [sp, #88]
 4055              		.loc 1 477 0
 4056 1982 FFF7FEFF 		bl	buffer_get_int32
 4057              	.LVL397:
 4058 1986 07EE900A 		fmsr	s15, r0	@ int
 4059 198a F8EEE77A 		fsitos	s15, s15
 4060              		.loc 1 478 0
 4061 198e 029B     		ldr	r3, [sp, #8]
 4062              		.loc 1 477 0
 4063 1990 C7EE887A 		fdivs	s15, s15, s16
 4064              		.loc 1 478 0
 4065 1994 5E19     		adds	r6, r3, r5
 4066              		.loc 1 479 0
 4067 1996 981C     		adds	r0, r3, #2
 4068 1998 14F806C0 		ldrb	ip, [r4, r6]	@ zero_extendqisi2
 4069              		.loc 1 480 0
 4070 199c 14F800E0 		ldrb	lr, [r4, r0]	@ zero_extendqisi2
 4071 19a0 D91C     		adds	r1, r3, #3
 4072              		.loc 1 481 0
 4073 19a2 1A1D     		adds	r2, r3, #4
 4074              		.loc 1 479 0
 4075 19a4 1CF1000C 		adds	ip, ip, #0
 4076              		.loc 1 481 0
 4077 19a8 675C     		ldrb	r7, [r4, r1]	@ zero_extendqisi2
 4078              		.loc 1 482 0
 4079 19aa A65C     		ldrb	r6, [r4, r2]	@ zero_extendqisi2
 4080              		.loc 1 478 0
 4081 19ac E25C     		ldrb	r2, [r4, r3]	@ zero_extendqisi2
 4082              		.loc 1 479 0
 4083 19ae 18BF     		it	ne
 4084 19b0 4FF0010C 		movne	ip, #1
 4085              		.loc 1 480 0
 4086 19b4 1EF1000E 		adds	lr, lr, #0
 4087 19b8 18BF     		it	ne
 4088 19ba 4FF0010E 		movne	lr, #1
 4089              		.loc 1 481 0
 4090 19be 0037     		adds	r7, r7, #0
 4091 19c0 18BF     		it	ne
 4092 19c2 0127     		movne	r7, #1
 4093              		.loc 1 482 0
 4094 19c4 0036     		adds	r6, r6, #0
 4095 19c6 18BF     		it	ne
 4096 19c8 0126     		movne	r6, #1
 4097              		.loc 1 478 0
 4098 19ca 0032     		adds	r2, r2, #0
 4099 19cc 18BF     		it	ne
 4100 19ce 0122     		movne	r2, #1
 4101              		.loc 1 482 0
 4102 19d0 0533     		adds	r3, r3, #5
 4103              		.loc 1 483 0
 4104 19d2 02A9     		add	r1, sp, #8
ARM GAS  /tmp/ccy8OeyM.s 			page 73


 4105 19d4 2046     		mov	r0, r4
 4106              		.loc 1 479 0
 4107 19d6 8DF861C0 		strb	ip, [sp, #97]
 4108              		.loc 1 480 0
 4109 19da 8DF862E0 		strb	lr, [sp, #98]
 4110              		.loc 1 478 0
 4111 19de 8DF86020 		strb	r2, [sp, #96]
 4112              		.loc 1 482 0
 4113 19e2 0293     		str	r3, [sp, #8]
 4114              		.loc 1 477 0
 4115 19e4 CDED177A 		fsts	s15, [sp, #92]
 4116              		.loc 1 481 0
 4117 19e8 8DF86370 		strb	r7, [sp, #99]
 4118              		.loc 1 482 0
 4119 19ec 8DF86460 		strb	r6, [sp, #100]
 4120              		.loc 1 483 0
 4121 19f0 FFF7FEFF 		bl	buffer_get_int32
 4122              	.LVL398:
 4123 19f4 07EE900A 		fmsr	s15, r0	@ int
 4124 19f8 F8EEE77A 		fsitos	s15, s15
 4125              		.loc 1 484 0
 4126 19fc 02A9     		add	r1, sp, #8
 4127              		.loc 1 483 0
 4128 19fe C7EE887A 		fdivs	s15, s15, s16
 4129              		.loc 1 484 0
 4130 1a02 2046     		mov	r0, r4
 4131              		.loc 1 483 0
 4132 1a04 CDED1A7A 		fsts	s15, [sp, #104]
 4133              		.loc 1 484 0
 4134 1a08 FFF7FEFF 		bl	buffer_get_int32
 4135              	.LVL399:
 4136 1a0c 07EE900A 		fmsr	s15, r0	@ int
 4137 1a10 F8EEE77A 		fsitos	s15, s15
 4138              		.loc 1 485 0
 4139 1a14 029B     		ldr	r3, [sp, #8]
 4140              		.loc 1 484 0
 4141 1a16 C7EE887A 		fdivs	s15, s15, s16
 4142              		.loc 1 485 0
 4143 1a1a 5919     		adds	r1, r3, r5
 4144 1a1c E25C     		ldrb	r2, [r4, r3]	@ zero_extendqisi2
 4145              		.loc 1 486 0
 4146 1a1e 665C     		ldrb	r6, [r4, r1]	@ zero_extendqisi2
 4147              		.loc 1 485 0
 4148 1a20 0032     		adds	r2, r2, #0
 4149 1a22 18BF     		it	ne
 4150 1a24 0122     		movne	r2, #1
 4151              		.loc 1 486 0
 4152 1a26 0036     		adds	r6, r6, #0
 4153 1a28 18BF     		it	ne
 4154 1a2a 0126     		movne	r6, #1
 4155 1a2c 0233     		adds	r3, r3, #2
 4156              		.loc 1 487 0
 4157 1a2e 02A9     		add	r1, sp, #8
 4158 1a30 2046     		mov	r0, r4
 4159              		.loc 1 485 0
 4160 1a32 8DF87020 		strb	r2, [sp, #112]
 4161              		.loc 1 486 0
ARM GAS  /tmp/ccy8OeyM.s 			page 74


 4162 1a36 0293     		str	r3, [sp, #8]
 4163 1a38 8DF87160 		strb	r6, [sp, #113]
 4164              		.loc 1 484 0
 4165 1a3c CDED1B7A 		fsts	s15, [sp, #108]
 4166              		.loc 1 487 0
 4167 1a40 FFF7FEFF 		bl	buffer_get_int32
 4168              	.LVL400:
 4169 1a44 07EE900A 		fmsr	s15, r0	@ int
 4170 1a48 F8EEE77A 		fsitos	s15, s15
 4171              		.loc 1 488 0
 4172 1a4c 02A9     		add	r1, sp, #8
 4173              		.loc 1 487 0
 4174 1a4e C7EE887A 		fdivs	s15, s15, s16
 4175              		.loc 1 488 0
 4176 1a52 2046     		mov	r0, r4
 4177              		.loc 1 487 0
 4178 1a54 CDED1D7A 		fsts	s15, [sp, #116]
 4179              		.loc 1 488 0
 4180 1a58 FFF7FEFF 		bl	buffer_get_uint16
 4181              	.LVL401:
 4182              		.loc 1 490 0
 4183 1a5c 02A9     		add	r1, sp, #8
 4184              		.loc 1 488 0
 4185 1a5e 1E90     		str	r0, [sp, #120]
 4186              		.loc 1 490 0
 4187 1a60 2046     		mov	r0, r4
 4188 1a62 FFF7FEFF 		bl	buffer_get_uint32
 4189              	.LVL402:
 4190              		.loc 1 492 0
 4191 1a66 029B     		ldr	r3, [sp, #8]
 4192              		.loc 1 490 0
 4193 1a68 1F90     		str	r0, [sp, #124]
 4194              		.loc 1 492 0
 4195 1a6a 5A19     		adds	r2, r3, r5
 4196              		.loc 1 493 0
 4197 1a6c 2046     		mov	r0, r4
 4198              		.loc 1 492 0
 4199 1a6e E35C     		ldrb	r3, [r4, r3]	@ zero_extendqisi2
 4200 1a70 8DF88030 		strb	r3, [sp, #128]
 4201              		.loc 1 493 0
 4202 1a74 02A9     		add	r1, sp, #8
 4203 1a76 B0EE480A 		fcpys	s0, s16
 4204              		.loc 1 492 0
 4205 1a7a 0292     		str	r2, [sp, #8]
 4206              		.loc 1 493 0
 4207 1a7c FFF7FEFF 		bl	buffer_get_float32
 4208              	.LVL403:
 4209              		.loc 1 494 0
 4210 1a80 2046     		mov	r0, r4
 4211 1a82 02A9     		add	r1, sp, #8
 4212              		.loc 1 493 0
 4213 1a84 8DED210A 		fsts	s0, [sp, #132]
 4214              		.loc 1 494 0
 4215 1a88 B0EE480A 		fcpys	s0, s16
 4216 1a8c FFF7FEFF 		bl	buffer_get_float32
 4217              	.LVL404:
 4218              		.loc 1 495 0
ARM GAS  /tmp/ccy8OeyM.s 			page 75


 4219 1a90 2046     		mov	r0, r4
 4220 1a92 02A9     		add	r1, sp, #8
 4221              		.loc 1 494 0
 4222 1a94 8DED220A 		fsts	s0, [sp, #136]
 4223              		.loc 1 495 0
 4224 1a98 B0EE480A 		fcpys	s0, s16
 4225 1a9c FFF7FEFF 		bl	buffer_get_float32
 4226              	.LVL405:
 4227              		.loc 1 496 0
 4228 1aa0 2046     		mov	r0, r4
 4229 1aa2 02A9     		add	r1, sp, #8
 4230              		.loc 1 495 0
 4231 1aa4 8DED230A 		fsts	s0, [sp, #140]
 4232              		.loc 1 496 0
 4233 1aa8 B0EE480A 		fcpys	s0, s16
 4234 1aac FFF7FEFF 		bl	buffer_get_float32
 4235              	.LVL406:
 4236              		.loc 1 497 0
 4237 1ab0 2046     		mov	r0, r4
 4238 1ab2 02A9     		add	r1, sp, #8
 4239              		.loc 1 496 0
 4240 1ab4 8DED240A 		fsts	s0, [sp, #144]
 4241              		.loc 1 497 0
 4242 1ab8 B0EE480A 		fcpys	s0, s16
 4243 1abc FFF7FEFF 		bl	buffer_get_float32
 4244              	.LVL407:
 4245              		.loc 1 498 0
 4246 1ac0 2046     		mov	r0, r4
 4247 1ac2 02A9     		add	r1, sp, #8
 4248              		.loc 1 497 0
 4249 1ac4 8DED250A 		fsts	s0, [sp, #148]
 4250              		.loc 1 498 0
 4251 1ac8 B0EE480A 		fcpys	s0, s16
 4252 1acc FFF7FEFF 		bl	buffer_get_float32
 4253              	.LVL408:
 4254              		.loc 1 499 0
 4255 1ad0 029B     		ldr	r3, [sp, #8]
 4256 1ad2 5919     		adds	r1, r3, r5
 4257 1ad4 E25C     		ldrb	r2, [r4, r3]	@ zero_extendqisi2
 4258              		.loc 1 500 0
 4259 1ad6 665C     		ldrb	r6, [r4, r1]	@ zero_extendqisi2
 4260              		.loc 1 498 0
 4261 1ad8 8DED260A 		fsts	s0, [sp, #152]
 4262              		.loc 1 500 0
 4263 1adc 0036     		adds	r6, r6, #0
 4264 1ade 18BF     		it	ne
 4265 1ae0 0126     		movne	r6, #1
 4266              		.loc 1 499 0
 4267 1ae2 0032     		adds	r2, r2, #0
 4268 1ae4 18BF     		it	ne
 4269 1ae6 0122     		movne	r2, #1
 4270              		.loc 1 500 0
 4271 1ae8 0233     		adds	r3, r3, #2
 4272              		.loc 1 501 0
 4273 1aea 2046     		mov	r0, r4
 4274 1aec 02A9     		add	r1, sp, #8
 4275 1aee B0EE480A 		fcpys	s0, s16
ARM GAS  /tmp/ccy8OeyM.s 			page 76


 4276              		.loc 1 500 0
 4277 1af2 8DF89D60 		strb	r6, [sp, #157]
 4278              		.loc 1 499 0
 4279 1af6 8DF89C20 		strb	r2, [sp, #156]
 4280              		.loc 1 500 0
 4281 1afa 0293     		str	r3, [sp, #8]
 4282              		.loc 1 501 0
 4283 1afc FFF7FEFF 		bl	buffer_get_float32
 4284              	.LVL409:
 4285              		.loc 1 503 0
 4286 1b00 029B     		ldr	r3, [sp, #8]
 4287              		.loc 1 501 0
 4288 1b02 8DED280A 		fsts	s0, [sp, #160]
 4289              		.loc 1 503 0
 4290 1b06 03EB050C 		add	ip, r3, r5
 4291              		.loc 1 504 0
 4292 1b0a 03F1020E 		add	lr, r3, #2
 4293              		.loc 1 505 0
 4294 1b0e DF1C     		adds	r7, r3, #3
 4295              		.loc 1 506 0
 4296 1b10 1E1D     		adds	r6, r3, #4
 4297              		.loc 1 507 0
 4298 1b12 581D     		adds	r0, r3, #5
 4299              		.loc 1 511 0
 4300 1b14 E218     		adds	r2, r4, r3
 4301              		.loc 1 508 0
 4302 1b16 991D     		adds	r1, r3, #6
 4303              		.loc 1 504 0
 4304 1b18 14F80C80 		ldrb	r8, [r4, ip]	@ zero_extendqisi2
 4305              	.LVL410:
 4306              		.loc 1 511 0
 4307 1b1c 527A     		ldrb	r2, [r2, #9]	@ zero_extendqisi2
 4308              		.loc 1 505 0
 4309 1b1e 14F80EC0 		ldrb	ip, [r4, lr]	@ zero_extendqisi2
 4310              		.loc 1 506 0
 4311 1b22 14F807E0 		ldrb	lr, [r4, r7]	@ zero_extendqisi2
 4312              		.loc 1 507 0
 4313 1b26 A75D     		ldrb	r7, [r4, r6]	@ zero_extendqisi2
 4314              		.loc 1 508 0
 4315 1b28 265C     		ldrb	r6, [r4, r0]	@ zero_extendqisi2
 4316              		.loc 1 503 0
 4317 1b2a E05C     		ldrb	r0, [r4, r3]	@ zero_extendqisi2
 4318 1b2c 8DF8A400 		strb	r0, [sp, #164]
 4319              		.loc 1 509 0
 4320 1b30 0C44     		add	r4, r4, r1
 4321              	.LVL411:
 4322              		.loc 1 505 0
 4323 1b32 8DF8A6C0 		strb	ip, [sp, #166]
 4324              		.loc 1 506 0
 4325 1b36 8DF8A7E0 		strb	lr, [sp, #167]
 4326              		.loc 1 508 0
 4327 1b3a 0291     		str	r1, [sp, #8]
 4328              		.loc 1 504 0
 4329 1b3c 8DF8A580 		strb	r8, [sp, #165]
 4330              		.loc 1 507 0
 4331 1b40 8DF8A870 		strb	r7, [sp, #168]
 4332              		.loc 1 508 0
ARM GAS  /tmp/ccy8OeyM.s 			page 77


 4333 1b44 8DF8A960 		strb	r6, [sp, #169]
 4334              		.loc 1 511 0
 4335 1b48 0032     		adds	r2, r2, #0
 4336              		.loc 1 509 0
 4337 1b4a A078     		ldrb	r0, [r4, #2]	@ zero_extendqisi2
 4338 1b4c 2188     		ldrh	r1, [r4]	@ unaligned
 4339 1b4e 8DF8AC00 		strb	r0, [sp, #172]
 4340              		.loc 1 511 0
 4341 1b52 18BF     		it	ne
 4342 1b54 0122     		movne	r2, #1
 4343 1b56 0A33     		adds	r3, r3, #10
 4344              		.loc 1 513 0
 4345 1b58 04A8     		add	r0, sp, #16
 4346              		.loc 1 511 0
 4347 1b5a 8DF8AD20 		strb	r2, [sp, #173]
 4348 1b5e 0293     		str	r3, [sp, #8]
 4349              		.loc 1 509 0
 4350 1b60 ADF8AA10 		strh	r1, [sp, #170]	@ unaligned
 4351              		.loc 1 513 0
 4352 1b64 FFF7FEFF 		bl	conf_general_store_app_configuration
 4353              	.LVL412:
 4354              		.loc 1 514 0
 4355 1b68 04A8     		add	r0, sp, #16
 4356 1b6a FFF7FEFF 		bl	app_set_configuration
 4357              	.LVL413:
 4358              		.loc 1 515 0
 4359 1b6e 0598     		ldr	r0, [sp, #20]
 4360 1b70 9DED060A 		flds	s0, [sp, #24]
 4361 1b74 FFF7FEFF 		bl	timeout_configure
 4362              	.LVL414:
 4363              	.LBB147:
 4364              	.LBB148:
 4365              		.loc 1 94 0
 4366 1b78 2B4B     		ldr	r3, .L164
 4367              	.LBE148:
 4368              	.LBE147:
 4369              		.loc 1 518 0
 4370 1b7a 2C48     		ldr	r0, .L164+4
 4371              	.LBB151:
 4372              	.LBB149:
 4373              		.loc 1 94 0
 4374 1b7c 1B68     		ldr	r3, [r3]
 4375              	.LBE149:
 4376              	.LBE151:
 4377              		.loc 1 518 0
 4378 1b7e 0295     		str	r5, [sp, #8]
 4379 1b80 0F22     		movs	r2, #15
 4380 1b82 0270     		strb	r2, [r0]
 4381              	.LVL415:
 4382              	.LBB152:
 4383              	.LBB150:
 4384              		.loc 1 94 0
 4385 1b84 002B     		cmp	r3, #0
 4386 1b86 3EF402AC 		beq	.L24
 4387              	.LBE150:
 4388              	.LBE152:
 4389              		.loc 1 788 0
ARM GAS  /tmp/ccy8OeyM.s 			page 78


 4390 1b8a 2946     		mov	r1, r5
 4391 1b8c FEF742BE 		b	.L131
 4392              	.LVL416:
 4393              	.L144:
 4394 1b90 9DED030A 		flds	s0, [sp, #12]
 4395 1b94 FEF7FDBF 		b	.L67
 4396              	.LVL417:
 4397              	.L143:
 4398 1b98 9DED040A 		flds	s0, [sp, #16]
 4399 1b9c FEF7BCBF 		b	.L70
 4400              	.LVL418:
 4401              	.L141:
 4402              		.loc 1 525 0
 4403 1ba0 FFF7FEFF 		bl	app_get_configuration
 4404              	.LVL419:
 4405 1ba4 A022     		movs	r2, #160
 4406 1ba6 0146     		mov	r1, r0
 4407 1ba8 04A8     		add	r0, sp, #16
 4408 1baa FFF7FEFF 		bl	memcpy
 4409              	.LVL420:
 4410 1bae FEF766BA 		b	.L65
 4411              	.LVL421:
 4412              	.L142:
 4413              		.loc 1 226 0
 4414 1bb2 FFF7FEFF 		bl	mc_interface_release_motor
 4415              	.LVL422:
 4416 1bb6 FEF706BC 		b	.L51
 4417              	.LVL423:
 4418              	.L145:
 4419              		.loc 1 352 0
 4420 1bba FFF7FEFF 		bl	mc_interface_get_configuration
 4421              	.LVL424:
 4422 1bbe 4FF49A72 		mov	r2, #308
 4423 1bc2 0146     		mov	r1, r0
 4424 1bc4 1A48     		ldr	r0, .L164+8
 4425 1bc6 FFF7FEFF 		bl	memcpy
 4426              	.LVL425:
 4427 1bca FFF714B8 		b	.L63
 4428              	.LVL426:
 4429              	.L74:
 4430              		.loc 1 728 0
 4431 1bce 174B     		ldr	r3, .L164+4
 4432 1bd0 0822     		movs	r2, #8
 4433 1bd2 FF21     		movs	r1, #255
 4434 1bd4 1846     		mov	r0, r3
 4435 1bd6 FFF7FEFF 		bl	memset
 4436              	.LVL427:
 4437              		.loc 1 730 0
 4438 1bda 0022     		movs	r2, #0
 4439 1bdc 4272     		strb	r2, [r0, #9]
 4440 1bde FEF7D6BB 		b	.L24
 4441              	.LVL428:
 4442              	.L72:
 4443              		.loc 1 691 0
 4444 1be2 2CAD     		add	r5, sp, #176
 4445              	.LVL429:
 4446 1be4 0123     		movs	r3, #1
ARM GAS  /tmp/ccy8OeyM.s 			page 79


 4447 1be6 45F8A83D 		str	r3, [r5, #-168]!
 4448 1bea 104C     		ldr	r4, .L164+4
 4449              	.LVL430:
 4450              		.loc 1 692 0
 4451 1bec 9FED110A 		flds	s0, .L164+12
 4452 1bf0 DFED110A 		flds	s1, .L164+16
 4453              		.loc 1 691 0
 4454 1bf4 1A23     		movs	r3, #26
 4455              		.loc 1 692 0
 4456 1bf6 2946     		mov	r1, r5
 4457 1bf8 2046     		mov	r0, r4
 4458              		.loc 1 691 0
 4459 1bfa 2370     		strb	r3, [r4]
 4460              		.loc 1 692 0
 4461 1bfc FFF7FEFF 		bl	buffer_append_float32
 4462              	.LVL431:
 4463              		.loc 1 693 0
 4464 1c00 2946     		mov	r1, r5
 4465 1c02 2046     		mov	r0, r4
 4466 1c04 9FED0D0A 		flds	s0, .L164+20
 4467 1c08 DFED0B0A 		flds	s1, .L164+16
 4468 1c0c FFF7FEFF 		bl	buffer_append_float32
 4469              	.LVL432:
 4470              	.LBB153:
 4471              	.LBB154:
 4472              		.loc 1 94 0
 4473 1c10 054B     		ldr	r3, .L164
 4474              	.LBE154:
 4475              	.LBE153:
 4476              		.loc 1 694 0
 4477 1c12 0299     		ldr	r1, [sp, #8]
 4478              	.LBB157:
 4479              	.LBB155:
 4480              		.loc 1 94 0
 4481 1c14 1B68     		ldr	r3, [r3]
 4482              	.LBE155:
 4483              	.LBE157:
 4484              		.loc 1 694 0
 4485 1c16 6654     		strb	r6, [r4, r1]
 4486              	.LVL433:
 4487 1c18 0131     		adds	r1, r1, #1
 4488              	.LVL434:
 4489 1c1a 0291     		str	r1, [sp, #8]
 4490              	.LBB158:
 4491              	.LBB156:
 4492              		.loc 1 94 0
 4493 1c1c 002B     		cmp	r3, #0
 4494 1c1e 7EF407AC 		bne	.L133
 4495 1c22 FEF7B4BB 		b	.L24
 4496              	.L165:
 4497 1c26 00BF     		.align	2
 4498              	.L164:
 4499 1c28 00000000 		.word	.LANCHOR9
 4500 1c2c 00000000 		.word	.LANCHOR8
 4501 1c30 00000000 		.word	.LANCHOR11
 4502 1c34 00407A44 		.word	1148862464
 4503 1c38 00247449 		.word	1232348160
ARM GAS  /tmp/ccy8OeyM.s 			page 80


 4504 1c3c 00000000 		.word	0
 4505              	.LBE156:
 4506              	.LBE158:
 4507              		.cfi_endproc
 4508              	.LFE259:
 4509              		.size	commands_process_packet, .-commands_process_packet
 4510              		.section	.text.commands_printf,"ax",%progbits
 4511              		.align	2
 4512              		.p2align 4,,15
 4513              		.global	commands_printf
 4514              		.thumb
 4515              		.thumb_func
 4516              		.type	commands_printf, %function
 4517              	commands_printf:
 4518              	.LFB260:
 4519              		.loc 1 797 0
 4520              		.cfi_startproc
 4521              		@ args = 4, pretend = 16, frame = 8
 4522              		@ frame_needed = 0, uses_anonymous_args = 1
 4523              	.LVL435:
 4524 0000 0FB4     		push	{r0, r1, r2, r3}
 4525              		.cfi_def_cfa_offset 16
 4526              		.cfi_offset 0, -16
 4527              		.cfi_offset 1, -12
 4528              		.cfi_offset 2, -8
 4529              		.cfi_offset 3, -4
 4530 0002 00B5     		push	{lr}
 4531              		.cfi_def_cfa_offset 20
 4532              		.cfi_offset 14, -20
 4533 0004 83B0     		sub	sp, sp, #12
 4534              		.cfi_def_cfa_offset 32
 4535              		.loc 1 797 0
 4536 0006 04AB     		add	r3, sp, #16
 4537              		.loc 1 803 0
 4538 0008 0C48     		ldr	r0, .L174
 4539              		.loc 1 797 0
 4540 000a 53F8042B 		ldr	r2, [r3], #4
 4541              		.loc 1 799 0
 4542 000e 0193     		str	r3, [sp, #4]
 4543              		.loc 1 803 0
 4544 0010 1421     		movs	r1, #20
 4545 0012 00F8011B 		strb	r1, [r0], #1
 4546              		.loc 1 804 0
 4547 0016 FE21     		movs	r1, #254
 4548 0018 FFF7FEFF 		bl	vsnprintf
 4549              	.LVL436:
 4550              		.loc 1 807 0
 4551 001c 0028     		cmp	r0, #0
 4552 001e 08DD     		ble	.L166
 4553              	.LVL437:
 4554              	.LBB159:
 4555              	.LBB160:
 4556              		.loc 1 94 0
 4557 0020 074B     		ldr	r3, .L174+4
 4558 0022 1B68     		ldr	r3, [r3]
 4559              	.LBE160:
 4560              	.LBE159:
ARM GAS  /tmp/ccy8OeyM.s 			page 81


 4561              		.loc 1 808 0
 4562 0024 FD28     		cmp	r0, #253
 4563 0026 D4BF     		ite	le
 4564 0028 411C     		addle	r1, r0, #1
 4565 002a FF21     		movgt	r1, #255
 4566              	.LVL438:
 4567              	.LBB162:
 4568              	.LBB161:
 4569              		.loc 1 94 0
 4570 002c 0BB1     		cbz	r3, .L166
 4571              		.loc 1 95 0
 4572 002e 0348     		ldr	r0, .L174
 4573              	.LVL439:
 4574 0030 9847     		blx	r3
 4575              	.LVL440:
 4576              	.L166:
 4577              	.LBE161:
 4578              	.LBE162:
 4579              		.loc 1 810 0
 4580 0032 03B0     		add	sp, sp, #12
 4581              		.cfi_def_cfa_offset 20
 4582              		@ sp needed
 4583 0034 5DF804EB 		ldr	lr, [sp], #4
 4584              		.cfi_restore 14
 4585              		.cfi_def_cfa_offset 16
 4586 0038 04B0     		add	sp, sp, #16
 4587              		.cfi_restore 3
 4588              		.cfi_restore 2
 4589              		.cfi_restore 1
 4590              		.cfi_restore 0
 4591              		.cfi_def_cfa_offset 0
 4592 003a 7047     		bx	lr
 4593              	.L175:
 4594              		.align	2
 4595              	.L174:
 4596 003c 00000000 		.word	.LANCHOR15
 4597 0040 00000000 		.word	.LANCHOR9
 4598              		.cfi_endproc
 4599              	.LFE260:
 4600              		.size	commands_printf, .-commands_printf
 4601              		.section	.text.commands_send_samples,"ax",%progbits
 4602              		.align	2
 4603              		.p2align 4,,15
 4604              		.global	commands_send_samples
 4605              		.thumb
 4606              		.thumb_func
 4607              		.type	commands_send_samples, %function
 4608              	commands_send_samples:
 4609              	.LFB261:
 4610              		.loc 1 812 0
 4611              		.cfi_startproc
 4612              		@ args = 0, pretend = 0, frame = 0
 4613              		@ frame_needed = 1, uses_anonymous_args = 0
 4614              	.LVL441:
 4615 0000 F8B5     		push	{r3, r4, r5, r6, r7, lr}
 4616              		.cfi_def_cfa_offset 24
 4617              		.cfi_offset 3, -24
ARM GAS  /tmp/ccy8OeyM.s 			page 82


 4618              		.cfi_offset 4, -20
 4619              		.cfi_offset 5, -16
 4620              		.cfi_offset 6, -12
 4621              		.cfi_offset 7, -8
 4622              		.cfi_offset 14, -4
 4623              		.loc 1 813 0
 4624 0002 01F10803 		add	r3, r1, #8
 4625 0006 23F00703 		bic	r3, r3, #7
 4626              		.loc 1 812 0
 4627 000a 00AF     		add	r7, sp, #0
 4628              		.cfi_def_cfa_register 7
 4629              		.loc 1 813 0
 4630 000c ADEB030D 		sub	sp, sp, r3
 4631              	.LBB163:
 4632              		.loc 1 818 0
 4633 0010 0029     		cmp	r1, #0
 4634              	.LBE163:
 4635              		.loc 1 816 0
 4636 0012 4FF01203 		mov	r3, #18
 4637 0016 8DF80030 		strb	r3, [sp]
 4638              		.loc 1 813 0
 4639 001a 6E46     		mov	r6, sp
 4640              	.LVL442:
 4641              	.LBB164:
 4642              		.loc 1 818 0
 4643 001c 11DD     		ble	.L180
 4644 001e 421E     		subs	r2, r0, #1
 4645 0020 6B46     		mov	r3, sp
 4646 0022 0DEB0105 		add	r5, sp, r1
 4647              	.LVL443:
 4648              	.L178:
 4649              		.loc 1 819 0 discriminator 3
 4650 0026 12F8014F 		ldrb	r4, [r2, #1]!	@ zero_extendqisi2
 4651              	.LVL444:
 4652 002a 03F8014F 		strb	r4, [r3, #1]!
 4653              	.LVL445:
 4654              		.loc 1 818 0 discriminator 3
 4655 002e AB42     		cmp	r3, r5
 4656 0030 F9D1     		bne	.L178
 4657 0032 0131     		adds	r1, r1, #1
 4658              	.LVL446:
 4659              	.L177:
 4660              	.LBE164:
 4661              	.LBB165:
 4662              	.LBB166:
 4663              		.loc 1 94 0
 4664 0034 044B     		ldr	r3, .L186
 4665 0036 1B68     		ldr	r3, [r3]
 4666 0038 0BB1     		cbz	r3, .L176
 4667 003a 3046     		mov	r0, r6
 4668              	.LVL447:
 4669              		.loc 1 95 0
 4670 003c 9847     		blx	r3
 4671              	.LVL448:
 4672              	.L176:
 4673              	.LBE166:
 4674              	.LBE165:
ARM GAS  /tmp/ccy8OeyM.s 			page 83


 4675              		.loc 1 823 0
 4676 003e BD46     		mov	sp, r7
 4677              		.cfi_remember_state
 4678              		.cfi_def_cfa_register 13
 4679              		@ sp needed
 4680 0040 F8BD     		pop	{r3, r4, r5, r6, r7, pc}
 4681              	.LVL449:
 4682              	.L180:
 4683              		.cfi_restore_state
 4684              	.LBB167:
 4685              		.loc 1 818 0
 4686 0042 0121     		movs	r1, #1
 4687              	.LVL450:
 4688 0044 F6E7     		b	.L177
 4689              	.L187:
 4690 0046 00BF     		.align	2
 4691              	.L186:
 4692 0048 00000000 		.word	.LANCHOR9
 4693              	.LBE167:
 4694              		.cfi_endproc
 4695              	.LFE261:
 4696              		.size	commands_send_samples, .-commands_send_samples
 4697              		.section	.text.commands_send_rotor_pos,"ax",%progbits
 4698              		.align	2
 4699              		.p2align 4,,15
 4700              		.global	commands_send_rotor_pos
 4701              		.thumb
 4702              		.thumb_func
 4703              		.type	commands_send_rotor_pos, %function
 4704              	commands_send_rotor_pos:
 4705              	.LFB262:
 4706              		.loc 1 825 0
 4707              		.cfi_startproc
 4708              		@ args = 0, pretend = 0, frame = 16
 4709              		@ frame_needed = 0, uses_anonymous_args = 0
 4710              	.LVL451:
 4711 0000 10B5     		push	{r4, lr}
 4712              		.cfi_def_cfa_offset 8
 4713              		.cfi_offset 4, -8
 4714              		.cfi_offset 14, -4
 4715              		.loc 1 830 0
 4716 0002 DFED0D7A 		flds	s15, .L194
 4717              		.loc 1 825 0
 4718 0006 84B0     		sub	sp, sp, #16
 4719              		.cfi_def_cfa_offset 24
 4720              		.loc 1 829 0
 4721 0008 04AC     		add	r4, sp, #16
 4722              		.loc 1 830 0
 4723 000a 20EE270A 		fmuls	s0, s0, s15
 4724              	.LVL452:
 4725              		.loc 1 829 0
 4726 000e 1523     		movs	r3, #21
 4727 0010 04F8083D 		strb	r3, [r4, #-8]!
 4728              		.loc 1 830 0
 4729 0014 FDEEC07A 		ftosizs	s15, s0
 4730              		.loc 1 829 0
 4731 0018 0123     		movs	r3, #1
ARM GAS  /tmp/ccy8OeyM.s 			page 84


 4732              		.loc 1 830 0
 4733 001a 17EE901A 		fmrs	r1, s15	@ int
 4734 001e 2046     		mov	r0, r4
 4735 0020 01AA     		add	r2, sp, #4
 4736              		.loc 1 829 0
 4737 0022 0193     		str	r3, [sp, #4]
 4738              		.loc 1 830 0
 4739 0024 FFF7FEFF 		bl	buffer_append_int32
 4740              	.LVL453:
 4741              	.LBB168:
 4742              	.LBB169:
 4743              		.loc 1 94 0
 4744 0028 044B     		ldr	r3, .L194+4
 4745              	.LBE169:
 4746              	.LBE168:
 4747              		.loc 1 832 0
 4748 002a 0199     		ldr	r1, [sp, #4]
 4749              	.LVL454:
 4750              	.LBB171:
 4751              	.LBB170:
 4752              		.loc 1 94 0
 4753 002c 1B68     		ldr	r3, [r3]
 4754 002e 0BB1     		cbz	r3, .L188
 4755              		.loc 1 95 0
 4756 0030 2046     		mov	r0, r4
 4757 0032 9847     		blx	r3
 4758              	.LVL455:
 4759              	.L188:
 4760              	.LBE170:
 4761              	.LBE171:
 4762              		.loc 1 833 0
 4763 0034 04B0     		add	sp, sp, #16
 4764              		.cfi_def_cfa_offset 8
 4765              		@ sp needed
 4766 0036 10BD     		pop	{r4, pc}
 4767              	.LVL456:
 4768              	.L195:
 4769              		.align	2
 4770              	.L194:
 4771 0038 0050C347 		.word	1203982336
 4772 003c 00000000 		.word	.LANCHOR9
 4773              		.cfi_endproc
 4774              	.LFE262:
 4775              		.size	commands_send_rotor_pos, .-commands_send_rotor_pos
 4776              		.section	.text.commands_send_experiment_samples,"ax",%progbits
 4777              		.align	2
 4778              		.p2align 4,,15
 4779              		.global	commands_send_experiment_samples
 4780              		.thumb
 4781              		.thumb_func
 4782              		.type	commands_send_experiment_samples, %function
 4783              	commands_send_experiment_samples:
 4784              	.LFB263:
 4785              		.loc 1 835 0
 4786              		.cfi_startproc
 4787              		@ args = 0, pretend = 0, frame = 8
 4788              		@ frame_needed = 1, uses_anonymous_args = 0
ARM GAS  /tmp/ccy8OeyM.s 			page 85


 4789              	.LVL457:
 4790              		.loc 1 836 0
 4791 0000 8B00     		lsls	r3, r1, #2
 4792 0002 FF2B     		cmp	r3, #255
 4793 0004 34DC     		bgt	.L208
 4794              	.LVL458:
 4795              		.loc 1 835 0
 4796 0006 2DE9F043 		push	{r4, r5, r6, r7, r8, r9, lr}
 4797              		.cfi_def_cfa_offset 28
 4798              		.cfi_offset 4, -28
 4799              		.cfi_offset 5, -24
 4800              		.cfi_offset 6, -20
 4801              		.cfi_offset 7, -16
 4802              		.cfi_offset 8, -12
 4803              		.cfi_offset 9, -8
 4804              		.cfi_offset 14, -4
 4805 000a 2DED028B 		fstmfdd	sp!, {d8}
 4806              		.cfi_def_cfa_offset 36
 4807              		.cfi_offset 80, -36
 4808              		.cfi_offset 81, -32
 4809              		.loc 1 840 0
 4810 000e 0833     		adds	r3, r3, #8
 4811              	.LVL459:
 4812              		.loc 1 835 0
 4813 0010 83B0     		sub	sp, sp, #12
 4814              		.cfi_def_cfa_offset 48
 4815              		.loc 1 840 0
 4816 0012 23F00703 		bic	r3, r3, #7
 4817              	.LVL460:
 4818              		.loc 1 835 0
 4819 0016 0E46     		mov	r6, r1
 4820 0018 00AF     		add	r7, sp, #0
 4821              		.cfi_def_cfa_register 7
 4822 001a E946     		mov	r9, sp
 4823              		.loc 1 840 0
 4824 001c ADEB030D 		sub	sp, sp, r3
 4825              		.loc 1 843 0
 4826 0020 0121     		movs	r1, #1
 4827              	.LVL461:
 4828 0022 1623     		movs	r3, #22
 4829              	.LBB172:
 4830              		.loc 1 845 0
 4831 0024 002E     		cmp	r6, #0
 4832              	.LBE172:
 4833              		.loc 1 843 0
 4834 0026 8DF80030 		strb	r3, [sp]
 4835              		.loc 1 840 0
 4836 002a E846     		mov	r8, sp
 4837              	.LVL462:
 4838              		.loc 1 843 0
 4839 002c 7960     		str	r1, [r7, #4]
 4840              	.LBB173:
 4841              		.loc 1 845 0
 4842 002e 13DD     		ble	.L198
 4843              		.loc 1 846 0
 4844 0030 9FED108A 		flds	s16, .L209
 4845 0034 0546     		mov	r5, r0
ARM GAS  /tmp/ccy8OeyM.s 			page 86


 4846              		.loc 1 845 0
 4847 0036 0024     		movs	r4, #0
 4848              	.LVL463:
 4849              	.L199:
 4850              		.loc 1 846 0 discriminator 3
 4851 0038 F5EC017A 		fldmias	r5!, {s15}
 4852 003c 67EE887A 		fmuls	s15, s15, s16
 4853              		.loc 1 845 0 discriminator 3
 4854 0040 0134     		adds	r4, r4, #1
 4855              	.LVL464:
 4856              		.loc 1 846 0 discriminator 3
 4857 0042 FDEEE77A 		ftosizs	s15, s15
 4858 0046 4046     		mov	r0, r8
 4859 0048 17EE901A 		fmrs	r1, s15	@ int
 4860 004c 3A1D     		adds	r2, r7, #4
 4861 004e FFF7FEFF 		bl	buffer_append_int32
 4862              	.LVL465:
 4863              		.loc 1 845 0 discriminator 3
 4864 0052 B442     		cmp	r4, r6
 4865 0054 F0D1     		bne	.L199
 4866 0056 7968     		ldr	r1, [r7, #4]
 4867              	.LVL466:
 4868              	.L198:
 4869              	.LBE173:
 4870              	.LBB174:
 4871              	.LBB175:
 4872              		.loc 1 94 0
 4873 0058 074B     		ldr	r3, .L209+4
 4874 005a 1B68     		ldr	r3, [r3]
 4875 005c 0BB1     		cbz	r3, .L200
 4876              		.loc 1 95 0
 4877 005e 4046     		mov	r0, r8
 4878 0060 9847     		blx	r3
 4879              	.LVL467:
 4880              	.L200:
 4881              	.LBE175:
 4882              	.LBE174:
 4883              		.loc 1 850 0
 4884 0062 0C37     		adds	r7, r7, #12
 4885              		.cfi_def_cfa_offset 36
 4886 0064 CD46     		mov	sp, r9
 4887 0066 BD46     		mov	sp, r7
 4888              		.cfi_def_cfa_register 13
 4889              		@ sp needed
 4890 0068 BDEC028B 		fldmfdd	sp!, {d8}
 4891              		.cfi_restore 80
 4892              		.cfi_restore 81
 4893              		.cfi_def_cfa_offset 28
 4894 006c BDE8F083 		pop	{r4, r5, r6, r7, r8, r9, pc}
 4895              	.LVL468:
 4896              	.L208:
 4897              		.cfi_def_cfa_offset 0
 4898              		.cfi_restore 4
 4899              		.cfi_restore 5
 4900              		.cfi_restore 6
 4901              		.cfi_restore 7
 4902              		.cfi_restore 8
ARM GAS  /tmp/ccy8OeyM.s 			page 87


 4903              		.cfi_restore 9
 4904              		.cfi_restore 14
 4905 0070 7047     		bx	lr
 4906              	.L210:
 4907 0072 00BF     		.align	2
 4908              	.L209:
 4909 0074 00401C46 		.word	1176256512
 4910 0078 00000000 		.word	.LANCHOR9
 4911              		.cfi_endproc
 4912              	.LFE263:
 4913              		.size	commands_send_experiment_samples, .-commands_send_experiment_samples
 4914              		.section	.text.commands_get_disp_pos_mode,"ax",%progbits
 4915              		.align	2
 4916              		.p2align 4,,15
 4917              		.global	commands_get_disp_pos_mode
 4918              		.thumb
 4919              		.thumb_func
 4920              		.type	commands_get_disp_pos_mode, %function
 4921              	commands_get_disp_pos_mode:
 4922              	.LFB264:
 4923              		.loc 1 852 0
 4924              		.cfi_startproc
 4925              		@ args = 0, pretend = 0, frame = 0
 4926              		@ frame_needed = 0, uses_anonymous_args = 0
 4927              		@ link register save eliminated.
 4928              		.loc 1 853 0
 4929 0000 014B     		ldr	r3, .L212
 4930              		.loc 1 854 0
 4931 0002 1878     		ldrb	r0, [r3]	@ zero_extendqisi2
 4932 0004 7047     		bx	lr
 4933              	.L213:
 4934 0006 00BF     		.align	2
 4935              	.L212:
 4936 0008 00000000 		.word	.LANCHOR12
 4937              		.cfi_endproc
 4938              	.LFE264:
 4939              		.size	commands_get_disp_pos_mode, .-commands_get_disp_pos_mode
 4940              		.section	.text.commands_set_app_data_handler,"ax",%progbits
 4941              		.align	2
 4942              		.p2align 4,,15
 4943              		.global	commands_set_app_data_handler
 4944              		.thumb
 4945              		.thumb_func
 4946              		.type	commands_set_app_data_handler, %function
 4947              	commands_set_app_data_handler:
 4948              	.LFB265:
 4949              		.loc 1 856 0
 4950              		.cfi_startproc
 4951              		@ args = 0, pretend = 0, frame = 0
 4952              		@ frame_needed = 0, uses_anonymous_args = 0
 4953              		@ link register save eliminated.
 4954              	.LVL469:
 4955              		.loc 1 857 0
 4956 0000 014B     		ldr	r3, .L215
 4957 0002 1860     		str	r0, [r3]
 4958 0004 7047     		bx	lr
 4959              	.L216:
ARM GAS  /tmp/ccy8OeyM.s 			page 88


 4960 0006 00BF     		.align	2
 4961              	.L215:
 4962 0008 00000000 		.word	.LANCHOR14
 4963              		.cfi_endproc
 4964              	.LFE265:
 4965              		.size	commands_set_app_data_handler, .-commands_set_app_data_handler
 4966              		.section	.text.commands_send_app_data,"ax",%progbits
 4967              		.align	2
 4968              		.p2align 4,,15
 4969              		.global	commands_send_app_data
 4970              		.thumb
 4971              		.thumb_func
 4972              		.type	commands_send_app_data, %function
 4973              	commands_send_app_data:
 4974              	.LFB266:
 4975              		.loc 1 860 0
 4976              		.cfi_startproc
 4977              		@ args = 0, pretend = 0, frame = 0
 4978              		@ frame_needed = 0, uses_anonymous_args = 0
 4979              	.LVL470:
 4980 0000 70B5     		push	{r4, r5, r6, lr}
 4981              		.cfi_def_cfa_offset 16
 4982              		.cfi_offset 4, -16
 4983              		.cfi_offset 5, -12
 4984              		.cfi_offset 6, -8
 4985              		.cfi_offset 14, -4
 4986              		.loc 1 863 0
 4987 0002 0A4D     		ldr	r5, .L220
 4988              		.loc 1 860 0
 4989 0004 0246     		mov	r2, r0
 4990              		.loc 1 863 0
 4991 0006 2846     		mov	r0, r5
 4992              	.LVL471:
 4993              		.loc 1 860 0
 4994 0008 0C46     		mov	r4, r1
 4995              		.loc 1 863 0
 4996 000a 2323     		movs	r3, #35
 4997              		.loc 1 864 0
 4998 000c 1146     		mov	r1, r2
 4999              	.LVL472:
 5000              		.loc 1 863 0
 5001 000e 00F8013B 		strb	r3, [r0], #1
 5002              		.loc 1 864 0
 5003 0012 2246     		mov	r2, r4
 5004              	.LVL473:
 5005 0014 FFF7FEFF 		bl	memcpy
 5006              	.LVL474:
 5007              	.LBB176:
 5008              	.LBB177:
 5009              		.loc 1 94 0
 5010 0018 054B     		ldr	r3, .L220+4
 5011 001a 1B68     		ldr	r3, [r3]
 5012              	.LBE177:
 5013              	.LBE176:
 5014              		.loc 1 865 0
 5015 001c 611C     		adds	r1, r4, #1
 5016              	.LVL475:
ARM GAS  /tmp/ccy8OeyM.s 			page 89


 5017              	.LBB180:
 5018              	.LBB178:
 5019              		.loc 1 94 0
 5020 001e 1BB1     		cbz	r3, .L217
 5021              		.loc 1 95 0
 5022 0020 2846     		mov	r0, r5
 5023              	.LBE178:
 5024              	.LBE180:
 5025              		.loc 1 868 0
 5026 0022 BDE87040 		pop	{r4, r5, r6, lr}
 5027              		.cfi_remember_state
 5028              		.cfi_restore 14
 5029              		.cfi_restore 6
 5030              		.cfi_restore 5
 5031              		.cfi_restore 4
 5032              		.cfi_def_cfa_offset 0
 5033              	.LVL476:
 5034              	.LBB181:
 5035              	.LBB179:
 5036              		.loc 1 95 0
 5037 0026 1847     		bx	r3	@ indirect register sibling call
 5038              	.LVL477:
 5039              	.L217:
 5040              		.cfi_restore_state
 5041 0028 70BD     		pop	{r4, r5, r6, pc}
 5042              	.LVL478:
 5043              	.L221:
 5044 002a 00BF     		.align	2
 5045              	.L220:
 5046 002c 00000000 		.word	.LANCHOR8
 5047 0030 00000000 		.word	.LANCHOR9
 5048              	.LBE179:
 5049              	.LBE181:
 5050              		.cfi_endproc
 5051              	.LFE266:
 5052              		.size	commands_send_app_data, .-commands_send_app_data
 5053              		.section	.bss.send_func,"aw",%nobits
 5054              		.align	2
 5055              		.set	.LANCHOR9,. + 0
 5056              		.type	send_func, %object
 5057              		.size	send_func, 4
 5058              	send_func:
 5059 0000 00000000 		.space	4
 5060              		.section	.bss.detect_min_rpm,"aw",%nobits
 5061              		.align	2
 5062              		.set	.LANCHOR2,. + 0
 5063              		.type	detect_min_rpm, %object
 5064              		.size	detect_min_rpm, 4
 5065              	detect_min_rpm:
 5066 0000 00000000 		.space	4
 5067              		.section	.bss.mcconf.11290,"aw",%nobits
 5068              		.align	2
 5069              		.set	.LANCHOR11,. + 0
 5070              		.type	mcconf.11290, %object
 5071              		.size	mcconf.11290, 308
 5072              	mcconf.11290:
 5073 0000 00000000 		.space	308
ARM GAS  /tmp/ccy8OeyM.s 			page 90


 5073      00000000 
 5073      00000000 
 5073      00000000 
 5073      00000000 
 5074              		.section	.bss.detect_hall_table,"aw",%nobits
 5075              		.align	2
 5076              		.set	.LANCHOR6,. + 0
 5077              		.type	detect_hall_table, %object
 5078              		.size	detect_hall_table, 8
 5079              	detect_hall_table:
 5080 0000 00000000 		.space	8
 5080      00000000 
 5081              		.section	.bss.appdata_func,"aw",%nobits
 5082              		.align	2
 5083              		.set	.LANCHOR14,. + 0
 5084              		.type	appdata_func, %object
 5085              		.size	appdata_func, 4
 5086              	appdata_func:
 5087 0000 00000000 		.space	4
 5088              		.section	.bss.mcconf_old.11291,"aw",%nobits
 5089              		.align	2
 5090              		.set	.LANCHOR13,. + 0
 5091              		.type	mcconf_old.11291, %object
 5092              		.size	mcconf_old.11291, 308
 5093              	mcconf_old.11291:
 5094 0000 00000000 		.space	308
 5094      00000000 
 5094      00000000 
 5094      00000000 
 5094      00000000 
 5095              		.section	.bss.detect_hall_res,"aw",%nobits
 5096              		.align	2
 5097              		.set	.LANCHOR7,. + 0
 5098              		.type	detect_hall_res, %object
 5099              		.size	detect_hall_res, 4
 5100              	detect_hall_res:
 5101 0000 00000000 		.space	4
 5102              		.section	.bss.detect_thread_wa,"aw",%nobits
 5103              		.align	3
 5104              		.set	.LANCHOR10,. + 0
 5105              		.type	detect_thread_wa, %object
 5106              		.size	detect_thread_wa, 2456
 5107              	detect_thread_wa:
 5108 0000 00000000 		.space	2456
 5108      00000000 
 5108      00000000 
 5108      00000000 
 5108      00000000 
 5109              		.section	.bss.send_buffer,"aw",%nobits
 5110              		.align	2
 5111              		.set	.LANCHOR8,. + 0
 5112              		.type	send_buffer, %object
 5113              		.size	send_buffer, 1024
 5114              	send_buffer:
 5115 0000 00000000 		.space	1024
 5115      00000000 
 5115      00000000 
ARM GAS  /tmp/ccy8OeyM.s 			page 91


 5115      00000000 
 5115      00000000 
 5116              		.section	.rodata.str1.4,"aMS",%progbits,1
 5117              		.align	2
 5118              	.LC0:
 5119 0000 44657465 		.ascii	"Detect\000"
 5119      637400
 5120              		.section	.bss.detect_tp,"aw",%nobits
 5121              		.align	2
 5122              		.set	.LANCHOR0,. + 0
 5123              		.type	detect_tp, %object
 5124              		.size	detect_tp, 4
 5125              	detect_tp:
 5126 0000 00000000 		.space	4
 5127              		.section	.bss.detect_low_duty,"aw",%nobits
 5128              		.align	2
 5129              		.set	.LANCHOR3,. + 0
 5130              		.type	detect_low_duty, %object
 5131              		.size	detect_low_duty, 4
 5132              	detect_low_duty:
 5133 0000 00000000 		.space	4
 5134              		.section	.bss.detect_current,"aw",%nobits
 5135              		.align	2
 5136              		.set	.LANCHOR1,. + 0
 5137              		.type	detect_current, %object
 5138              		.size	detect_current, 4
 5139              	detect_current:
 5140 0000 00000000 		.space	4
 5141              		.section	.bss.print_buffer.11353,"aw",%nobits
 5142              		.align	2
 5143              		.set	.LANCHOR15,. + 0
 5144              		.type	print_buffer.11353, %object
 5145              		.size	print_buffer.11353, 255
 5146              	print_buffer.11353:
 5147 0000 00000000 		.space	255
 5147      00000000 
 5147      00000000 
 5147      00000000 
 5147      00000000 
 5148              		.section	.bss.detect_coupling_k,"aw",%nobits
 5149              		.align	2
 5150              		.set	.LANCHOR5,. + 0
 5151              		.type	detect_coupling_k, %object
 5152              		.size	detect_coupling_k, 4
 5153              	detect_coupling_k:
 5154 0000 00000000 		.space	4
 5155              		.section	.bss.detect_cycle_int_limit,"aw",%nobits
 5156              		.align	2
 5157              		.set	.LANCHOR4,. + 0
 5158              		.type	detect_cycle_int_limit, %object
 5159              		.size	detect_cycle_int_limit, 4
 5160              	detect_cycle_int_limit:
 5161 0000 00000000 		.space	4
 5162              		.section	.bss.display_position_mode,"aw",%nobits
 5163              		.set	.LANCHOR12,. + 0
 5164              		.type	display_position_mode, %object
 5165              		.size	display_position_mode, 1
ARM GAS  /tmp/ccy8OeyM.s 			page 92


 5166              	display_position_mode:
 5167 0000 00       		.space	1
 5168              		.text
 5169              	.Letext0:
 5170              		.file 4 "/usr/arm-none-eabi/include/machine/_default_types.h"
 5171              		.file 5 "/usr/arm-none-eabi/include/sys/_stdint.h"
 5172              		.file 6 "/usr/lib/gcc/arm-none-eabi/4.9.3/include/stddef.h"
 5173              		.file 7 "ChibiOS_3.0.2/os/rt/ports/ARMCMx/compilers/GCC/chtypes.h"
 5174              		.file 8 "ChibiOS_3.0.2/os/rt/include/chsystypes.h"
 5175              		.file 9 "ChibiOS_3.0.2/os/rt/include/chschd.h"
 5176              		.file 10 "ChibiOS_3.0.2/os/rt/ports/ARMCMx/chcore.h"
 5177              		.file 11 "ChibiOS_3.0.2/os/rt/ports/ARMCMx/chcore_v7m.h"
 5178              		.file 12 "ChibiOS_3.0.2/os/rt/include/chtm.h"
 5179              		.file 13 "ChibiOS_3.0.2/os/rt/include/chsem.h"
 5180              		.file 14 "ChibiOS_3.0.2/os/rt/include/chmtx.h"
 5181              		.file 15 "ChibiOS_3.0.2/os/rt/include/chthreads.h"
 5182              		.file 16 "datatypes.h"
 5183              		.file 17 "ChibiOS_3.0.2/ext/stdperiph_stm32f4/inc/stm32f4xx_flash.h"
 5184              		.file 18 "/usr/lib/gcc/arm-none-eabi/4.9.3/include/stdarg.h"
 5185              		.file 19 "<built-in>"
 5186              		.file 20 "ChibiOS_3.0.2/os/ext/CMSIS/include/core_cm4.h"
 5187              		.file 21 "mc_interface.h"
 5188              		.file 22 "ChibiOS_3.0.2/os/rt/include/chevents.h"
 5189              		.file 23 "conf_general.h"
 5190              		.file 24 "buffer.h"
 5191              		.file 25 "mcpwm_foc.h"
 5192              		.file 26 "mcpwm.h"
 5193              		.file 27 "timeout.h"
 5194              		.file 28 "servo_dec.h"
 5195              		.file 29 "/usr/arm-none-eabi/include/math.h"
 5196              		.file 30 "flash_helper.h"
 5197              		.file 31 "applications/app.h"
 5198              		.file 32 "comm_can.h"
 5199              		.file 33 "encoder.h"
 5200              		.file 34 "terminal.h"
 5201              		.file 35 "/usr/arm-none-eabi/include/string.h"
 5202              		.file 36 "/usr/arm-none-eabi/include/stdio.h"
 5203              		.section	.debug_info,"",%progbits
 5204              	.Ldebug_info0:
 5205 0000 05460000 		.4byte	0x4605
 5206 0004 0400     		.2byte	0x4
 5207 0006 00000000 		.4byte	.Ldebug_abbrev0
 5208 000a 04       		.byte	0x4
 5209 000b 01       		.uleb128 0x1
 5210 000c FA1F0000 		.4byte	.LASF519
 5211 0010 01       		.byte	0x1
 5212 0011 480E0000 		.4byte	.LASF520
 5213 0015 0A150000 		.4byte	.LASF521
 5214 0019 90020000 		.4byte	.Ldebug_ranges0+0x290
 5215 001d 00000000 		.4byte	0
 5216 0021 00000000 		.4byte	.Ldebug_line0
 5217 0025 02       		.uleb128 0x2
 5218 0026 04       		.byte	0x4
 5219 0027 04       		.byte	0x4
 5220 0028 06070000 		.4byte	.LASF0
 5221 002c 03       		.uleb128 0x3
 5222 002d 04       		.byte	0x4
ARM GAS  /tmp/ccy8OeyM.s 			page 93


 5223 002e 05       		.byte	0x5
 5224 002f 696E7400 		.ascii	"int\000"
 5225 0033 04       		.uleb128 0x4
 5226 0034 AF1F0000 		.4byte	.LASF2
 5227 0038 04       		.byte	0x4
 5228 0039 1B       		.byte	0x1b
 5229 003a 3E000000 		.4byte	0x3e
 5230 003e 02       		.uleb128 0x2
 5231 003f 01       		.byte	0x1
 5232 0040 06       		.byte	0x6
 5233 0041 54100000 		.4byte	.LASF1
 5234 0045 04       		.uleb128 0x4
 5235 0046 12010000 		.4byte	.LASF3
 5236 004a 04       		.byte	0x4
 5237 004b 1D       		.byte	0x1d
 5238 004c 50000000 		.4byte	0x50
 5239 0050 02       		.uleb128 0x2
 5240 0051 01       		.byte	0x1
 5241 0052 08       		.byte	0x8
 5242 0053 CC060000 		.4byte	.LASF4
 5243 0057 04       		.uleb128 0x4
 5244 0058 F4050000 		.4byte	.LASF5
 5245 005c 04       		.byte	0x4
 5246 005d 29       		.byte	0x29
 5247 005e 62000000 		.4byte	0x62
 5248 0062 02       		.uleb128 0x2
 5249 0063 02       		.byte	0x2
 5250 0064 05       		.byte	0x5
 5251 0065 BD210000 		.4byte	.LASF6
 5252 0069 04       		.uleb128 0x4
 5253 006a FE050000 		.4byte	.LASF7
 5254 006e 04       		.byte	0x4
 5255 006f 2B       		.byte	0x2b
 5256 0070 74000000 		.4byte	0x74
 5257 0074 02       		.uleb128 0x2
 5258 0075 02       		.byte	0x2
 5259 0076 07       		.byte	0x7
 5260 0077 41100000 		.4byte	.LASF8
 5261 007b 04       		.uleb128 0x4
 5262 007c 94190000 		.4byte	.LASF9
 5263 0080 04       		.byte	0x4
 5264 0081 3F       		.byte	0x3f
 5265 0082 86000000 		.4byte	0x86
 5266 0086 02       		.uleb128 0x2
 5267 0087 04       		.byte	0x4
 5268 0088 05       		.byte	0x5
 5269 0089 E7120000 		.4byte	.LASF10
 5270 008d 04       		.uleb128 0x4
 5271 008e 9E190000 		.4byte	.LASF11
 5272 0092 04       		.byte	0x4
 5273 0093 41       		.byte	0x41
 5274 0094 98000000 		.4byte	0x98
 5275 0098 02       		.uleb128 0x2
 5276 0099 04       		.byte	0x4
 5277 009a 07       		.byte	0x7
 5278 009b 77140000 		.4byte	.LASF12
 5279 009f 02       		.uleb128 0x2
ARM GAS  /tmp/ccy8OeyM.s 			page 94


 5280 00a0 08       		.byte	0x8
 5281 00a1 05       		.byte	0x5
 5282 00a2 0D1E0000 		.4byte	.LASF13
 5283 00a6 04       		.uleb128 0x4
 5284 00a7 900D0000 		.4byte	.LASF14
 5285 00ab 04       		.byte	0x4
 5286 00ac 5B       		.byte	0x5b
 5287 00ad B1000000 		.4byte	0xb1
 5288 00b1 02       		.uleb128 0x2
 5289 00b2 08       		.byte	0x8
 5290 00b3 07       		.byte	0x7
 5291 00b4 421B0000 		.4byte	.LASF15
 5292 00b8 02       		.uleb128 0x2
 5293 00b9 04       		.byte	0x4
 5294 00ba 07       		.byte	0x7
 5295 00bb 7D210000 		.4byte	.LASF16
 5296 00bf 04       		.uleb128 0x4
 5297 00c0 BD0F0000 		.4byte	.LASF17
 5298 00c4 05       		.byte	0x5
 5299 00c5 13       		.byte	0x13
 5300 00c6 33000000 		.4byte	0x33
 5301 00ca 04       		.uleb128 0x4
 5302 00cb B20A0000 		.4byte	.LASF18
 5303 00cf 05       		.byte	0x5
 5304 00d0 14       		.byte	0x14
 5305 00d1 45000000 		.4byte	0x45
 5306 00d5 04       		.uleb128 0x4
 5307 00d6 39100000 		.4byte	.LASF19
 5308 00da 05       		.byte	0x5
 5309 00db 19       		.byte	0x19
 5310 00dc 57000000 		.4byte	0x57
 5311 00e0 04       		.uleb128 0x4
 5312 00e1 A8010000 		.4byte	.LASF20
 5313 00e5 05       		.byte	0x5
 5314 00e6 1A       		.byte	0x1a
 5315 00e7 69000000 		.4byte	0x69
 5316 00eb 04       		.uleb128 0x4
 5317 00ec 65030000 		.4byte	.LASF21
 5318 00f0 05       		.byte	0x5
 5319 00f1 1F       		.byte	0x1f
 5320 00f2 7B000000 		.4byte	0x7b
 5321 00f6 04       		.uleb128 0x4
 5322 00f7 D0130000 		.4byte	.LASF22
 5323 00fb 05       		.byte	0x5
 5324 00fc 20       		.byte	0x20
 5325 00fd 8D000000 		.4byte	0x8d
 5326 0101 04       		.uleb128 0x4
 5327 0102 3A080000 		.4byte	.LASF23
 5328 0106 05       		.byte	0x5
 5329 0107 26       		.byte	0x26
 5330 0108 A6000000 		.4byte	0xa6
 5331 010c 04       		.uleb128 0x4
 5332 010d 820A0000 		.4byte	.LASF24
 5333 0111 06       		.byte	0x6
 5334 0112 D4       		.byte	0xd4
 5335 0113 B8000000 		.4byte	0xb8
 5336 0117 05       		.uleb128 0x5
ARM GAS  /tmp/ccy8OeyM.s 			page 95


 5337 0118 EB000000 		.4byte	0xeb
 5338 011c 04       		.uleb128 0x4
 5339 011d D3090000 		.4byte	.LASF25
 5340 0121 07       		.byte	0x7
 5341 0122 45       		.byte	0x45
 5342 0123 F6000000 		.4byte	0xf6
 5343 0127 04       		.uleb128 0x4
 5344 0128 D70E0000 		.4byte	.LASF26
 5345 012c 07       		.byte	0x7
 5346 012d 48       		.byte	0x48
 5347 012e CA000000 		.4byte	0xca
 5348 0132 04       		.uleb128 0x4
 5349 0133 4A1C0000 		.4byte	.LASF27
 5350 0137 07       		.byte	0x7
 5351 0138 49       		.byte	0x49
 5352 0139 CA000000 		.4byte	0xca
 5353 013d 04       		.uleb128 0x4
 5354 013e 400E0000 		.4byte	.LASF28
 5355 0142 07       		.byte	0x7
 5356 0143 4A       		.byte	0x4a
 5357 0144 CA000000 		.4byte	0xca
 5358 0148 04       		.uleb128 0x4
 5359 0149 0C100000 		.4byte	.LASF29
 5360 014d 07       		.byte	0x7
 5361 014e 4B       		.byte	0x4b
 5362 014f CA000000 		.4byte	0xca
 5363 0153 04       		.uleb128 0x4
 5364 0154 66050000 		.4byte	.LASF30
 5365 0158 07       		.byte	0x7
 5366 0159 4C       		.byte	0x4c
 5367 015a F6000000 		.4byte	0xf6
 5368 015e 04       		.uleb128 0x4
 5369 015f 74000000 		.4byte	.LASF31
 5370 0163 07       		.byte	0x7
 5371 0164 4D       		.byte	0x4d
 5372 0165 EB000000 		.4byte	0xeb
 5373 0169 04       		.uleb128 0x4
 5374 016a 2D140000 		.4byte	.LASF32
 5375 016e 07       		.byte	0x7
 5376 016f 4F       		.byte	0x4f
 5377 0170 F6000000 		.4byte	0xf6
 5378 0174 04       		.uleb128 0x4
 5379 0175 B7160000 		.4byte	.LASF33
 5380 0179 07       		.byte	0x7
 5381 017a 51       		.byte	0x51
 5382 017b EB000000 		.4byte	0xeb
 5383 017f 04       		.uleb128 0x4
 5384 0180 6D030000 		.4byte	.LASF34
 5385 0184 08       		.byte	0x8
 5386 0185 33       		.byte	0x33
 5387 0186 F6000000 		.4byte	0xf6
 5388 018a 04       		.uleb128 0x4
 5389 018b 45030000 		.4byte	.LASF35
 5390 018f 08       		.byte	0x8
 5391 0190 3F       		.byte	0x3f
 5392 0191 95010000 		.4byte	0x195
 5393 0195 06       		.uleb128 0x6
ARM GAS  /tmp/ccy8OeyM.s 			page 96


 5394 0196 FC060000 		.4byte	.LASF57
 5395 019a 48       		.byte	0x48
 5396 019b 09       		.byte	0x9
 5397 019c C2       		.byte	0xc2
 5398 019d 9A020000 		.4byte	0x29a
 5399 01a1 07       		.uleb128 0x7
 5400 01a2 130E0000 		.4byte	.LASF36
 5401 01a6 09       		.byte	0x9
 5402 01a7 C3       		.byte	0xc3
 5403 01a8 A5020000 		.4byte	0x2a5
 5404 01ac 00       		.byte	0
 5405 01ad 07       		.uleb128 0x7
 5406 01ae D20A0000 		.4byte	.LASF37
 5407 01b2 09       		.byte	0x9
 5408 01b3 C5       		.byte	0xc5
 5409 01b4 A5020000 		.4byte	0x2a5
 5410 01b8 04       		.byte	0x4
 5411 01b9 07       		.uleb128 0x7
 5412 01ba 720D0000 		.4byte	.LASF38
 5413 01be 09       		.byte	0x9
 5414 01bf C7       		.byte	0xc7
 5415 01c0 53010000 		.4byte	0x153
 5416 01c4 08       		.byte	0x8
 5417 01c5 07       		.uleb128 0x7
 5418 01c6 8A070000 		.4byte	.LASF39
 5419 01ca 09       		.byte	0x9
 5420 01cb C8       		.byte	0xc8
 5421 01cc D5040000 		.4byte	0x4d5
 5422 01d0 0C       		.byte	0xc
 5423 01d1 07       		.uleb128 0x7
 5424 01d2 60020000 		.4byte	.LASF40
 5425 01d6 09       		.byte	0x9
 5426 01d7 CA       		.byte	0xca
 5427 01d8 A5020000 		.4byte	0x2a5
 5428 01dc 10       		.byte	0x10
 5429 01dd 07       		.uleb128 0x7
 5430 01de 271F0000 		.4byte	.LASF41
 5431 01e2 09       		.byte	0x9
 5432 01e3 CB       		.byte	0xcb
 5433 01e4 A5020000 		.4byte	0x2a5
 5434 01e8 14       		.byte	0x14
 5435 01e9 07       		.uleb128 0x7
 5436 01ea 7F1C0000 		.4byte	.LASF42
 5437 01ee 09       		.byte	0x9
 5438 01ef D2       		.byte	0xd2
 5439 01f0 1A070000 		.4byte	0x71a
 5440 01f4 18       		.byte	0x18
 5441 01f5 07       		.uleb128 0x7
 5442 01f6 01220000 		.4byte	.LASF43
 5443 01fa 09       		.byte	0x9
 5444 01fb DD       		.byte	0xdd
 5445 01fc 32010000 		.4byte	0x132
 5446 0200 1C       		.byte	0x1c
 5447 0201 07       		.uleb128 0x7
 5448 0202 DB1B0000 		.4byte	.LASF44
 5449 0206 09       		.byte	0x9
 5450 0207 E1       		.byte	0xe1
ARM GAS  /tmp/ccy8OeyM.s 			page 97


 5451 0208 27010000 		.4byte	0x127
 5452 020c 1D       		.byte	0x1d
 5453 020d 07       		.uleb128 0x7
 5454 020e A6120000 		.4byte	.LASF45
 5455 0212 09       		.byte	0x9
 5456 0213 E6       		.byte	0xe6
 5457 0214 3D010000 		.4byte	0x13d
 5458 0218 1E       		.byte	0x1e
 5459 0219 07       		.uleb128 0x7
 5460 021a 70100000 		.4byte	.LASF46
 5461 021e 09       		.byte	0x9
 5462 021f EC       		.byte	0xec
 5463 0220 48010000 		.4byte	0x148
 5464 0224 1F       		.byte	0x1f
 5465 0225 07       		.uleb128 0x7
 5466 0226 85100000 		.4byte	.LASF47
 5467 022a 09       		.byte	0x9
 5468 022b F3       		.byte	0xf3
 5469 022c 2C070000 		.4byte	0x72c
 5470 0230 20       		.byte	0x20
 5471 0231 08       		.uleb128 0x8
 5472 0232 705F7500 		.ascii	"p_u\000"
 5473 0236 09       		.byte	0x9
 5474 0237 3101     		.2byte	0x131
 5475 0239 55060000 		.4byte	0x655
 5476 023d 24       		.byte	0x24
 5477 023e 09       		.uleb128 0x9
 5478 023f 6B040000 		.4byte	.LASF48
 5479 0243 09       		.byte	0x9
 5480 0244 3601     		.2byte	0x136
 5481 0246 AB020000 		.4byte	0x2ab
 5482 024a 28       		.byte	0x28
 5483 024b 09       		.uleb128 0x9
 5484 024c 2C110000 		.4byte	.LASF49
 5485 0250 09       		.byte	0x9
 5486 0251 3C01     		.2byte	0x13c
 5487 0253 CF020000 		.4byte	0x2cf
 5488 0257 2C       		.byte	0x2c
 5489 0258 09       		.uleb128 0x9
 5490 0259 26060000 		.4byte	.LASF50
 5491 025d 09       		.byte	0x9
 5492 025e 4001     		.2byte	0x140
 5493 0260 5E010000 		.4byte	0x15e
 5494 0264 34       		.byte	0x34
 5495 0265 09       		.uleb128 0x9
 5496 0266 1A1A0000 		.4byte	.LASF51
 5497 026a 09       		.byte	0x9
 5498 026b 4601     		.2byte	0x146
 5499 026d 69010000 		.4byte	0x169
 5500 0271 38       		.byte	0x38
 5501 0272 09       		.uleb128 0x9
 5502 0273 2C1C0000 		.4byte	.LASF52
 5503 0277 09       		.byte	0x9
 5504 0278 4D01     		.2byte	0x14d
 5505 027a 14070000 		.4byte	0x714
 5506 027e 3C       		.byte	0x3c
 5507 027f 09       		.uleb128 0x9
ARM GAS  /tmp/ccy8OeyM.s 			page 98


 5508 0280 B0180000 		.4byte	.LASF53
 5509 0284 09       		.byte	0x9
 5510 0285 5101     		.2byte	0x151
 5511 0287 53010000 		.4byte	0x153
 5512 028b 40       		.byte	0x40
 5513 028c 09       		.uleb128 0x9
 5514 028d 530E0000 		.4byte	.LASF54
 5515 0291 09       		.byte	0x9
 5516 0292 5801     		.2byte	0x158
 5517 0294 82030000 		.4byte	0x382
 5518 0298 44       		.byte	0x44
 5519 0299 00       		.byte	0
 5520 029a 04       		.uleb128 0x4
 5521 029b 5A1F0000 		.4byte	.LASF55
 5522 029f 08       		.byte	0x8
 5523 02a0 44       		.byte	0x44
 5524 02a1 A5020000 		.4byte	0x2a5
 5525 02a5 0A       		.uleb128 0xa
 5526 02a6 04       		.byte	0x4
 5527 02a7 8A010000 		.4byte	0x18a
 5528 02ab 04       		.uleb128 0x4
 5529 02ac 98040000 		.4byte	.LASF56
 5530 02b0 08       		.byte	0x8
 5531 02b1 49       		.byte	0x49
 5532 02b2 B6020000 		.4byte	0x2b6
 5533 02b6 06       		.uleb128 0x6
 5534 02b7 09220000 		.4byte	.LASF58
 5535 02bb 04       		.byte	0x4
 5536 02bc 09       		.byte	0x9
 5537 02bd B0       		.byte	0xb0
 5538 02be CF020000 		.4byte	0x2cf
 5539 02c2 07       		.uleb128 0x7
 5540 02c3 130E0000 		.4byte	.LASF36
 5541 02c7 09       		.byte	0x9
 5542 02c8 B1       		.byte	0xb1
 5543 02c9 A5020000 		.4byte	0x2a5
 5544 02cd 00       		.byte	0
 5545 02ce 00       		.byte	0
 5546 02cf 04       		.uleb128 0x4
 5547 02d0 52120000 		.4byte	.LASF59
 5548 02d4 08       		.byte	0x8
 5549 02d5 50       		.byte	0x50
 5550 02d6 DA020000 		.4byte	0x2da
 5551 02da 06       		.uleb128 0x6
 5552 02db 1D020000 		.4byte	.LASF60
 5553 02df 08       		.byte	0x8
 5554 02e0 09       		.byte	0x9
 5555 02e1 B7       		.byte	0xb7
 5556 02e2 FF020000 		.4byte	0x2ff
 5557 02e6 07       		.uleb128 0x7
 5558 02e7 130E0000 		.4byte	.LASF36
 5559 02eb 09       		.byte	0x9
 5560 02ec B8       		.byte	0xb8
 5561 02ed A5020000 		.4byte	0x2a5
 5562 02f1 00       		.byte	0
 5563 02f2 07       		.uleb128 0x7
 5564 02f3 D20A0000 		.4byte	.LASF37
ARM GAS  /tmp/ccy8OeyM.s 			page 99


 5565 02f7 09       		.byte	0x9
 5566 02f8 B9       		.byte	0xb9
 5567 02f9 A5020000 		.4byte	0x2a5
 5568 02fd 04       		.byte	0x4
 5569 02fe 00       		.byte	0
 5570 02ff 04       		.uleb128 0x4
 5571 0300 EF060000 		.4byte	.LASF61
 5572 0304 08       		.byte	0x8
 5573 0305 57       		.byte	0x57
 5574 0306 0A030000 		.4byte	0x30a
 5575 030a 0B       		.uleb128 0xb
 5576 030b 86190000 		.4byte	.LASF62
 5577 030f 1C       		.byte	0x1c
 5578 0310 09       		.byte	0x9
 5579 0311 9001     		.2byte	0x190
 5580 0313 66030000 		.4byte	0x366
 5581 0317 09       		.uleb128 0x9
 5582 0318 7B150000 		.4byte	.LASF63
 5583 031c 09       		.byte	0x9
 5584 031d 9101     		.2byte	0x191
 5585 031f CF020000 		.4byte	0x2cf
 5586 0323 00       		.byte	0
 5587 0324 09       		.uleb128 0x9
 5588 0325 F61A0000 		.4byte	.LASF64
 5589 0329 09       		.byte	0x9
 5590 032a 9201     		.2byte	0x192
 5591 032c 53010000 		.4byte	0x153
 5592 0330 08       		.byte	0x8
 5593 0331 09       		.uleb128 0x9
 5594 0332 9A090000 		.4byte	.LASF65
 5595 0336 09       		.byte	0x9
 5596 0337 9401     		.2byte	0x194
 5597 0339 D5040000 		.4byte	0x4d5
 5598 033d 0C       		.byte	0xc
 5599 033e 09       		.uleb128 0x9
 5600 033f E40F0000 		.4byte	.LASF66
 5601 0343 09       		.byte	0x9
 5602 0344 9701     		.2byte	0x197
 5603 0346 A5020000 		.4byte	0x2a5
 5604 034a 10       		.byte	0x10
 5605 034b 09       		.uleb128 0x9
 5606 034c CA0A0000 		.4byte	.LASF67
 5607 0350 09       		.byte	0x9
 5608 0351 9801     		.2byte	0x198
 5609 0353 A5020000 		.4byte	0x2a5
 5610 0357 14       		.byte	0x14
 5611 0358 09       		.uleb128 0x9
 5612 0359 A6070000 		.4byte	.LASF68
 5613 035d 09       		.byte	0x9
 5614 035e 9B01     		.2byte	0x19b
 5615 0360 A5020000 		.4byte	0x2a5
 5616 0364 18       		.byte	0x18
 5617 0365 00       		.byte	0
 5618 0366 04       		.uleb128 0x4
 5619 0367 57180000 		.4byte	.LASF69
 5620 036b 08       		.byte	0x8
 5621 036c 5C       		.byte	0x5c
ARM GAS  /tmp/ccy8OeyM.s 			page 100


 5622 036d 71030000 		.4byte	0x371
 5623 0371 0A       		.uleb128 0xa
 5624 0372 04       		.byte	0x4
 5625 0373 77030000 		.4byte	0x377
 5626 0377 0C       		.uleb128 0xc
 5627 0378 82030000 		.4byte	0x382
 5628 037c 0D       		.uleb128 0xd
 5629 037d 82030000 		.4byte	0x382
 5630 0381 00       		.byte	0
 5631 0382 0E       		.uleb128 0xe
 5632 0383 04       		.byte	0x4
 5633 0384 04       		.uleb128 0x4
 5634 0385 8A090000 		.4byte	.LASF70
 5635 0389 08       		.byte	0x8
 5636 038a 61       		.byte	0x61
 5637 038b 8F030000 		.4byte	0x38f
 5638 038f 0B       		.uleb128 0xb
 5639 0390 CA1B0000 		.4byte	.LASF71
 5640 0394 14       		.byte	0x14
 5641 0395 09       		.byte	0x9
 5642 0396 6B01     		.2byte	0x16b
 5643 0398 DE030000 		.4byte	0x3de
 5644 039c 09       		.uleb128 0x9
 5645 039d A0090000 		.4byte	.LASF72
 5646 03a1 09       		.byte	0x9
 5647 03a2 6C01     		.2byte	0x16c
 5648 03a4 31070000 		.4byte	0x731
 5649 03a8 00       		.byte	0
 5650 03a9 09       		.uleb128 0x9
 5651 03aa B2060000 		.4byte	.LASF73
 5652 03ae 09       		.byte	0x9
 5653 03af 6D01     		.2byte	0x16d
 5654 03b1 31070000 		.4byte	0x731
 5655 03b5 04       		.byte	0x4
 5656 03b6 09       		.uleb128 0x9
 5657 03b7 27100000 		.4byte	.LASF74
 5658 03bb 09       		.byte	0x9
 5659 03bc 6E01     		.2byte	0x16e
 5660 03be 7F010000 		.4byte	0x17f
 5661 03c2 08       		.byte	0x8
 5662 03c3 09       		.uleb128 0x9
 5663 03c4 8C1B0000 		.4byte	.LASF75
 5664 03c8 09       		.byte	0x9
 5665 03c9 6F01     		.2byte	0x16f
 5666 03cb 66030000 		.4byte	0x366
 5667 03cf 0C       		.byte	0xc
 5668 03d0 09       		.uleb128 0x9
 5669 03d1 90070000 		.4byte	.LASF76
 5670 03d5 09       		.byte	0x9
 5671 03d6 7101     		.2byte	0x171
 5672 03d8 82030000 		.4byte	0x382
 5673 03dc 10       		.byte	0x10
 5674 03dd 00       		.byte	0
 5675 03de 04       		.uleb128 0x4
 5676 03df EB1C0000 		.4byte	.LASF77
 5677 03e3 08       		.byte	0x8
 5678 03e4 66       		.byte	0x66
ARM GAS  /tmp/ccy8OeyM.s 			page 101


 5679 03e5 E9030000 		.4byte	0x3e9
 5680 03e9 0B       		.uleb128 0xb
 5681 03ea 4E030000 		.4byte	.LASF78
 5682 03ee 10       		.byte	0x10
 5683 03ef 09       		.byte	0x9
 5684 03f0 7B01     		.2byte	0x17b
 5685 03f2 2B040000 		.4byte	0x42b
 5686 03f6 09       		.uleb128 0x9
 5687 03f7 A0090000 		.4byte	.LASF72
 5688 03fb 09       		.byte	0x9
 5689 03fc 7C01     		.2byte	0x17c
 5690 03fe 31070000 		.4byte	0x731
 5691 0402 00       		.byte	0
 5692 0403 09       		.uleb128 0x9
 5693 0404 B2060000 		.4byte	.LASF73
 5694 0408 09       		.byte	0x9
 5695 0409 7E01     		.2byte	0x17e
 5696 040b 31070000 		.4byte	0x731
 5697 040f 04       		.byte	0x4
 5698 0410 09       		.uleb128 0x9
 5699 0411 27100000 		.4byte	.LASF74
 5700 0415 09       		.byte	0x9
 5701 0416 8001     		.2byte	0x180
 5702 0418 7F010000 		.4byte	0x17f
 5703 041c 08       		.byte	0x8
 5704 041d 09       		.uleb128 0x9
 5705 041e 4F010000 		.4byte	.LASF79
 5706 0422 09       		.byte	0x9
 5707 0423 8201     		.2byte	0x182
 5708 0425 2C070000 		.4byte	0x72c
 5709 0429 0C       		.byte	0xc
 5710 042a 00       		.byte	0
 5711 042b 04       		.uleb128 0x4
 5712 042c 48070000 		.4byte	.LASF80
 5713 0430 08       		.byte	0x8
 5714 0431 6B       		.byte	0x6b
 5715 0432 36040000 		.4byte	0x436
 5716 0436 0B       		.uleb128 0xb
 5717 0437 A9190000 		.4byte	.LASF81
 5718 043b 04       		.byte	0x4
 5719 043c 09       		.byte	0x9
 5720 043d A201     		.2byte	0x1a2
 5721 043f 51040000 		.4byte	0x451
 5722 0443 09       		.uleb128 0x9
 5723 0444 C40F0000 		.4byte	.LASF82
 5724 0448 09       		.byte	0x9
 5725 0449 AA01     		.2byte	0x1aa
 5726 044b 37070000 		.4byte	0x737
 5727 044f 00       		.byte	0
 5728 0450 00       		.byte	0
 5729 0451 04       		.uleb128 0x4
 5730 0452 06010000 		.4byte	.LASF83
 5731 0456 08       		.byte	0x8
 5732 0457 70       		.byte	0x70
 5733 0458 5C040000 		.4byte	0x45c
 5734 045c 0F       		.uleb128 0xf
 5735 045d C6110000 		.4byte	.LASF84
ARM GAS  /tmp/ccy8OeyM.s 			page 102


 5736 0461 5802     		.2byte	0x258
 5737 0463 09       		.byte	0x9
 5738 0464 C201     		.2byte	0x1c2
 5739 0466 B8040000 		.4byte	0x4b8
 5740 046a 09       		.uleb128 0x9
 5741 046b 92040000 		.4byte	.LASF85
 5742 046f 09       		.byte	0x9
 5743 0470 C601     		.2byte	0x1c6
 5744 0472 FF020000 		.4byte	0x2ff
 5745 0476 00       		.byte	0
 5746 0477 09       		.uleb128 0x9
 5747 0478 5C040000 		.4byte	.LASF86
 5748 047c 09       		.byte	0x9
 5749 047d CA01     		.2byte	0x1ca
 5750 047f DE030000 		.4byte	0x3de
 5751 0483 1C       		.byte	0x1c
 5752 0484 08       		.uleb128 0x8
 5753 0485 64626700 		.ascii	"dbg\000"
 5754 0489 09       		.byte	0x9
 5755 048a CE01     		.2byte	0x1ce
 5756 048c 2B040000 		.4byte	0x42b
 5757 0490 2C       		.byte	0x2c
 5758 0491 09       		.uleb128 0x9
 5759 0492 F0120000 		.4byte	.LASF87
 5760 0496 09       		.byte	0x9
 5761 0497 D201     		.2byte	0x1d2
 5762 0499 8A010000 		.4byte	0x18a
 5763 049d 30       		.byte	0x30
 5764 049e 08       		.uleb128 0x8
 5765 049f 746D00   		.ascii	"tm\000"
 5766 04a2 09       		.byte	0x9
 5767 04a3 D701     		.2byte	0x1d7
 5768 04a5 4A060000 		.4byte	0x64a
 5769 04a9 78       		.byte	0x78
 5770 04aa 09       		.uleb128 0x9
 5771 04ab 7D1B0000 		.4byte	.LASF88
 5772 04af 09       		.byte	0x9
 5773 04b0 E301     		.2byte	0x1e3
 5774 04b2 3C070000 		.4byte	0x73c
 5775 04b6 80       		.byte	0x80
 5776 04b7 00       		.byte	0
 5777 04b8 02       		.uleb128 0x2
 5778 04b9 04       		.byte	0x4
 5779 04ba 07       		.byte	0x7
 5780 04bb 30100000 		.4byte	.LASF89
 5781 04bf 04       		.uleb128 0x4
 5782 04c0 24140000 		.4byte	.LASF90
 5783 04c4 0A       		.byte	0xa
 5784 04c5 65       		.byte	0x65
 5785 04c6 82030000 		.4byte	0x382
 5786 04ca 04       		.uleb128 0x4
 5787 04cb A7060000 		.4byte	.LASF91
 5788 04cf 0A       		.byte	0xa
 5789 04d0 6D       		.byte	0x6d
 5790 04d1 01010000 		.4byte	0x101
 5791 04d5 06       		.uleb128 0x6
 5792 04d6 5E130000 		.4byte	.LASF92
ARM GAS  /tmp/ccy8OeyM.s 			page 103


 5793 04da 04       		.byte	0x4
 5794 04db 0A       		.byte	0xa
 5795 04dc 89       		.byte	0x89
 5796 04dd EE040000 		.4byte	0x4ee
 5797 04e1 10       		.uleb128 0x10
 5798 04e2 72313300 		.ascii	"r13\000"
 5799 04e6 0A       		.byte	0xa
 5800 04e7 8A       		.byte	0x8a
 5801 04e8 2F060000 		.4byte	0x62f
 5802 04ec 00       		.byte	0
 5803 04ed 00       		.byte	0
 5804 04ee 06       		.uleb128 0x6
 5805 04ef 17000000 		.4byte	.LASF93
 5806 04f3 64       		.byte	0x64
 5807 04f4 0B       		.byte	0xb
 5808 04f5 F4       		.byte	0xf4
 5809 04f6 2F060000 		.4byte	0x62f
 5810 04fa 10       		.uleb128 0x10
 5811 04fb 73313600 		.ascii	"s16\000"
 5812 04ff 0B       		.byte	0xb
 5813 0500 F6       		.byte	0xf6
 5814 0501 BF040000 		.4byte	0x4bf
 5815 0505 00       		.byte	0
 5816 0506 10       		.uleb128 0x10
 5817 0507 73313700 		.ascii	"s17\000"
 5818 050b 0B       		.byte	0xb
 5819 050c F7       		.byte	0xf7
 5820 050d BF040000 		.4byte	0x4bf
 5821 0511 04       		.byte	0x4
 5822 0512 10       		.uleb128 0x10
 5823 0513 73313800 		.ascii	"s18\000"
 5824 0517 0B       		.byte	0xb
 5825 0518 F8       		.byte	0xf8
 5826 0519 BF040000 		.4byte	0x4bf
 5827 051d 08       		.byte	0x8
 5828 051e 10       		.uleb128 0x10
 5829 051f 73313900 		.ascii	"s19\000"
 5830 0523 0B       		.byte	0xb
 5831 0524 F9       		.byte	0xf9
 5832 0525 BF040000 		.4byte	0x4bf
 5833 0529 0C       		.byte	0xc
 5834 052a 10       		.uleb128 0x10
 5835 052b 73323000 		.ascii	"s20\000"
 5836 052f 0B       		.byte	0xb
 5837 0530 FA       		.byte	0xfa
 5838 0531 BF040000 		.4byte	0x4bf
 5839 0535 10       		.byte	0x10
 5840 0536 10       		.uleb128 0x10
 5841 0537 73323100 		.ascii	"s21\000"
 5842 053b 0B       		.byte	0xb
 5843 053c FB       		.byte	0xfb
 5844 053d BF040000 		.4byte	0x4bf
 5845 0541 14       		.byte	0x14
 5846 0542 10       		.uleb128 0x10
 5847 0543 73323200 		.ascii	"s22\000"
 5848 0547 0B       		.byte	0xb
 5849 0548 FC       		.byte	0xfc
ARM GAS  /tmp/ccy8OeyM.s 			page 104


 5850 0549 BF040000 		.4byte	0x4bf
 5851 054d 18       		.byte	0x18
 5852 054e 10       		.uleb128 0x10
 5853 054f 73323300 		.ascii	"s23\000"
 5854 0553 0B       		.byte	0xb
 5855 0554 FD       		.byte	0xfd
 5856 0555 BF040000 		.4byte	0x4bf
 5857 0559 1C       		.byte	0x1c
 5858 055a 10       		.uleb128 0x10
 5859 055b 73323400 		.ascii	"s24\000"
 5860 055f 0B       		.byte	0xb
 5861 0560 FE       		.byte	0xfe
 5862 0561 BF040000 		.4byte	0x4bf
 5863 0565 20       		.byte	0x20
 5864 0566 10       		.uleb128 0x10
 5865 0567 73323500 		.ascii	"s25\000"
 5866 056b 0B       		.byte	0xb
 5867 056c FF       		.byte	0xff
 5868 056d BF040000 		.4byte	0x4bf
 5869 0571 24       		.byte	0x24
 5870 0572 08       		.uleb128 0x8
 5871 0573 73323600 		.ascii	"s26\000"
 5872 0577 0B       		.byte	0xb
 5873 0578 0001     		.2byte	0x100
 5874 057a BF040000 		.4byte	0x4bf
 5875 057e 28       		.byte	0x28
 5876 057f 08       		.uleb128 0x8
 5877 0580 73323700 		.ascii	"s27\000"
 5878 0584 0B       		.byte	0xb
 5879 0585 0101     		.2byte	0x101
 5880 0587 BF040000 		.4byte	0x4bf
 5881 058b 2C       		.byte	0x2c
 5882 058c 08       		.uleb128 0x8
 5883 058d 73323800 		.ascii	"s28\000"
 5884 0591 0B       		.byte	0xb
 5885 0592 0201     		.2byte	0x102
 5886 0594 BF040000 		.4byte	0x4bf
 5887 0598 30       		.byte	0x30
 5888 0599 08       		.uleb128 0x8
 5889 059a 73323900 		.ascii	"s29\000"
 5890 059e 0B       		.byte	0xb
 5891 059f 0301     		.2byte	0x103
 5892 05a1 BF040000 		.4byte	0x4bf
 5893 05a5 34       		.byte	0x34
 5894 05a6 08       		.uleb128 0x8
 5895 05a7 73333000 		.ascii	"s30\000"
 5896 05ab 0B       		.byte	0xb
 5897 05ac 0401     		.2byte	0x104
 5898 05ae BF040000 		.4byte	0x4bf
 5899 05b2 38       		.byte	0x38
 5900 05b3 08       		.uleb128 0x8
 5901 05b4 73333100 		.ascii	"s31\000"
 5902 05b8 0B       		.byte	0xb
 5903 05b9 0501     		.2byte	0x105
 5904 05bb BF040000 		.4byte	0x4bf
 5905 05bf 3C       		.byte	0x3c
 5906 05c0 08       		.uleb128 0x8
ARM GAS  /tmp/ccy8OeyM.s 			page 105


 5907 05c1 723400   		.ascii	"r4\000"
 5908 05c4 0B       		.byte	0xb
 5909 05c5 0701     		.2byte	0x107
 5910 05c7 BF040000 		.4byte	0x4bf
 5911 05cb 40       		.byte	0x40
 5912 05cc 08       		.uleb128 0x8
 5913 05cd 723500   		.ascii	"r5\000"
 5914 05d0 0B       		.byte	0xb
 5915 05d1 0801     		.2byte	0x108
 5916 05d3 BF040000 		.4byte	0x4bf
 5917 05d7 44       		.byte	0x44
 5918 05d8 08       		.uleb128 0x8
 5919 05d9 723600   		.ascii	"r6\000"
 5920 05dc 0B       		.byte	0xb
 5921 05dd 0901     		.2byte	0x109
 5922 05df BF040000 		.4byte	0x4bf
 5923 05e3 48       		.byte	0x48
 5924 05e4 08       		.uleb128 0x8
 5925 05e5 723700   		.ascii	"r7\000"
 5926 05e8 0B       		.byte	0xb
 5927 05e9 0A01     		.2byte	0x10a
 5928 05eb BF040000 		.4byte	0x4bf
 5929 05ef 4C       		.byte	0x4c
 5930 05f0 08       		.uleb128 0x8
 5931 05f1 723800   		.ascii	"r8\000"
 5932 05f4 0B       		.byte	0xb
 5933 05f5 0B01     		.2byte	0x10b
 5934 05f7 BF040000 		.4byte	0x4bf
 5935 05fb 50       		.byte	0x50
 5936 05fc 08       		.uleb128 0x8
 5937 05fd 723900   		.ascii	"r9\000"
 5938 0600 0B       		.byte	0xb
 5939 0601 0C01     		.2byte	0x10c
 5940 0603 BF040000 		.4byte	0x4bf
 5941 0607 54       		.byte	0x54
 5942 0608 08       		.uleb128 0x8
 5943 0609 72313000 		.ascii	"r10\000"
 5944 060d 0B       		.byte	0xb
 5945 060e 0D01     		.2byte	0x10d
 5946 0610 BF040000 		.4byte	0x4bf
 5947 0614 58       		.byte	0x58
 5948 0615 08       		.uleb128 0x8
 5949 0616 72313100 		.ascii	"r11\000"
 5950 061a 0B       		.byte	0xb
 5951 061b 0E01     		.2byte	0x10e
 5952 061d BF040000 		.4byte	0x4bf
 5953 0621 5C       		.byte	0x5c
 5954 0622 08       		.uleb128 0x8
 5955 0623 6C7200   		.ascii	"lr\000"
 5956 0626 0B       		.byte	0xb
 5957 0627 0F01     		.2byte	0x10f
 5958 0629 BF040000 		.4byte	0x4bf
 5959 062d 60       		.byte	0x60
 5960 062e 00       		.byte	0
 5961 062f 0A       		.uleb128 0xa
 5962 0630 04       		.byte	0x4
 5963 0631 EE040000 		.4byte	0x4ee
ARM GAS  /tmp/ccy8OeyM.s 			page 106


 5964 0635 11       		.uleb128 0x11
 5965 0636 04       		.byte	0x4
 5966 0637 0C       		.byte	0xc
 5967 0638 38       		.byte	0x38
 5968 0639 4A060000 		.4byte	0x64a
 5969 063d 07       		.uleb128 0x7
 5970 063e 591B0000 		.4byte	.LASF94
 5971 0642 0C       		.byte	0xc
 5972 0643 3C       		.byte	0x3c
 5973 0644 1C010000 		.4byte	0x11c
 5974 0648 00       		.byte	0
 5975 0649 00       		.byte	0
 5976 064a 04       		.uleb128 0x4
 5977 064b 9E1F0000 		.4byte	.LASF95
 5978 064f 0C       		.byte	0xc
 5979 0650 3D       		.byte	0x3d
 5980 0651 35060000 		.4byte	0x635
 5981 0655 12       		.uleb128 0x12
 5982 0656 04       		.byte	0x4
 5983 0657 09       		.byte	0x9
 5984 0658 FA       		.byte	0xfa
 5985 0659 B2060000 		.4byte	0x6b2
 5986 065d 13       		.uleb128 0x13
 5987 065e 2B0D0000 		.4byte	.LASF96
 5988 0662 09       		.byte	0x9
 5989 0663 0101     		.2byte	0x101
 5990 0665 5E010000 		.4byte	0x15e
 5991 0669 13       		.uleb128 0x13
 5992 066a 2B0B0000 		.4byte	.LASF97
 5993 066e 09       		.byte	0x9
 5994 066f 0801     		.2byte	0x108
 5995 0671 5E010000 		.4byte	0x15e
 5996 0675 13       		.uleb128 0x13
 5997 0676 95180000 		.4byte	.LASF98
 5998 067a 09       		.byte	0x9
 5999 067b 0F01     		.2byte	0x10f
 6000 067d 82030000 		.4byte	0x382
 6001 0681 13       		.uleb128 0x13
 6002 0682 58130000 		.4byte	.LASF99
 6003 0686 09       		.byte	0x9
 6004 0687 1601     		.2byte	0x116
 6005 0689 B2060000 		.4byte	0x6b2
 6006 068d 13       		.uleb128 0x13
 6007 068e 1C010000 		.4byte	.LASF100
 6008 0692 09       		.byte	0x9
 6009 0693 1E01     		.2byte	0x11e
 6010 0695 DD060000 		.4byte	0x6dd
 6011 0699 13       		.uleb128 0x13
 6012 069a DC180000 		.4byte	.LASF101
 6013 069e 09       		.byte	0x9
 6014 069f 2701     		.2byte	0x127
 6015 06a1 14070000 		.4byte	0x714
 6016 06a5 13       		.uleb128 0x13
 6017 06a6 E31B0000 		.4byte	.LASF102
 6018 06aa 09       		.byte	0x9
 6019 06ab 2F01     		.2byte	0x12f
 6020 06ad 69010000 		.4byte	0x169
ARM GAS  /tmp/ccy8OeyM.s 			page 107


 6021 06b1 00       		.byte	0
 6022 06b2 0A       		.uleb128 0xa
 6023 06b3 04       		.byte	0x4
 6024 06b4 9A020000 		.4byte	0x29a
 6025 06b8 06       		.uleb128 0x6
 6026 06b9 F2110000 		.4byte	.LASF103
 6027 06bd 0C       		.byte	0xc
 6028 06be 0D       		.byte	0xd
 6029 06bf 34       		.byte	0x34
 6030 06c0 DD060000 		.4byte	0x6dd
 6031 06c4 07       		.uleb128 0x7
 6032 06c5 B41D0000 		.4byte	.LASF104
 6033 06c9 0D       		.byte	0xd
 6034 06ca 35       		.byte	0x35
 6035 06cb CF020000 		.4byte	0x2cf
 6036 06cf 00       		.byte	0
 6037 06d0 07       		.uleb128 0x7
 6038 06d1 E9060000 		.4byte	.LASF105
 6039 06d5 0D       		.byte	0xd
 6040 06d6 37       		.byte	0x37
 6041 06d7 74010000 		.4byte	0x174
 6042 06db 08       		.byte	0x8
 6043 06dc 00       		.byte	0
 6044 06dd 0A       		.uleb128 0xa
 6045 06de 04       		.byte	0x4
 6046 06df B8060000 		.4byte	0x6b8
 6047 06e3 06       		.uleb128 0x6
 6048 06e4 E0080000 		.4byte	.LASF106
 6049 06e8 10       		.byte	0x10
 6050 06e9 0E       		.byte	0xe
 6051 06ea 39       		.byte	0x39
 6052 06eb 14070000 		.4byte	0x714
 6053 06ef 07       		.uleb128 0x7
 6054 06f0 FB120000 		.4byte	.LASF107
 6055 06f4 0E       		.byte	0xe
 6056 06f5 3A       		.byte	0x3a
 6057 06f6 CF020000 		.4byte	0x2cf
 6058 06fa 00       		.byte	0
 6059 06fb 07       		.uleb128 0x7
 6060 06fc 7D110000 		.4byte	.LASF108
 6061 0700 0E       		.byte	0xe
 6062 0701 3C       		.byte	0x3c
 6063 0702 A5020000 		.4byte	0x2a5
 6064 0706 08       		.byte	0x8
 6065 0707 07       		.uleb128 0x7
 6066 0708 75010000 		.4byte	.LASF109
 6067 070c 0E       		.byte	0xe
 6068 070d 3E       		.byte	0x3e
 6069 070e 62070000 		.4byte	0x762
 6070 0712 0C       		.byte	0xc
 6071 0713 00       		.byte	0
 6072 0714 0A       		.uleb128 0xa
 6073 0715 04       		.byte	0x4
 6074 0716 E3060000 		.4byte	0x6e3
 6075 071a 0A       		.uleb128 0xa
 6076 071b 04       		.byte	0x4
 6077 071c 20070000 		.4byte	0x720
ARM GAS  /tmp/ccy8OeyM.s 			page 108


 6078 0720 14       		.uleb128 0x14
 6079 0721 25070000 		.4byte	0x725
 6080 0725 02       		.uleb128 0x2
 6081 0726 01       		.byte	0x1
 6082 0727 08       		.byte	0x8
 6083 0728 76150000 		.4byte	.LASF110
 6084 072c 05       		.uleb128 0x5
 6085 072d 7F010000 		.4byte	0x17f
 6086 0731 0A       		.uleb128 0xa
 6087 0732 04       		.byte	0x4
 6088 0733 84030000 		.4byte	0x384
 6089 0737 05       		.uleb128 0x5
 6090 0738 1A070000 		.4byte	0x71a
 6091 073c 15       		.uleb128 0x15
 6092 073d CA040000 		.4byte	0x4ca
 6093 0741 4C070000 		.4byte	0x74c
 6094 0745 16       		.uleb128 0x16
 6095 0746 B8040000 		.4byte	0x4b8
 6096 074a 3A       		.byte	0x3a
 6097 074b 00       		.byte	0
 6098 074c 04       		.uleb128 0x4
 6099 074d E2050000 		.4byte	.LASF111
 6100 0751 0F       		.byte	0xf
 6101 0752 34       		.byte	0x34
 6102 0753 71030000 		.4byte	0x371
 6103 0757 04       		.uleb128 0x4
 6104 0758 121A0000 		.4byte	.LASF112
 6105 075c 0E       		.byte	0xe
 6106 075d 34       		.byte	0x34
 6107 075e E3060000 		.4byte	0x6e3
 6108 0762 0A       		.uleb128 0xa
 6109 0763 04       		.byte	0x4
 6110 0764 57070000 		.4byte	0x757
 6111 0768 0A       		.uleb128 0xa
 6112 0769 04       		.byte	0x4
 6113 076a CA000000 		.4byte	0xca
 6114 076e 0A       		.uleb128 0xa
 6115 076f 04       		.byte	0x4
 6116 0770 74070000 		.4byte	0x774
 6117 0774 14       		.uleb128 0x14
 6118 0775 CA000000 		.4byte	0xca
 6119 0779 17       		.uleb128 0x17
 6120 077a 01       		.byte	0x1
 6121 077b 10       		.byte	0x10
 6122 077c 28       		.byte	0x28
 6123 077d 94070000 		.4byte	0x794
 6124 0781 18       		.uleb128 0x18
 6125 0782 1E1D0000 		.4byte	.LASF113
 6126 0786 00       		.sleb128 0
 6127 0787 18       		.uleb128 0x18
 6128 0788 30150000 		.4byte	.LASF114
 6129 078c 01       		.sleb128 1
 6130 078d 18       		.uleb128 0x18
 6131 078e AF030000 		.4byte	.LASF115
 6132 0792 02       		.sleb128 2
 6133 0793 00       		.byte	0
 6134 0794 04       		.uleb128 0x4
ARM GAS  /tmp/ccy8OeyM.s 			page 109


 6135 0795 C0030000 		.4byte	.LASF116
 6136 0799 10       		.byte	0x10
 6137 079a 2C       		.byte	0x2c
 6138 079b 79070000 		.4byte	0x779
 6139 079f 17       		.uleb128 0x17
 6140 07a0 01       		.byte	0x1
 6141 07a1 10       		.byte	0x10
 6142 07a2 2E       		.byte	0x2e
 6143 07a3 B4070000 		.4byte	0x7b4
 6144 07a7 18       		.uleb128 0x18
 6145 07a8 32130000 		.4byte	.LASF117
 6146 07ac 00       		.sleb128 0
 6147 07ad 18       		.uleb128 0x18
 6148 07ae 19220000 		.4byte	.LASF118
 6149 07b2 01       		.sleb128 1
 6150 07b3 00       		.byte	0
 6151 07b4 04       		.uleb128 0x4
 6152 07b5 721C0000 		.4byte	.LASF119
 6153 07b9 10       		.byte	0x10
 6154 07ba 31       		.byte	0x31
 6155 07bb 9F070000 		.4byte	0x79f
 6156 07bf 17       		.uleb128 0x17
 6157 07c0 01       		.byte	0x1
 6158 07c1 10       		.byte	0x10
 6159 07c2 33       		.byte	0x33
 6160 07c3 DA070000 		.4byte	0x7da
 6161 07c7 18       		.uleb128 0x18
 6162 07c8 69190000 		.4byte	.LASF120
 6163 07cc 00       		.sleb128 0
 6164 07cd 18       		.uleb128 0x18
 6165 07ce 2A090000 		.4byte	.LASF121
 6166 07d2 01       		.sleb128 1
 6167 07d3 18       		.uleb128 0x18
 6168 07d4 DB090000 		.4byte	.LASF122
 6169 07d8 02       		.sleb128 2
 6170 07d9 00       		.byte	0
 6171 07da 04       		.uleb128 0x4
 6172 07db D8120000 		.4byte	.LASF123
 6173 07df 10       		.byte	0x10
 6174 07e0 37       		.byte	0x37
 6175 07e1 BF070000 		.4byte	0x7bf
 6176 07e5 17       		.uleb128 0x17
 6177 07e6 01       		.byte	0x1
 6178 07e7 10       		.byte	0x10
 6179 07e8 39       		.byte	0x39
 6180 07e9 00080000 		.4byte	0x800
 6181 07ed 18       		.uleb128 0x18
 6182 07ee 8B120000 		.4byte	.LASF124
 6183 07f2 00       		.sleb128 0
 6184 07f3 18       		.uleb128 0x18
 6185 07f4 8B050000 		.4byte	.LASF125
 6186 07f8 01       		.sleb128 1
 6187 07f9 18       		.uleb128 0x18
 6188 07fa 2D1B0000 		.4byte	.LASF126
 6189 07fe 02       		.sleb128 2
 6190 07ff 00       		.byte	0
 6191 0800 04       		.uleb128 0x4
ARM GAS  /tmp/ccy8OeyM.s 			page 110


 6192 0801 6A210000 		.4byte	.LASF127
 6193 0805 10       		.byte	0x10
 6194 0806 3D       		.byte	0x3d
 6195 0807 E5070000 		.4byte	0x7e5
 6196 080b 17       		.uleb128 0x17
 6197 080c 01       		.byte	0x1
 6198 080d 10       		.byte	0x10
 6199 080e 3F       		.byte	0x3f
 6200 080f 26080000 		.4byte	0x826
 6201 0813 18       		.uleb128 0x18
 6202 0814 E7210000 		.4byte	.LASF128
 6203 0818 00       		.sleb128 0
 6204 0819 18       		.uleb128 0x18
 6205 081a 260F0000 		.4byte	.LASF129
 6206 081e 01       		.sleb128 1
 6207 081f 18       		.uleb128 0x18
 6208 0820 BB0C0000 		.4byte	.LASF130
 6209 0824 02       		.sleb128 2
 6210 0825 00       		.byte	0
 6211 0826 04       		.uleb128 0x4
 6212 0827 E3180000 		.4byte	.LASF131
 6213 082b 10       		.byte	0x10
 6214 082c 43       		.byte	0x43
 6215 082d 0B080000 		.4byte	0x80b
 6216 0831 17       		.uleb128 0x17
 6217 0832 01       		.byte	0x1
 6218 0833 10       		.byte	0x10
 6219 0834 45       		.byte	0x45
 6220 0835 64080000 		.4byte	0x864
 6221 0839 18       		.uleb128 0x18
 6222 083a EA160000 		.4byte	.LASF132
 6223 083e 00       		.sleb128 0
 6224 083f 18       		.uleb128 0x18
 6225 0840 D60C0000 		.4byte	.LASF133
 6226 0844 01       		.sleb128 1
 6227 0845 18       		.uleb128 0x18
 6228 0846 62160000 		.4byte	.LASF134
 6229 084a 02       		.sleb128 2
 6230 084b 18       		.uleb128 0x18
 6231 084c 1A1B0000 		.4byte	.LASF135
 6232 0850 03       		.sleb128 3
 6233 0851 18       		.uleb128 0x18
 6234 0852 DA070000 		.4byte	.LASF136
 6235 0856 04       		.sleb128 4
 6236 0857 18       		.uleb128 0x18
 6237 0858 87030000 		.4byte	.LASF137
 6238 085c 05       		.sleb128 5
 6239 085d 18       		.uleb128 0x18
 6240 085e 11110000 		.4byte	.LASF138
 6241 0862 06       		.sleb128 6
 6242 0863 00       		.byte	0
 6243 0864 04       		.uleb128 0x4
 6244 0865 C71D0000 		.4byte	.LASF139
 6245 0869 10       		.byte	0x10
 6246 086a 4D       		.byte	0x4d
 6247 086b 31080000 		.4byte	0x831
 6248 086f 17       		.uleb128 0x17
ARM GAS  /tmp/ccy8OeyM.s 			page 111


 6249 0870 01       		.byte	0x1
 6250 0871 10       		.byte	0x10
 6251 0872 58       		.byte	0x58
 6252 0873 A2080000 		.4byte	0x8a2
 6253 0877 18       		.uleb128 0x18
 6254 0878 E9080000 		.4byte	.LASF140
 6255 087c 00       		.sleb128 0
 6256 087d 18       		.uleb128 0x18
 6257 087e 04020000 		.4byte	.LASF141
 6258 0882 01       		.sleb128 1
 6259 0883 18       		.uleb128 0x18
 6260 0884 9F080000 		.4byte	.LASF142
 6261 0888 02       		.sleb128 2
 6262 0889 18       		.uleb128 0x18
 6263 088a C2010000 		.4byte	.LASF143
 6264 088e 03       		.sleb128 3
 6265 088f 18       		.uleb128 0x18
 6266 0890 A50C0000 		.4byte	.LASF144
 6267 0894 04       		.sleb128 4
 6268 0895 18       		.uleb128 0x18
 6269 0896 020C0000 		.4byte	.LASF145
 6270 089a 05       		.sleb128 5
 6271 089b 18       		.uleb128 0x18
 6272 089c 51150000 		.4byte	.LASF146
 6273 08a0 06       		.sleb128 6
 6274 08a1 00       		.byte	0
 6275 08a2 04       		.uleb128 0x4
 6276 08a3 DD1C0000 		.4byte	.LASF147
 6277 08a7 10       		.byte	0x10
 6278 08a8 60       		.byte	0x60
 6279 08a9 6F080000 		.4byte	0x86f
 6280 08ad 17       		.uleb128 0x17
 6281 08ae 01       		.byte	0x1
 6282 08af 10       		.byte	0x10
 6283 08b0 62       		.byte	0x62
 6284 08b1 C8080000 		.4byte	0x8c8
 6285 08b5 18       		.uleb128 0x18
 6286 08b6 62120000 		.4byte	.LASF148
 6287 08ba 00       		.sleb128 0
 6288 08bb 18       		.uleb128 0x18
 6289 08bc 360A0000 		.4byte	.LASF149
 6290 08c0 01       		.sleb128 1
 6291 08c1 18       		.uleb128 0x18
 6292 08c2 890A0000 		.4byte	.LASF150
 6293 08c6 02       		.sleb128 2
 6294 08c7 00       		.byte	0
 6295 08c8 04       		.uleb128 0x4
 6296 08c9 45210000 		.4byte	.LASF151
 6297 08cd 10       		.byte	0x10
 6298 08ce 66       		.byte	0x66
 6299 08cf AD080000 		.4byte	0x8ad
 6300 08d3 19       		.uleb128 0x19
 6301 08d4 3401     		.2byte	0x134
 6302 08d6 10       		.byte	0x10
 6303 08d7 72       		.byte	0x72
 6304 08d8 9E0C0000 		.4byte	0xc9e
 6305 08dc 07       		.uleb128 0x7
ARM GAS  /tmp/ccy8OeyM.s 			page 112


 6306 08dd 5B0E0000 		.4byte	.LASF152
 6307 08e1 10       		.byte	0x10
 6308 08e2 74       		.byte	0x74
 6309 08e3 94070000 		.4byte	0x794
 6310 08e7 00       		.byte	0
 6311 08e8 07       		.uleb128 0x7
 6312 08e9 BB070000 		.4byte	.LASF153
 6313 08ed 10       		.byte	0x10
 6314 08ee 75       		.byte	0x75
 6315 08ef B4070000 		.4byte	0x7b4
 6316 08f3 01       		.byte	0x1
 6317 08f4 07       		.uleb128 0x7
 6318 08f5 820E0000 		.4byte	.LASF154
 6319 08f9 10       		.byte	0x10
 6320 08fa 76       		.byte	0x76
 6321 08fb 26080000 		.4byte	0x826
 6322 08ff 02       		.byte	0x2
 6323 0900 07       		.uleb128 0x7
 6324 0901 47190000 		.4byte	.LASF155
 6325 0905 10       		.byte	0x10
 6326 0906 77       		.byte	0x77
 6327 0907 DA070000 		.4byte	0x7da
 6328 090b 03       		.byte	0x3
 6329 090c 07       		.uleb128 0x7
 6330 090d D0110000 		.4byte	.LASF156
 6331 0911 10       		.byte	0x10
 6332 0912 79       		.byte	0x79
 6333 0913 25000000 		.4byte	0x25
 6334 0917 04       		.byte	0x4
 6335 0918 07       		.uleb128 0x7
 6336 0919 3D160000 		.4byte	.LASF157
 6337 091d 10       		.byte	0x10
 6338 091e 7A       		.byte	0x7a
 6339 091f 25000000 		.4byte	0x25
 6340 0923 08       		.byte	0x8
 6341 0924 07       		.uleb128 0x7
 6342 0925 161F0000 		.4byte	.LASF158
 6343 0929 10       		.byte	0x10
 6344 092a 7B       		.byte	0x7b
 6345 092b 25000000 		.4byte	0x25
 6346 092f 0C       		.byte	0xc
 6347 0930 07       		.uleb128 0x7
 6348 0931 97010000 		.4byte	.LASF159
 6349 0935 10       		.byte	0x10
 6350 0936 7C       		.byte	0x7c
 6351 0937 25000000 		.4byte	0x25
 6352 093b 10       		.byte	0x10
 6353 093c 07       		.uleb128 0x7
 6354 093d 3F000000 		.4byte	.LASF160
 6355 0941 10       		.byte	0x10
 6356 0942 7D       		.byte	0x7d
 6357 0943 25000000 		.4byte	0x25
 6358 0947 14       		.byte	0x14
 6359 0948 07       		.uleb128 0x7
 6360 0949 40020000 		.4byte	.LASF161
 6361 094d 10       		.byte	0x10
 6362 094e 7E       		.byte	0x7e
ARM GAS  /tmp/ccy8OeyM.s 			page 113


 6363 094f 25000000 		.4byte	0x25
 6364 0953 18       		.byte	0x18
 6365 0954 07       		.uleb128 0x7
 6366 0955 7A100000 		.4byte	.LASF162
 6367 0959 10       		.byte	0x10
 6368 095a 7F       		.byte	0x7f
 6369 095b 25000000 		.4byte	0x25
 6370 095f 1C       		.byte	0x1c
 6371 0960 07       		.uleb128 0x7
 6372 0961 2D000000 		.4byte	.LASF163
 6373 0965 10       		.byte	0x10
 6374 0966 80       		.byte	0x80
 6375 0967 25000000 		.4byte	0x25
 6376 096b 20       		.byte	0x20
 6377 096c 07       		.uleb128 0x7
 6378 096d 4E1E0000 		.4byte	.LASF164
 6379 0971 10       		.byte	0x10
 6380 0972 81       		.byte	0x81
 6381 0973 25000000 		.4byte	0x25
 6382 0977 24       		.byte	0x24
 6383 0978 07       		.uleb128 0x7
 6384 0979 1E0C0000 		.4byte	.LASF165
 6385 097d 10       		.byte	0x10
 6386 097e 82       		.byte	0x82
 6387 097f 25000000 		.4byte	0x25
 6388 0983 28       		.byte	0x28
 6389 0984 07       		.uleb128 0x7
 6390 0985 0F0B0000 		.4byte	.LASF166
 6391 0989 10       		.byte	0x10
 6392 098a 83       		.byte	0x83
 6393 098b 25000000 		.4byte	0x25
 6394 098f 2C       		.byte	0x2c
 6395 0990 07       		.uleb128 0x7
 6396 0991 EE0B0000 		.4byte	.LASF167
 6397 0995 10       		.byte	0x10
 6398 0996 84       		.byte	0x84
 6399 0997 25000000 		.4byte	0x25
 6400 099b 30       		.byte	0x30
 6401 099c 07       		.uleb128 0x7
 6402 099d EF130000 		.4byte	.LASF168
 6403 09a1 10       		.byte	0x10
 6404 09a2 85       		.byte	0x85
 6405 09a3 25000000 		.4byte	0x25
 6406 09a7 34       		.byte	0x34
 6407 09a8 07       		.uleb128 0x7
 6408 09a9 7C010000 		.4byte	.LASF169
 6409 09ad 10       		.byte	0x10
 6410 09ae 86       		.byte	0x86
 6411 09af 9E0C0000 		.4byte	0xc9e
 6412 09b3 38       		.byte	0x38
 6413 09b4 07       		.uleb128 0x7
 6414 09b5 C5070000 		.4byte	.LASF170
 6415 09b9 10       		.byte	0x10
 6416 09ba 87       		.byte	0x87
 6417 09bb 9E0C0000 		.4byte	0xc9e
 6418 09bf 39       		.byte	0x39
 6419 09c0 07       		.uleb128 0x7
ARM GAS  /tmp/ccy8OeyM.s 			page 114


 6420 09c1 57070000 		.4byte	.LASF171
 6421 09c5 10       		.byte	0x10
 6422 09c6 88       		.byte	0x88
 6423 09c7 25000000 		.4byte	0x25
 6424 09cb 3C       		.byte	0x3c
 6425 09cc 07       		.uleb128 0x7
 6426 09cd 1D030000 		.4byte	.LASF172
 6427 09d1 10       		.byte	0x10
 6428 09d2 89       		.byte	0x89
 6429 09d3 25000000 		.4byte	0x25
 6430 09d7 40       		.byte	0x40
 6431 09d8 07       		.uleb128 0x7
 6432 09d9 E5150000 		.4byte	.LASF173
 6433 09dd 10       		.byte	0x10
 6434 09de 8A       		.byte	0x8a
 6435 09df 25000000 		.4byte	0x25
 6436 09e3 44       		.byte	0x44
 6437 09e4 07       		.uleb128 0x7
 6438 09e5 36190000 		.4byte	.LASF174
 6439 09e9 10       		.byte	0x10
 6440 09ea 8B       		.byte	0x8b
 6441 09eb 25000000 		.4byte	0x25
 6442 09ef 48       		.byte	0x48
 6443 09f0 07       		.uleb128 0x7
 6444 09f1 1E210000 		.4byte	.LASF175
 6445 09f5 10       		.byte	0x10
 6446 09f6 8C       		.byte	0x8c
 6447 09f7 25000000 		.4byte	0x25
 6448 09fb 4C       		.byte	0x4c
 6449 09fc 07       		.uleb128 0x7
 6450 09fd 320D0000 		.4byte	.LASF176
 6451 0a01 10       		.byte	0x10
 6452 0a02 8D       		.byte	0x8d
 6453 0a03 25000000 		.4byte	0x25
 6454 0a07 50       		.byte	0x50
 6455 0a08 07       		.uleb128 0x7
 6456 0a09 F9090000 		.4byte	.LASF177
 6457 0a0d 10       		.byte	0x10
 6458 0a0e 8F       		.byte	0x8f
 6459 0a0f 25000000 		.4byte	0x25
 6460 0a13 54       		.byte	0x54
 6461 0a14 07       		.uleb128 0x7
 6462 0a15 8D0E0000 		.4byte	.LASF178
 6463 0a19 10       		.byte	0x10
 6464 0a1a 90       		.byte	0x90
 6465 0a1b 25000000 		.4byte	0x25
 6466 0a1f 58       		.byte	0x58
 6467 0a20 07       		.uleb128 0x7
 6468 0a21 9C1A0000 		.4byte	.LASF179
 6469 0a25 10       		.byte	0x10
 6470 0a26 91       		.byte	0x91
 6471 0a27 25000000 		.4byte	0x25
 6472 0a2b 5C       		.byte	0x5c
 6473 0a2c 07       		.uleb128 0x7
 6474 0a2d B81F0000 		.4byte	.LASF180
 6475 0a31 10       		.byte	0x10
 6476 0a32 92       		.byte	0x92
ARM GAS  /tmp/ccy8OeyM.s 			page 115


 6477 0a33 25000000 		.4byte	0x25
 6478 0a37 60       		.byte	0x60
 6479 0a38 07       		.uleb128 0x7
 6480 0a39 CA0C0000 		.4byte	.LASF181
 6481 0a3d 10       		.byte	0x10
 6482 0a3e 94       		.byte	0x94
 6483 0a3f 25000000 		.4byte	0x25
 6484 0a43 64       		.byte	0x64
 6485 0a44 07       		.uleb128 0x7
 6486 0a45 A7040000 		.4byte	.LASF182
 6487 0a49 10       		.byte	0x10
 6488 0a4a 95       		.byte	0x95
 6489 0a4b 25000000 		.4byte	0x25
 6490 0a4f 68       		.byte	0x68
 6491 0a50 07       		.uleb128 0x7
 6492 0a51 9C0E0000 		.4byte	.LASF183
 6493 0a55 10       		.byte	0x10
 6494 0a56 96       		.byte	0x96
 6495 0a57 25000000 		.4byte	0x25
 6496 0a5b 6C       		.byte	0x6c
 6497 0a5c 07       		.uleb128 0x7
 6498 0a5d AA0F0000 		.4byte	.LASF184
 6499 0a61 10       		.byte	0x10
 6500 0a62 97       		.byte	0x97
 6501 0a63 25000000 		.4byte	0x25
 6502 0a67 70       		.byte	0x70
 6503 0a68 07       		.uleb128 0x7
 6504 0a69 D30D0000 		.4byte	.LASF185
 6505 0a6d 10       		.byte	0x10
 6506 0a6e 98       		.byte	0x98
 6507 0a6f 25000000 		.4byte	0x25
 6508 0a73 74       		.byte	0x74
 6509 0a74 07       		.uleb128 0x7
 6510 0a75 361C0000 		.4byte	.LASF186
 6511 0a79 10       		.byte	0x10
 6512 0a7a 99       		.byte	0x99
 6513 0a7b 25000000 		.4byte	0x25
 6514 0a7f 78       		.byte	0x78
 6515 0a80 07       		.uleb128 0x7
 6516 0a81 83150000 		.4byte	.LASF187
 6517 0a85 10       		.byte	0x10
 6518 0a86 9A       		.byte	0x9a
 6519 0a87 25000000 		.4byte	0x25
 6520 0a8b 7C       		.byte	0x7c
 6521 0a8c 07       		.uleb128 0x7
 6522 0a8d 0B0F0000 		.4byte	.LASF188
 6523 0a91 10       		.byte	0x10
 6524 0a92 9C       		.byte	0x9c
 6525 0a93 A50C0000 		.4byte	0xca5
 6526 0a97 80       		.byte	0x80
 6527 0a98 07       		.uleb128 0x7
 6528 0a99 03170000 		.4byte	.LASF189
 6529 0a9d 10       		.byte	0x10
 6530 0a9e 9D       		.byte	0x9d
 6531 0a9f 25000000 		.4byte	0x25
 6532 0aa3 88       		.byte	0x88
 6533 0aa4 07       		.uleb128 0x7
ARM GAS  /tmp/ccy8OeyM.s 			page 116


 6534 0aa5 EB040000 		.4byte	.LASF190
 6535 0aa9 10       		.byte	0x10
 6536 0aaa 9F       		.byte	0x9f
 6537 0aab 25000000 		.4byte	0x25
 6538 0aaf 8C       		.byte	0x8c
 6539 0ab0 07       		.uleb128 0x7
 6540 0ab1 C3040000 		.4byte	.LASF191
 6541 0ab5 10       		.byte	0x10
 6542 0ab6 A0       		.byte	0xa0
 6543 0ab7 25000000 		.4byte	0x25
 6544 0abb 90       		.byte	0x90
 6545 0abc 07       		.uleb128 0x7
 6546 0abd 31070000 		.4byte	.LASF192
 6547 0ac1 10       		.byte	0x10
 6548 0ac2 A1       		.byte	0xa1
 6549 0ac3 25000000 		.4byte	0x25
 6550 0ac7 94       		.byte	0x94
 6551 0ac8 07       		.uleb128 0x7
 6552 0ac9 601B0000 		.4byte	.LASF193
 6553 0acd 10       		.byte	0x10
 6554 0ace A2       		.byte	0xa2
 6555 0acf 25000000 		.4byte	0x25
 6556 0ad3 98       		.byte	0x98
 6557 0ad4 07       		.uleb128 0x7
 6558 0ad5 68020000 		.4byte	.LASF194
 6559 0ad9 10       		.byte	0x10
 6560 0ada A3       		.byte	0xa3
 6561 0adb 25000000 		.4byte	0x25
 6562 0adf 9C       		.byte	0x9c
 6563 0ae0 07       		.uleb128 0x7
 6564 0ae1 080A0000 		.4byte	.LASF195
 6565 0ae5 10       		.byte	0x10
 6566 0ae6 A4       		.byte	0xa4
 6567 0ae7 9E0C0000 		.4byte	0xc9e
 6568 0aeb A0       		.byte	0xa0
 6569 0aec 07       		.uleb128 0x7
 6570 0aed BE130000 		.4byte	.LASF196
 6571 0af1 10       		.byte	0x10
 6572 0af2 A5       		.byte	0xa5
 6573 0af3 25000000 		.4byte	0x25
 6574 0af7 A4       		.byte	0xa4
 6575 0af8 07       		.uleb128 0x7
 6576 0af9 8F060000 		.4byte	.LASF197
 6577 0afd 10       		.byte	0x10
 6578 0afe A6       		.byte	0xa6
 6579 0aff 25000000 		.4byte	0x25
 6580 0b03 A8       		.byte	0xa8
 6581 0b04 07       		.uleb128 0x7
 6582 0b05 9B060000 		.4byte	.LASF198
 6583 0b09 10       		.byte	0x10
 6584 0b0a A7       		.byte	0xa7
 6585 0b0b 25000000 		.4byte	0x25
 6586 0b0f AC       		.byte	0xac
 6587 0b10 07       		.uleb128 0x7
 6588 0b11 8E0F0000 		.4byte	.LASF199
 6589 0b15 10       		.byte	0x10
 6590 0b16 A8       		.byte	0xa8
ARM GAS  /tmp/ccy8OeyM.s 			page 117


 6591 0b17 25000000 		.4byte	0x25
 6592 0b1b B0       		.byte	0xb0
 6593 0b1c 07       		.uleb128 0x7
 6594 0b1d F6070000 		.4byte	.LASF200
 6595 0b21 10       		.byte	0x10
 6596 0b22 A9       		.byte	0xa9
 6597 0b23 25000000 		.4byte	0x25
 6598 0b27 B4       		.byte	0xb4
 6599 0b28 07       		.uleb128 0x7
 6600 0b29 D5170000 		.4byte	.LASF201
 6601 0b2d 10       		.byte	0x10
 6602 0b2e AA       		.byte	0xaa
 6603 0b2f 25000000 		.4byte	0x25
 6604 0b33 B8       		.byte	0xb8
 6605 0b34 07       		.uleb128 0x7
 6606 0b35 CA170000 		.4byte	.LASF202
 6607 0b39 10       		.byte	0x10
 6608 0b3a AB       		.byte	0xab
 6609 0b3b 25000000 		.4byte	0x25
 6610 0b3f BC       		.byte	0xbc
 6611 0b40 07       		.uleb128 0x7
 6612 0b41 85110000 		.4byte	.LASF203
 6613 0b45 10       		.byte	0x10
 6614 0b46 AC       		.byte	0xac
 6615 0b47 25000000 		.4byte	0x25
 6616 0b4b C0       		.byte	0xc0
 6617 0b4c 07       		.uleb128 0x7
 6618 0b4d 53110000 		.4byte	.LASF204
 6619 0b51 10       		.byte	0x10
 6620 0b52 AD       		.byte	0xad
 6621 0b53 25000000 		.4byte	0x25
 6622 0b57 C4       		.byte	0xc4
 6623 0b58 07       		.uleb128 0x7
 6624 0b59 A1170000 		.4byte	.LASF205
 6625 0b5d 10       		.byte	0x10
 6626 0b5e AE       		.byte	0xae
 6627 0b5f 25000000 		.4byte	0x25
 6628 0b63 C8       		.byte	0xc8
 6629 0b64 07       		.uleb128 0x7
 6630 0b65 251A0000 		.4byte	.LASF206
 6631 0b69 10       		.byte	0x10
 6632 0b6a AF       		.byte	0xaf
 6633 0b6b 25000000 		.4byte	0x25
 6634 0b6f CC       		.byte	0xcc
 6635 0b70 07       		.uleb128 0x7
 6636 0b71 891F0000 		.4byte	.LASF207
 6637 0b75 10       		.byte	0x10
 6638 0b76 B0       		.byte	0xb0
 6639 0b77 25000000 		.4byte	0x25
 6640 0b7b D0       		.byte	0xd0
 6641 0b7c 07       		.uleb128 0x7
 6642 0b7d DF0E0000 		.4byte	.LASF208
 6643 0b81 10       		.byte	0x10
 6644 0b82 B1       		.byte	0xb1
 6645 0b83 25000000 		.4byte	0x25
 6646 0b87 D4       		.byte	0xd4
 6647 0b88 07       		.uleb128 0x7
ARM GAS  /tmp/ccy8OeyM.s 			page 118


 6648 0b89 B2170000 		.4byte	.LASF209
 6649 0b8d 10       		.byte	0x10
 6650 0b8e B2       		.byte	0xb2
 6651 0b8f 25000000 		.4byte	0x25
 6652 0b93 D8       		.byte	0xd8
 6653 0b94 07       		.uleb128 0x7
 6654 0b95 FD1A0000 		.4byte	.LASF210
 6655 0b99 10       		.byte	0x10
 6656 0b9a B3       		.byte	0xb3
 6657 0b9b 00080000 		.4byte	0x800
 6658 0b9f DC       		.byte	0xdc
 6659 0ba0 07       		.uleb128 0x7
 6660 0ba1 4E0C0000 		.4byte	.LASF211
 6661 0ba5 10       		.byte	0x10
 6662 0ba6 B4       		.byte	0xb4
 6663 0ba7 B50C0000 		.4byte	0xcb5
 6664 0bab DD       		.byte	0xdd
 6665 0bac 07       		.uleb128 0x7
 6666 0bad B10D0000 		.4byte	.LASF212
 6667 0bb1 10       		.byte	0x10
 6668 0bb2 B5       		.byte	0xb5
 6669 0bb3 25000000 		.4byte	0x25
 6670 0bb7 E8       		.byte	0xe8
 6671 0bb8 07       		.uleb128 0x7
 6672 0bb9 10170000 		.4byte	.LASF213
 6673 0bbd 10       		.byte	0x10
 6674 0bbe B7       		.byte	0xb7
 6675 0bbf 25000000 		.4byte	0x25
 6676 0bc3 EC       		.byte	0xec
 6677 0bc4 07       		.uleb128 0x7
 6678 0bc5 FA160000 		.4byte	.LASF214
 6679 0bc9 10       		.byte	0x10
 6680 0bca B8       		.byte	0xb8
 6681 0bcb 25000000 		.4byte	0x25
 6682 0bcf F0       		.byte	0xf0
 6683 0bd0 07       		.uleb128 0x7
 6684 0bd1 77060000 		.4byte	.LASF215
 6685 0bd5 10       		.byte	0x10
 6686 0bd6 B9       		.byte	0xb9
 6687 0bd7 25000000 		.4byte	0x25
 6688 0bdb F4       		.byte	0xf4
 6689 0bdc 07       		.uleb128 0x7
 6690 0bdd DA060000 		.4byte	.LASF216
 6691 0be1 10       		.byte	0x10
 6692 0be2 BA       		.byte	0xba
 6693 0be3 25000000 		.4byte	0x25
 6694 0be7 F8       		.byte	0xf8
 6695 0be8 07       		.uleb128 0x7
 6696 0be9 D9140000 		.4byte	.LASF217
 6697 0bed 10       		.byte	0x10
 6698 0bee BC       		.byte	0xbc
 6699 0bef 25000000 		.4byte	0x25
 6700 0bf3 FC       		.byte	0xfc
 6701 0bf4 1A       		.uleb128 0x1a
 6702 0bf5 BF140000 		.4byte	.LASF218
 6703 0bf9 10       		.byte	0x10
 6704 0bfa BD       		.byte	0xbd
ARM GAS  /tmp/ccy8OeyM.s 			page 119


 6705 0bfb 25000000 		.4byte	0x25
 6706 0bff 0001     		.2byte	0x100
 6707 0c01 1A       		.uleb128 0x1a
 6708 0c02 B6140000 		.4byte	.LASF219
 6709 0c06 10       		.byte	0x10
 6710 0c07 BE       		.byte	0xbe
 6711 0c08 25000000 		.4byte	0x25
 6712 0c0c 0401     		.2byte	0x104
 6713 0c0e 1A       		.uleb128 0x1a
 6714 0c0f 6D1F0000 		.4byte	.LASF220
 6715 0c13 10       		.byte	0x10
 6716 0c14 BF       		.byte	0xbf
 6717 0c15 25000000 		.4byte	0x25
 6718 0c19 0801     		.2byte	0x108
 6719 0c1b 1A       		.uleb128 0x1a
 6720 0c1c EE010000 		.4byte	.LASF221
 6721 0c20 10       		.byte	0x10
 6722 0c21 C1       		.byte	0xc1
 6723 0c22 25000000 		.4byte	0x25
 6724 0c26 0C01     		.2byte	0x10c
 6725 0c28 1A       		.uleb128 0x1a
 6726 0c29 1D0A0000 		.4byte	.LASF222
 6727 0c2d 10       		.byte	0x10
 6728 0c2e C2       		.byte	0xc2
 6729 0c2f 25000000 		.4byte	0x25
 6730 0c33 1001     		.2byte	0x110
 6731 0c35 1A       		.uleb128 0x1a
 6732 0c36 220E0000 		.4byte	.LASF223
 6733 0c3a 10       		.byte	0x10
 6734 0c3b C3       		.byte	0xc3
 6735 0c3c 25000000 		.4byte	0x25
 6736 0c40 1401     		.2byte	0x114
 6737 0c42 1A       		.uleb128 0x1a
 6738 0c43 89140000 		.4byte	.LASF224
 6739 0c47 10       		.byte	0x10
 6740 0c48 C4       		.byte	0xc4
 6741 0c49 25000000 		.4byte	0x25
 6742 0c4d 1801     		.2byte	0x118
 6743 0c4f 1A       		.uleb128 0x1a
 6744 0c50 2C060000 		.4byte	.LASF225
 6745 0c54 10       		.byte	0x10
 6746 0c55 C6       		.byte	0xc6
 6747 0c56 EB000000 		.4byte	0xeb
 6748 0c5a 1C01     		.2byte	0x11c
 6749 0c5c 1A       		.uleb128 0x1a
 6750 0c5d D51D0000 		.4byte	.LASF226
 6751 0c61 10       		.byte	0x10
 6752 0c62 C7       		.byte	0xc7
 6753 0c63 25000000 		.4byte	0x25
 6754 0c67 2001     		.2byte	0x120
 6755 0c69 1A       		.uleb128 0x1a
 6756 0c6a 2C030000 		.4byte	.LASF227
 6757 0c6e 10       		.byte	0x10
 6758 0c6f C8       		.byte	0xc8
 6759 0c70 25000000 		.4byte	0x25
 6760 0c74 2401     		.2byte	0x124
 6761 0c76 1A       		.uleb128 0x1a
ARM GAS  /tmp/ccy8OeyM.s 			page 120


 6762 0c77 EE0C0000 		.4byte	.LASF228
 6763 0c7b 10       		.byte	0x10
 6764 0c7c C9       		.byte	0xc9
 6765 0c7d 25000000 		.4byte	0x25
 6766 0c81 2801     		.2byte	0x128
 6767 0c83 1A       		.uleb128 0x1a
 6768 0c84 29220000 		.4byte	.LASF229
 6769 0c88 10       		.byte	0x10
 6770 0c89 CA       		.byte	0xca
 6771 0c8a F6000000 		.4byte	0xf6
 6772 0c8e 2C01     		.2byte	0x12c
 6773 0c90 1A       		.uleb128 0x1a
 6774 0c91 68070000 		.4byte	.LASF230
 6775 0c95 10       		.byte	0x10
 6776 0c96 CB       		.byte	0xcb
 6777 0c97 C8080000 		.4byte	0x8c8
 6778 0c9b 3001     		.2byte	0x130
 6779 0c9d 00       		.byte	0
 6780 0c9e 02       		.uleb128 0x2
 6781 0c9f 01       		.byte	0x1
 6782 0ca0 02       		.byte	0x2
 6783 0ca1 28010000 		.4byte	.LASF231
 6784 0ca5 15       		.uleb128 0x15
 6785 0ca6 BF000000 		.4byte	0xbf
 6786 0caa B50C0000 		.4byte	0xcb5
 6787 0cae 16       		.uleb128 0x16
 6788 0caf B8040000 		.4byte	0x4b8
 6789 0cb3 07       		.byte	0x7
 6790 0cb4 00       		.byte	0
 6791 0cb5 15       		.uleb128 0x15
 6792 0cb6 CA000000 		.4byte	0xca
 6793 0cba C50C0000 		.4byte	0xcc5
 6794 0cbe 16       		.uleb128 0x16
 6795 0cbf B8040000 		.4byte	0x4b8
 6796 0cc3 07       		.byte	0x7
 6797 0cc4 00       		.byte	0
 6798 0cc5 04       		.uleb128 0x4
 6799 0cc6 E61D0000 		.4byte	.LASF232
 6800 0cca 10       		.byte	0x10
 6801 0ccb CC       		.byte	0xcc
 6802 0ccc D3080000 		.4byte	0x8d3
 6803 0cd0 17       		.uleb128 0x17
 6804 0cd1 01       		.byte	0x1
 6805 0cd2 10       		.byte	0x10
 6806 0cd3 CF       		.byte	0xcf
 6807 0cd4 0F0D0000 		.4byte	0xd0f
 6808 0cd8 18       		.uleb128 0x18
 6809 0cd9 27150000 		.4byte	.LASF233
 6810 0cdd 00       		.sleb128 0
 6811 0cde 18       		.uleb128 0x18
 6812 0cdf 4B0B0000 		.4byte	.LASF234
 6813 0ce3 01       		.sleb128 1
 6814 0ce4 18       		.uleb128 0x18
 6815 0ce5 5A160000 		.4byte	.LASF235
 6816 0ce9 02       		.sleb128 2
 6817 0cea 18       		.uleb128 0x18
 6818 0ceb 9C180000 		.4byte	.LASF236
ARM GAS  /tmp/ccy8OeyM.s 			page 121


 6819 0cef 03       		.sleb128 3
 6820 0cf0 18       		.uleb128 0x18
 6821 0cf1 D8150000 		.4byte	.LASF237
 6822 0cf5 04       		.sleb128 4
 6823 0cf6 18       		.uleb128 0x18
 6824 0cf7 BB180000 		.4byte	.LASF238
 6825 0cfb 05       		.sleb128 5
 6826 0cfc 18       		.uleb128 0x18
 6827 0cfd F80A0000 		.4byte	.LASF239
 6828 0d01 06       		.sleb128 6
 6829 0d02 18       		.uleb128 0x18
 6830 0d03 52160000 		.4byte	.LASF240
 6831 0d07 07       		.sleb128 7
 6832 0d08 18       		.uleb128 0x18
 6833 0d09 E0170000 		.4byte	.LASF241
 6834 0d0d 08       		.sleb128 8
 6835 0d0e 00       		.byte	0
 6836 0d0f 04       		.uleb128 0x4
 6837 0d10 63040000 		.4byte	.LASF242
 6838 0d14 10       		.byte	0x10
 6839 0d15 D9       		.byte	0xd9
 6840 0d16 D00C0000 		.4byte	0xcd0
 6841 0d1a 17       		.uleb128 0x17
 6842 0d1b 01       		.byte	0x1
 6843 0d1c 10       		.byte	0x10
 6844 0d1d DC       		.byte	0xdc
 6845 0d1e 530D0000 		.4byte	0xd53
 6846 0d22 18       		.uleb128 0x18
 6847 0d23 51000000 		.4byte	.LASF243
 6848 0d27 00       		.sleb128 0
 6849 0d28 18       		.uleb128 0x18
 6850 0d29 6A0F0000 		.4byte	.LASF244
 6851 0d2d 01       		.sleb128 1
 6852 0d2e 18       		.uleb128 0x18
 6853 0d2f 29210000 		.4byte	.LASF245
 6854 0d33 02       		.sleb128 2
 6855 0d34 18       		.uleb128 0x18
 6856 0d35 FF110000 		.4byte	.LASF246
 6857 0d39 03       		.sleb128 3
 6858 0d3a 18       		.uleb128 0x18
 6859 0d3b 5F1C0000 		.4byte	.LASF247
 6860 0d3f 04       		.sleb128 4
 6861 0d40 18       		.uleb128 0x18
 6862 0d41 831A0000 		.4byte	.LASF248
 6863 0d45 05       		.sleb128 5
 6864 0d46 18       		.uleb128 0x18
 6865 0d47 46130000 		.4byte	.LASF249
 6866 0d4b 06       		.sleb128 6
 6867 0d4c 18       		.uleb128 0x18
 6868 0d4d BC050000 		.4byte	.LASF250
 6869 0d51 07       		.sleb128 7
 6870 0d52 00       		.byte	0
 6871 0d53 04       		.uleb128 0x4
 6872 0d54 C50B0000 		.4byte	.LASF251
 6873 0d58 10       		.byte	0x10
 6874 0d59 E5       		.byte	0xe5
 6875 0d5a 1A0D0000 		.4byte	0xd1a
ARM GAS  /tmp/ccy8OeyM.s 			page 122


 6876 0d5e 11       		.uleb128 0x11
 6877 0d5f 28       		.byte	0x28
 6878 0d60 10       		.byte	0x10
 6879 0d61 E7       		.byte	0xe7
 6880 0d62 F60D0000 		.4byte	0xdf6
 6881 0d66 07       		.uleb128 0x7
 6882 0d67 23000000 		.4byte	.LASF252
 6883 0d6b 10       		.byte	0x10
 6884 0d6c E8       		.byte	0xe8
 6885 0d6d 530D0000 		.4byte	0xd53
 6886 0d71 00       		.byte	0
 6887 0d72 07       		.uleb128 0x7
 6888 0d73 921E0000 		.4byte	.LASF253
 6889 0d77 10       		.byte	0x10
 6890 0d78 E9       		.byte	0xe9
 6891 0d79 25000000 		.4byte	0x25
 6892 0d7d 04       		.byte	0x4
 6893 0d7e 07       		.uleb128 0x7
 6894 0d7f 23010000 		.4byte	.LASF254
 6895 0d83 10       		.byte	0x10
 6896 0d84 EA       		.byte	0xea
 6897 0d85 25000000 		.4byte	0x25
 6898 0d89 08       		.byte	0x8
 6899 0d8a 07       		.uleb128 0x7
 6900 0d8b CA1F0000 		.4byte	.LASF255
 6901 0d8f 10       		.byte	0x10
 6902 0d90 EB       		.byte	0xeb
 6903 0d91 25000000 		.4byte	0x25
 6904 0d95 0C       		.byte	0xc
 6905 0d96 07       		.uleb128 0x7
 6906 0d97 2C0A0000 		.4byte	.LASF256
 6907 0d9b 10       		.byte	0x10
 6908 0d9c EC       		.byte	0xec
 6909 0d9d 25000000 		.4byte	0x25
 6910 0da1 10       		.byte	0x10
 6911 0da2 07       		.uleb128 0x7
 6912 0da3 3A070000 		.4byte	.LASF257
 6913 0da7 10       		.byte	0x10
 6914 0da8 ED       		.byte	0xed
 6915 0da9 9E0C0000 		.4byte	0xc9e
 6916 0dad 14       		.byte	0x14
 6917 0dae 07       		.uleb128 0x7
 6918 0daf 3A1A0000 		.4byte	.LASF258
 6919 0db3 10       		.byte	0x10
 6920 0db4 EE       		.byte	0xee
 6921 0db5 9E0C0000 		.4byte	0xc9e
 6922 0db9 15       		.byte	0x15
 6923 0dba 07       		.uleb128 0x7
 6924 0dbb 11040000 		.4byte	.LASF259
 6925 0dbf 10       		.byte	0x10
 6926 0dc0 EF       		.byte	0xef
 6927 0dc1 25000000 		.4byte	0x25
 6928 0dc5 18       		.byte	0x18
 6929 0dc6 07       		.uleb128 0x7
 6930 0dc7 47110000 		.4byte	.LASF260
 6931 0dcb 10       		.byte	0x10
 6932 0dcc F0       		.byte	0xf0
ARM GAS  /tmp/ccy8OeyM.s 			page 123


 6933 0dcd 25000000 		.4byte	0x25
 6934 0dd1 1C       		.byte	0x1c
 6935 0dd2 07       		.uleb128 0x7
 6936 0dd3 A5020000 		.4byte	.LASF261
 6937 0dd7 10       		.byte	0x10
 6938 0dd8 F1       		.byte	0xf1
 6939 0dd9 9E0C0000 		.4byte	0xc9e
 6940 0ddd 20       		.byte	0x20
 6941 0dde 10       		.uleb128 0x10
 6942 0ddf 746300   		.ascii	"tc\000"
 6943 0de2 10       		.byte	0x10
 6944 0de3 F2       		.byte	0xf2
 6945 0de4 9E0C0000 		.4byte	0xc9e
 6946 0de8 21       		.byte	0x21
 6947 0de9 07       		.uleb128 0x7
 6948 0dea DF040000 		.4byte	.LASF262
 6949 0dee 10       		.byte	0x10
 6950 0def F3       		.byte	0xf3
 6951 0df0 25000000 		.4byte	0x25
 6952 0df4 24       		.byte	0x24
 6953 0df5 00       		.byte	0
 6954 0df6 04       		.uleb128 0x4
 6955 0df7 A3050000 		.4byte	.LASF263
 6956 0dfb 10       		.byte	0x10
 6957 0dfc F4       		.byte	0xf4
 6958 0dfd 5E0D0000 		.4byte	0xd5e
 6959 0e01 17       		.uleb128 0x17
 6960 0e02 01       		.byte	0x1
 6961 0e03 10       		.byte	0x10
 6962 0e04 F7       		.byte	0xf7
 6963 0e05 460E0000 		.4byte	0xe46
 6964 0e09 18       		.uleb128 0x18
 6965 0e0a F8190000 		.4byte	.LASF264
 6966 0e0e 00       		.sleb128 0
 6967 0e0f 18       		.uleb128 0x18
 6968 0e10 2D1E0000 		.4byte	.LASF265
 6969 0e14 01       		.sleb128 1
 6970 0e15 18       		.uleb128 0x18
 6971 0e16 4B0A0000 		.4byte	.LASF266
 6972 0e1a 02       		.sleb128 2
 6973 0e1b 18       		.uleb128 0x18
 6974 0e1c 3F090000 		.4byte	.LASF267
 6975 0e20 03       		.sleb128 3
 6976 0e21 18       		.uleb128 0x18
 6977 0e22 EA0D0000 		.4byte	.LASF268
 6978 0e26 04       		.sleb128 4
 6979 0e27 18       		.uleb128 0x18
 6980 0e28 B7020000 		.4byte	.LASF269
 6981 0e2c 05       		.sleb128 5
 6982 0e2d 18       		.uleb128 0x18
 6983 0e2e 97210000 		.4byte	.LASF270
 6984 0e32 06       		.sleb128 6
 6985 0e33 18       		.uleb128 0x18
 6986 0e34 64140000 		.4byte	.LASF271
 6987 0e38 07       		.sleb128 7
 6988 0e39 18       		.uleb128 0x18
 6989 0e3a A70B0000 		.4byte	.LASF272
ARM GAS  /tmp/ccy8OeyM.s 			page 124


 6990 0e3e 08       		.sleb128 8
 6991 0e3f 18       		.uleb128 0x18
 6992 0e40 640E0000 		.4byte	.LASF273
 6993 0e44 09       		.sleb128 9
 6994 0e45 00       		.byte	0
 6995 0e46 1B       		.uleb128 0x1b
 6996 0e47 D9160000 		.4byte	.LASF274
 6997 0e4b 10       		.byte	0x10
 6998 0e4c 0201     		.2byte	0x102
 6999 0e4e 010E0000 		.4byte	0xe01
 7000 0e52 1C       		.uleb128 0x1c
 7001 0e53 2C       		.byte	0x2c
 7002 0e54 10       		.byte	0x10
 7003 0e55 0401     		.2byte	0x104
 7004 0e57 1E0F0000 		.4byte	0xf1e
 7005 0e5b 09       		.uleb128 0x9
 7006 0e5c 23000000 		.4byte	.LASF252
 7007 0e60 10       		.byte	0x10
 7008 0e61 0501     		.2byte	0x105
 7009 0e63 460E0000 		.4byte	0xe46
 7010 0e67 00       		.byte	0
 7011 0e68 09       		.uleb128 0x9
 7012 0e69 23010000 		.4byte	.LASF254
 7013 0e6d 10       		.byte	0x10
 7014 0e6e 0601     		.2byte	0x106
 7015 0e70 25000000 		.4byte	0x25
 7016 0e74 04       		.byte	0x4
 7017 0e75 09       		.uleb128 0x9
 7018 0e76 D4050000 		.4byte	.LASF275
 7019 0e7a 10       		.byte	0x10
 7020 0e7b 0701     		.2byte	0x107
 7021 0e7d 25000000 		.4byte	0x25
 7022 0e81 08       		.byte	0x8
 7023 0e82 09       		.uleb128 0x9
 7024 0e83 45150000 		.4byte	.LASF276
 7025 0e87 10       		.byte	0x10
 7026 0e88 0801     		.2byte	0x108
 7027 0e8a 25000000 		.4byte	0x25
 7028 0e8e 0C       		.byte	0xc
 7029 0e8f 09       		.uleb128 0x9
 7030 0e90 BC1D0000 		.4byte	.LASF277
 7031 0e94 10       		.byte	0x10
 7032 0e95 0901     		.2byte	0x109
 7033 0e97 9E0C0000 		.4byte	0xc9e
 7034 0e9b 10       		.byte	0x10
 7035 0e9c 09       		.uleb128 0x9
 7036 0e9d 3A1A0000 		.4byte	.LASF258
 7037 0ea1 10       		.byte	0x10
 7038 0ea2 0A01     		.2byte	0x10a
 7039 0ea4 9E0C0000 		.4byte	0xc9e
 7040 0ea8 11       		.byte	0x11
 7041 0ea9 09       		.uleb128 0x9
 7042 0eaa 2E010000 		.4byte	.LASF278
 7043 0eae 10       		.byte	0x10
 7044 0eaf 0B01     		.2byte	0x10b
 7045 0eb1 9E0C0000 		.4byte	0xc9e
 7046 0eb5 12       		.byte	0x12
ARM GAS  /tmp/ccy8OeyM.s 			page 125


 7047 0eb6 09       		.uleb128 0x9
 7048 0eb7 F1180000 		.4byte	.LASF279
 7049 0ebb 10       		.byte	0x10
 7050 0ebc 0C01     		.2byte	0x10c
 7051 0ebe 9E0C0000 		.4byte	0xc9e
 7052 0ec2 13       		.byte	0x13
 7053 0ec3 09       		.uleb128 0x9
 7054 0ec4 5A010000 		.4byte	.LASF280
 7055 0ec8 10       		.byte	0x10
 7056 0ec9 0D01     		.2byte	0x10d
 7057 0ecb 9E0C0000 		.4byte	0xc9e
 7058 0ecf 14       		.byte	0x14
 7059 0ed0 09       		.uleb128 0x9
 7060 0ed1 11040000 		.4byte	.LASF259
 7061 0ed5 10       		.byte	0x10
 7062 0ed6 0E01     		.2byte	0x10e
 7063 0ed8 25000000 		.4byte	0x25
 7064 0edc 18       		.byte	0x18
 7065 0edd 09       		.uleb128 0x9
 7066 0ede 47110000 		.4byte	.LASF260
 7067 0ee2 10       		.byte	0x10
 7068 0ee3 0F01     		.2byte	0x10f
 7069 0ee5 25000000 		.4byte	0x25
 7070 0ee9 1C       		.byte	0x1c
 7071 0eea 09       		.uleb128 0x9
 7072 0eeb A5020000 		.4byte	.LASF261
 7073 0eef 10       		.byte	0x10
 7074 0ef0 1001     		.2byte	0x110
 7075 0ef2 9E0C0000 		.4byte	0xc9e
 7076 0ef6 20       		.byte	0x20
 7077 0ef7 08       		.uleb128 0x8
 7078 0ef8 746300   		.ascii	"tc\000"
 7079 0efb 10       		.byte	0x10
 7080 0efc 1101     		.2byte	0x111
 7081 0efe 9E0C0000 		.4byte	0xc9e
 7082 0f02 21       		.byte	0x21
 7083 0f03 09       		.uleb128 0x9
 7084 0f04 DF040000 		.4byte	.LASF262
 7085 0f08 10       		.byte	0x10
 7086 0f09 1201     		.2byte	0x112
 7087 0f0b 25000000 		.4byte	0x25
 7088 0f0f 24       		.byte	0x24
 7089 0f10 09       		.uleb128 0x9
 7090 0f11 97070000 		.4byte	.LASF281
 7091 0f15 10       		.byte	0x10
 7092 0f16 1301     		.2byte	0x113
 7093 0f18 F6000000 		.4byte	0xf6
 7094 0f1c 28       		.byte	0x28
 7095 0f1d 00       		.byte	0
 7096 0f1e 1B       		.uleb128 0x1b
 7097 0f1f 1B060000 		.4byte	.LASF282
 7098 0f23 10       		.byte	0x10
 7099 0f24 1401     		.2byte	0x114
 7100 0f26 520E0000 		.4byte	0xe52
 7101 0f2a 1D       		.uleb128 0x1d
 7102 0f2b 01       		.byte	0x1
 7103 0f2c 10       		.byte	0x10
ARM GAS  /tmp/ccy8OeyM.s 			page 126


 7104 0f2d 1701     		.2byte	0x117
 7105 0f2f 460F0000 		.4byte	0xf46
 7106 0f33 18       		.uleb128 0x18
 7107 0f34 3E120000 		.4byte	.LASF283
 7108 0f38 00       		.sleb128 0
 7109 0f39 18       		.uleb128 0x18
 7110 0f3a 00000000 		.4byte	.LASF284
 7111 0f3e 01       		.sleb128 1
 7112 0f3f 18       		.uleb128 0x18
 7113 0f40 21120000 		.4byte	.LASF285
 7114 0f44 02       		.sleb128 2
 7115 0f45 00       		.byte	0
 7116 0f46 1B       		.uleb128 0x1b
 7117 0f47 AD120000 		.4byte	.LASF286
 7118 0f4b 10       		.byte	0x10
 7119 0f4c 1B01     		.2byte	0x11b
 7120 0f4e 2A0F0000 		.4byte	0xf2a
 7121 0f52 1C       		.uleb128 0x1c
 7122 0f53 24       		.byte	0x24
 7123 0f54 10       		.byte	0x10
 7124 0f55 1D01     		.2byte	0x11d
 7125 0f57 DD0F0000 		.4byte	0xfdd
 7126 0f5b 09       		.uleb128 0x9
 7127 0f5c 23000000 		.4byte	.LASF252
 7128 0f60 10       		.byte	0x10
 7129 0f61 1E01     		.2byte	0x11e
 7130 0f63 460F0000 		.4byte	0xf46
 7131 0f67 00       		.byte	0
 7132 0f68 09       		.uleb128 0x9
 7133 0f69 23010000 		.4byte	.LASF254
 7134 0f6d 10       		.byte	0x10
 7135 0f6e 1F01     		.2byte	0x11f
 7136 0f70 25000000 		.4byte	0x25
 7137 0f74 04       		.byte	0x4
 7138 0f75 09       		.uleb128 0x9
 7139 0f76 11040000 		.4byte	.LASF259
 7140 0f7a 10       		.byte	0x10
 7141 0f7b 2001     		.2byte	0x120
 7142 0f7d 25000000 		.4byte	0x25
 7143 0f81 08       		.byte	0x8
 7144 0f82 09       		.uleb128 0x9
 7145 0f83 47110000 		.4byte	.LASF260
 7146 0f87 10       		.byte	0x10
 7147 0f88 2101     		.2byte	0x121
 7148 0f8a 25000000 		.4byte	0x25
 7149 0f8e 0C       		.byte	0xc
 7150 0f8f 09       		.uleb128 0x9
 7151 0f90 96150000 		.4byte	.LASF287
 7152 0f94 10       		.byte	0x10
 7153 0f95 2201     		.2byte	0x122
 7154 0f97 25000000 		.4byte	0x25
 7155 0f9b 10       		.byte	0x10
 7156 0f9c 09       		.uleb128 0x9
 7157 0f9d 77090000 		.4byte	.LASF288
 7158 0fa1 10       		.byte	0x10
 7159 0fa2 2301     		.2byte	0x123
 7160 0fa4 25000000 		.4byte	0x25
ARM GAS  /tmp/ccy8OeyM.s 			page 127


 7161 0fa8 14       		.byte	0x14
 7162 0fa9 09       		.uleb128 0x9
 7163 0faa 08080000 		.4byte	.LASF289
 7164 0fae 10       		.byte	0x10
 7165 0faf 2401     		.2byte	0x124
 7166 0fb1 25000000 		.4byte	0x25
 7167 0fb5 18       		.byte	0x18
 7168 0fb6 09       		.uleb128 0x9
 7169 0fb7 A5020000 		.4byte	.LASF261
 7170 0fbb 10       		.byte	0x10
 7171 0fbc 2501     		.2byte	0x125
 7172 0fbe 9E0C0000 		.4byte	0xc9e
 7173 0fc2 1C       		.byte	0x1c
 7174 0fc3 08       		.uleb128 0x8
 7175 0fc4 746300   		.ascii	"tc\000"
 7176 0fc7 10       		.byte	0x10
 7177 0fc8 2601     		.2byte	0x126
 7178 0fca 9E0C0000 		.4byte	0xc9e
 7179 0fce 1D       		.byte	0x1d
 7180 0fcf 09       		.uleb128 0x9
 7181 0fd0 DF040000 		.4byte	.LASF262
 7182 0fd4 10       		.byte	0x10
 7183 0fd5 2701     		.2byte	0x127
 7184 0fd7 25000000 		.4byte	0x25
 7185 0fdb 20       		.byte	0x20
 7186 0fdc 00       		.byte	0
 7187 0fdd 1B       		.uleb128 0x1b
 7188 0fde EC190000 		.4byte	.LASF290
 7189 0fe2 10       		.byte	0x10
 7190 0fe3 2801     		.2byte	0x128
 7191 0fe5 520F0000 		.4byte	0xf52
 7192 0fe9 1D       		.uleb128 0x1d
 7193 0fea 01       		.byte	0x1
 7194 0feb 10       		.byte	0x10
 7195 0fec 2B01     		.2byte	0x12b
 7196 0fee 05100000 		.4byte	0x1005
 7197 0ff2 18       		.uleb128 0x18
 7198 0ff3 E3110000 		.4byte	.LASF291
 7199 0ff7 00       		.sleb128 0
 7200 0ff8 18       		.uleb128 0x18
 7201 0ff9 56170000 		.4byte	.LASF292
 7202 0ffd 01       		.sleb128 1
 7203 0ffe 18       		.uleb128 0x18
 7204 0fff 76180000 		.4byte	.LASF293
 7205 1003 02       		.sleb128 2
 7206 1004 00       		.byte	0
 7207 1005 1B       		.uleb128 0x1b
 7208 1006 6D090000 		.4byte	.LASF294
 7209 100a 10       		.byte	0x10
 7210 100b 2F01     		.2byte	0x12f
 7211 100d E90F0000 		.4byte	0xfe9
 7212 1011 1D       		.uleb128 0x1d
 7213 1012 01       		.byte	0x1
 7214 1013 10       		.byte	0x10
 7215 1014 3101     		.2byte	0x131
 7216 1016 33100000 		.4byte	0x1033
 7217 101a 18       		.uleb128 0x18
ARM GAS  /tmp/ccy8OeyM.s 			page 128


 7218 101b B1010000 		.4byte	.LASF295
 7219 101f 00       		.sleb128 0
 7220 1020 18       		.uleb128 0x18
 7221 1021 07050000 		.4byte	.LASF296
 7222 1025 01       		.sleb128 1
 7223 1026 18       		.uleb128 0x18
 7224 1027 17070000 		.4byte	.LASF297
 7225 102b 02       		.sleb128 2
 7226 102c 18       		.uleb128 0x18
 7227 102d F5020000 		.4byte	.LASF298
 7228 1031 03       		.sleb128 3
 7229 1032 00       		.byte	0
 7230 1033 1B       		.uleb128 0x1b
 7231 1034 01140000 		.4byte	.LASF299
 7232 1038 10       		.byte	0x10
 7233 1039 3601     		.2byte	0x136
 7234 103b 11100000 		.4byte	0x1011
 7235 103f 1D       		.uleb128 0x1d
 7236 1040 01       		.byte	0x1
 7237 1041 10       		.byte	0x10
 7238 1042 3E01     		.2byte	0x13e
 7239 1044 5B100000 		.4byte	0x105b
 7240 1048 18       		.uleb128 0x18
 7241 1049 C8140000 		.4byte	.LASF300
 7242 104d 00       		.sleb128 0
 7243 104e 18       		.uleb128 0x18
 7244 104f 431E0000 		.4byte	.LASF301
 7245 1053 01       		.sleb128 1
 7246 1054 18       		.uleb128 0x18
 7247 1055 E31E0000 		.4byte	.LASF302
 7248 1059 02       		.sleb128 2
 7249 105a 00       		.byte	0
 7250 105b 1B       		.uleb128 0x1b
 7251 105c 7B050000 		.4byte	.LASF303
 7252 1060 10       		.byte	0x10
 7253 1061 4201     		.2byte	0x142
 7254 1063 3F100000 		.4byte	0x103f
 7255 1067 1D       		.uleb128 0x1d
 7256 1068 01       		.byte	0x1
 7257 1069 10       		.byte	0x10
 7258 106a 4401     		.2byte	0x144
 7259 106c D1100000 		.4byte	0x10d1
 7260 1070 18       		.uleb128 0x18
 7261 1071 68110000 		.4byte	.LASF304
 7262 1075 00       		.sleb128 0
 7263 1076 18       		.uleb128 0x18
 7264 1077 E0020000 		.4byte	.LASF305
 7265 107b 01       		.sleb128 1
 7266 107c 18       		.uleb128 0x18
 7267 107d F1000000 		.4byte	.LASF306
 7268 1081 02       		.sleb128 2
 7269 1082 18       		.uleb128 0x18
 7270 1083 8A1D0000 		.4byte	.LASF307
 7271 1087 03       		.sleb128 3
 7272 1088 18       		.uleb128 0x18
 7273 1089 001F0000 		.4byte	.LASF308
 7274 108d 04       		.sleb128 4
ARM GAS  /tmp/ccy8OeyM.s 			page 129


 7275 108e 18       		.uleb128 0x18
 7276 108f 2A0E0000 		.4byte	.LASF309
 7277 1093 05       		.sleb128 5
 7278 1094 18       		.uleb128 0x18
 7279 1095 340F0000 		.4byte	.LASF310
 7280 1099 06       		.sleb128 6
 7281 109a 18       		.uleb128 0x18
 7282 109b 961C0000 		.4byte	.LASF311
 7283 109f 07       		.sleb128 7
 7284 10a0 18       		.uleb128 0x18
 7285 10a1 631E0000 		.4byte	.LASF312
 7286 10a5 08       		.sleb128 8
 7287 10a6 18       		.uleb128 0x18
 7288 10a7 280C0000 		.4byte	.LASF313
 7289 10ab 09       		.sleb128 9
 7290 10ac 18       		.uleb128 0x18
 7291 10ad F50E0000 		.4byte	.LASF314
 7292 10b1 0A       		.sleb128 10
 7293 10b2 18       		.uleb128 0x18
 7294 10b3 161C0000 		.4byte	.LASF315
 7295 10b7 0B       		.sleb128 11
 7296 10b8 18       		.uleb128 0x18
 7297 10b9 F71D0000 		.4byte	.LASF316
 7298 10bd 0C       		.sleb128 12
 7299 10be 18       		.uleb128 0x18
 7300 10bf 9B0D0000 		.4byte	.LASF317
 7301 10c3 0D       		.sleb128 13
 7302 10c4 18       		.uleb128 0x18
 7303 10c5 AE150000 		.4byte	.LASF318
 7304 10c9 0E       		.sleb128 14
 7305 10ca 18       		.uleb128 0x18
 7306 10cb 59080000 		.4byte	.LASF319
 7307 10cf 0F       		.sleb128 15
 7308 10d0 00       		.byte	0
 7309 10d1 1B       		.uleb128 0x1b
 7310 10d2 A0030000 		.4byte	.LASF320
 7311 10d6 10       		.byte	0x10
 7312 10d7 5501     		.2byte	0x155
 7313 10d9 67100000 		.4byte	0x1067
 7314 10dd 1C       		.uleb128 0x1c
 7315 10de 0A       		.byte	0xa
 7316 10df 10       		.byte	0x10
 7317 10e0 5701     		.2byte	0x157
 7318 10e2 4F110000 		.4byte	0x114f
 7319 10e6 09       		.uleb128 0x9
 7320 10e7 80190000 		.4byte	.LASF321
 7321 10eb 10       		.byte	0x10
 7322 10ec 5801     		.2byte	0x158
 7323 10ee 05100000 		.4byte	0x1005
 7324 10f2 00       		.byte	0
 7325 10f3 09       		.uleb128 0x9
 7326 10f4 04150000 		.4byte	.LASF322
 7327 10f8 10       		.byte	0x10
 7328 10f9 5901     		.2byte	0x159
 7329 10fb 33100000 		.4byte	0x1033
 7330 10ff 01       		.byte	0x1
 7331 1100 09       		.uleb128 0x9
ARM GAS  /tmp/ccy8OeyM.s 			page 130


 7332 1101 78120000 		.4byte	.LASF323
 7333 1105 10       		.byte	0x10
 7334 1106 5A01     		.2byte	0x15a
 7335 1108 5B100000 		.4byte	0x105b
 7336 110c 02       		.byte	0x2
 7337 110d 09       		.uleb128 0x9
 7338 110e C11E0000 		.4byte	.LASF324
 7339 1112 10       		.byte	0x10
 7340 1113 5B01     		.2byte	0x15b
 7341 1115 D1100000 		.4byte	0x10d1
 7342 1119 03       		.byte	0x3
 7343 111a 09       		.uleb128 0x9
 7344 111b AF020000 		.4byte	.LASF325
 7345 111f 10       		.byte	0x10
 7346 1120 5C01     		.2byte	0x15c
 7347 1122 50000000 		.4byte	0x50
 7348 1126 04       		.byte	0x4
 7349 1127 09       		.uleb128 0x9
 7350 1128 1A0E0000 		.4byte	.LASF326
 7351 112c 10       		.byte	0x10
 7352 112d 5D01     		.2byte	0x15d
 7353 112f 50000000 		.4byte	0x50
 7354 1133 05       		.byte	0x5
 7355 1134 09       		.uleb128 0x9
 7356 1135 CB0D0000 		.4byte	.LASF327
 7357 1139 10       		.byte	0x10
 7358 113a 5E01     		.2byte	0x15e
 7359 113c 4F110000 		.4byte	0x114f
 7360 1140 06       		.byte	0x6
 7361 1141 09       		.uleb128 0x9
 7362 1142 340B0000 		.4byte	.LASF328
 7363 1146 10       		.byte	0x10
 7364 1147 5F01     		.2byte	0x15f
 7365 1149 9E0C0000 		.4byte	0xc9e
 7366 114d 09       		.byte	0x9
 7367 114e 00       		.byte	0
 7368 114f 15       		.uleb128 0x15
 7369 1150 50000000 		.4byte	0x50
 7370 1154 5F110000 		.4byte	0x115f
 7371 1158 16       		.uleb128 0x16
 7372 1159 B8040000 		.4byte	0x4b8
 7373 115d 02       		.byte	0x2
 7374 115e 00       		.byte	0
 7375 115f 1B       		.uleb128 0x1b
 7376 1160 0C070000 		.4byte	.LASF329
 7377 1164 10       		.byte	0x10
 7378 1165 6001     		.2byte	0x160
 7379 1167 DD100000 		.4byte	0x10dd
 7380 116b 1C       		.uleb128 0x1c
 7381 116c A0       		.byte	0xa0
 7382 116d 10       		.byte	0x10
 7383 116e 6201     		.2byte	0x162
 7384 1170 04120000 		.4byte	0x1204
 7385 1174 09       		.uleb128 0x9
 7386 1175 7B1F0000 		.4byte	.LASF330
 7387 1179 10       		.byte	0x10
 7388 117a 6401     		.2byte	0x164
ARM GAS  /tmp/ccy8OeyM.s 			page 131


 7389 117c CA000000 		.4byte	0xca
 7390 1180 00       		.byte	0
 7391 1181 09       		.uleb128 0x9
 7392 1182 A50A0000 		.4byte	.LASF331
 7393 1186 10       		.byte	0x10
 7394 1187 6501     		.2byte	0x165
 7395 1189 F6000000 		.4byte	0xf6
 7396 118d 04       		.byte	0x4
 7397 118e 09       		.uleb128 0x9
 7398 118f CE0F0000 		.4byte	.LASF332
 7399 1193 10       		.byte	0x10
 7400 1194 6601     		.2byte	0x166
 7401 1196 25000000 		.4byte	0x25
 7402 119a 08       		.byte	0x8
 7403 119b 09       		.uleb128 0x9
 7404 119c BA0A0000 		.4byte	.LASF333
 7405 11a0 10       		.byte	0x10
 7406 11a1 6701     		.2byte	0x167
 7407 11a3 9E0C0000 		.4byte	0xc9e
 7408 11a7 0C       		.byte	0xc
 7409 11a8 09       		.uleb128 0x9
 7410 11a9 2F1F0000 		.4byte	.LASF334
 7411 11ad 10       		.byte	0x10
 7412 11ae 6801     		.2byte	0x168
 7413 11b0 F6000000 		.4byte	0xf6
 7414 11b4 10       		.byte	0x10
 7415 11b5 09       		.uleb128 0x9
 7416 11b6 A5180000 		.4byte	.LASF335
 7417 11ba 10       		.byte	0x10
 7418 11bb 6B01     		.2byte	0x16b
 7419 11bd 0F0D0000 		.4byte	0xd0f
 7420 11c1 14       		.byte	0x14
 7421 11c2 09       		.uleb128 0x9
 7422 11c3 E6100000 		.4byte	.LASF336
 7423 11c7 10       		.byte	0x10
 7424 11c8 6E01     		.2byte	0x16e
 7425 11ca F60D0000 		.4byte	0xdf6
 7426 11ce 18       		.byte	0x18
 7427 11cf 09       		.uleb128 0x9
 7428 11d0 6E050000 		.4byte	.LASF337
 7429 11d4 10       		.byte	0x10
 7430 11d5 7101     		.2byte	0x171
 7431 11d7 1E0F0000 		.4byte	0xf1e
 7432 11db 40       		.byte	0x40
 7433 11dc 09       		.uleb128 0x9
 7434 11dd DB030000 		.4byte	.LASF338
 7435 11e1 10       		.byte	0x10
 7436 11e2 7401     		.2byte	0x174
 7437 11e4 F6000000 		.4byte	0xf6
 7438 11e8 6C       		.byte	0x6c
 7439 11e9 09       		.uleb128 0x9
 7440 11ea 800F0000 		.4byte	.LASF339
 7441 11ee 10       		.byte	0x10
 7442 11ef 7701     		.2byte	0x177
 7443 11f1 DD0F0000 		.4byte	0xfdd
 7444 11f5 70       		.byte	0x70
 7445 11f6 09       		.uleb128 0x9
ARM GAS  /tmp/ccy8OeyM.s 			page 132


 7446 11f7 D2040000 		.4byte	.LASF340
 7447 11fb 10       		.byte	0x10
 7448 11fc 7A01     		.2byte	0x17a
 7449 11fe 5F110000 		.4byte	0x115f
 7450 1202 94       		.byte	0x94
 7451 1203 00       		.byte	0
 7452 1204 1B       		.uleb128 0x1b
 7453 1205 35170000 		.4byte	.LASF341
 7454 1209 10       		.byte	0x10
 7455 120a 7B01     		.2byte	0x17b
 7456 120c 6B110000 		.4byte	0x116b
 7457 1210 1D       		.uleb128 0x1d
 7458 1211 01       		.byte	0x1
 7459 1212 10       		.byte	0x10
 7460 1213 7E01     		.2byte	0x17e
 7461 1215 F2120000 		.4byte	0x12f2
 7462 1219 18       		.uleb128 0x18
 7463 121a 7A000000 		.4byte	.LASF342
 7464 121e 00       		.sleb128 0
 7465 121f 18       		.uleb128 0x18
 7466 1220 1A130000 		.4byte	.LASF343
 7467 1224 01       		.sleb128 1
 7468 1225 18       		.uleb128 0x18
 7469 1226 C0090000 		.4byte	.LASF344
 7470 122a 02       		.sleb128 2
 7471 122b 18       		.uleb128 0x18
 7472 122c A8090000 		.4byte	.LASF345
 7473 1230 03       		.sleb128 3
 7474 1231 18       		.uleb128 0x18
 7475 1232 A7160000 		.4byte	.LASF346
 7476 1236 04       		.sleb128 4
 7477 1237 18       		.uleb128 0x18
 7478 1238 E00B0000 		.4byte	.LASF347
 7479 123c 05       		.sleb128 5
 7480 123d 18       		.uleb128 0x18
 7481 123e EC0F0000 		.4byte	.LASF348
 7482 1242 06       		.sleb128 6
 7483 1243 18       		.uleb128 0x18
 7484 1244 B31B0000 		.4byte	.LASF349
 7485 1248 07       		.sleb128 7
 7486 1249 18       		.uleb128 0x18
 7487 124a 091C0000 		.4byte	.LASF350
 7488 124e 08       		.sleb128 8
 7489 124f 18       		.uleb128 0x18
 7490 1250 17140000 		.4byte	.LASF351
 7491 1254 09       		.sleb128 9
 7492 1255 18       		.uleb128 0x18
 7493 1256 03130000 		.4byte	.LASF352
 7494 125a 0A       		.sleb128 10
 7495 125b 18       		.uleb128 0x18
 7496 125c 5D0C0000 		.4byte	.LASF353
 7497 1260 0B       		.sleb128 11
 7498 1261 18       		.uleb128 0x18
 7499 1262 77030000 		.4byte	.LASF354
 7500 1266 0C       		.sleb128 12
 7501 1267 18       		.uleb128 0x18
 7502 1268 3E0C0000 		.4byte	.LASF355
ARM GAS  /tmp/ccy8OeyM.s 			page 133


 7503 126c 0D       		.sleb128 13
 7504 126d 18       		.uleb128 0x18
 7505 126e 8F160000 		.4byte	.LASF356
 7506 1272 0E       		.sleb128 14
 7507 1273 18       		.uleb128 0x18
 7508 1274 5A1A0000 		.4byte	.LASF357
 7509 1278 0F       		.sleb128 15
 7510 1279 18       		.uleb128 0x18
 7511 127a 0C190000 		.4byte	.LASF358
 7512 127e 10       		.sleb128 16
 7513 127f 18       		.uleb128 0x18
 7514 1280 791E0000 		.4byte	.LASF359
 7515 1284 11       		.sleb128 17
 7516 1285 18       		.uleb128 0x18
 7517 1286 09060000 		.4byte	.LASF360
 7518 128a 12       		.sleb128 18
 7519 128b 18       		.uleb128 0x18
 7520 128c 1B1E0000 		.4byte	.LASF361
 7521 1290 13       		.sleb128 19
 7522 1291 18       		.uleb128 0x18
 7523 1292 2A170000 		.4byte	.LASF362
 7524 1296 14       		.sleb128 20
 7525 1297 18       		.uleb128 0x18
 7526 1298 A01D0000 		.4byte	.LASF363
 7527 129c 15       		.sleb128 21
 7528 129d 18       		.uleb128 0x18
 7529 129e 3D0D0000 		.4byte	.LASF364
 7530 12a2 16       		.sleb128 22
 7531 12a3 18       		.uleb128 0x18
 7532 12a4 AE1A0000 		.4byte	.LASF365
 7533 12a8 17       		.sleb128 23
 7534 12a9 18       		.uleb128 0x18
 7535 12aa 60180000 		.4byte	.LASF366
 7536 12ae 18       		.sleb128 24
 7537 12af 18       		.uleb128 0x18
 7538 12b0 D90A0000 		.4byte	.LASF367
 7539 12b4 19       		.sleb128 25
 7540 12b5 18       		.uleb128 0x18
 7541 12b6 7B160000 		.4byte	.LASF368
 7542 12ba 1A       		.sleb128 26
 7543 12bb 18       		.uleb128 0x18
 7544 12bc BC000000 		.4byte	.LASF369
 7545 12c0 1B       		.sleb128 27
 7546 12c1 18       		.uleb128 0x18
 7547 12c2 86040000 		.4byte	.LASF370
 7548 12c6 1C       		.sleb128 28
 7549 12c7 18       		.uleb128 0x18
 7550 12c8 B0070000 		.4byte	.LASF371
 7551 12cc 1D       		.sleb128 29
 7552 12cd 18       		.uleb128 0x18
 7553 12ce 900C0000 		.4byte	.LASF372
 7554 12d2 1E       		.sleb128 30
 7555 12d3 18       		.uleb128 0x18
 7556 12d4 451A0000 		.4byte	.LASF373
 7557 12d8 1F       		.sleb128 31
 7558 12d9 18       		.uleb128 0x18
 7559 12da D9130000 		.4byte	.LASF374
ARM GAS  /tmp/ccy8OeyM.s 			page 134


 7560 12de 20       		.sleb128 32
 7561 12df 18       		.uleb128 0x18
 7562 12e0 1A0D0000 		.4byte	.LASF375
 7563 12e4 21       		.sleb128 33
 7564 12e5 18       		.uleb128 0x18
 7565 12e6 C8180000 		.4byte	.LASF376
 7566 12ea 22       		.sleb128 34
 7567 12eb 18       		.uleb128 0x18
 7568 12ec 751D0000 		.4byte	.LASF377
 7569 12f0 23       		.sleb128 35
 7570 12f1 00       		.byte	0
 7571 12f2 1B       		.uleb128 0x1b
 7572 12f3 FD0F0000 		.4byte	.LASF378
 7573 12f7 10       		.byte	0x10
 7574 12f8 A301     		.2byte	0x1a3
 7575 12fa 10120000 		.4byte	0x1210
 7576 12fe 1C       		.uleb128 0x1c
 7577 12ff 18       		.byte	0x18
 7578 1300 10       		.byte	0x10
 7579 1301 D001     		.2byte	0x1d0
 7580 1303 63130000 		.4byte	0x1363
 7581 1307 09       		.uleb128 0x9
 7582 1308 9B020000 		.4byte	.LASF379
 7583 130c 10       		.byte	0x10
 7584 130d D101     		.2byte	0x1d1
 7585 130f 2C000000 		.4byte	0x2c
 7586 1313 00       		.byte	0
 7587 1314 09       		.uleb128 0x9
 7588 1315 A0020000 		.4byte	.LASF380
 7589 1319 10       		.byte	0x10
 7590 131a D201     		.2byte	0x1d2
 7591 131c 2C000000 		.4byte	0x2c
 7592 1320 04       		.byte	0x4
 7593 1321 09       		.uleb128 0x9
 7594 1322 4A040000 		.4byte	.LASF381
 7595 1326 10       		.byte	0x10
 7596 1327 D301     		.2byte	0x1d3
 7597 1329 2C000000 		.4byte	0x2c
 7598 132d 08       		.byte	0x8
 7599 132e 09       		.uleb128 0x9
 7600 132f 50040000 		.4byte	.LASF382
 7601 1333 10       		.byte	0x10
 7602 1334 D401     		.2byte	0x1d4
 7603 1336 2C000000 		.4byte	0x2c
 7604 133a 0C       		.byte	0xc
 7605 133b 09       		.uleb128 0x9
 7606 133c 56040000 		.4byte	.LASF383
 7607 1340 10       		.byte	0x10
 7608 1341 D501     		.2byte	0x1d5
 7609 1343 2C000000 		.4byte	0x2c
 7610 1347 10       		.byte	0x10
 7611 1348 09       		.uleb128 0x9
 7612 1349 68090000 		.4byte	.LASF384
 7613 134d 10       		.byte	0x10
 7614 134e D601     		.2byte	0x1d6
 7615 1350 9E0C0000 		.4byte	0xc9e
 7616 1354 14       		.byte	0x14
ARM GAS  /tmp/ccy8OeyM.s 			page 135


 7617 1355 09       		.uleb128 0x9
 7618 1356 85090000 		.4byte	.LASF385
 7619 135a 10       		.byte	0x10
 7620 135b D701     		.2byte	0x1d7
 7621 135d 9E0C0000 		.4byte	0xc9e
 7622 1361 15       		.byte	0x15
 7623 1362 00       		.byte	0
 7624 1363 1B       		.uleb128 0x1b
 7625 1364 040B0000 		.4byte	.LASF386
 7626 1368 10       		.byte	0x10
 7627 1369 D801     		.2byte	0x1d8
 7628 136b FE120000 		.4byte	0x12fe
 7629 136f 17       		.uleb128 0x17
 7630 1370 01       		.byte	0x1
 7631 1371 11       		.byte	0x11
 7632 1372 35       		.byte	0x35
 7633 1373 AE130000 		.4byte	0x13ae
 7634 1377 18       		.uleb128 0x18
 7635 1378 EE090000 		.4byte	.LASF387
 7636 137c 01       		.sleb128 1
 7637 137d 18       		.uleb128 0x18
 7638 137e 6F080000 		.4byte	.LASF388
 7639 1382 02       		.sleb128 2
 7640 1383 18       		.uleb128 0x18
 7641 1384 E1000000 		.4byte	.LASF389
 7642 1388 03       		.sleb128 3
 7643 1389 18       		.uleb128 0x18
 7644 138a D1000000 		.4byte	.LASF390
 7645 138e 04       		.sleb128 4
 7646 138f 18       		.uleb128 0x18
 7647 1390 8A000000 		.4byte	.LASF391
 7648 1394 05       		.sleb128 5
 7649 1395 18       		.uleb128 0x18
 7650 1396 861C0000 		.4byte	.LASF392
 7651 139a 06       		.sleb128 6
 7652 139b 18       		.uleb128 0x18
 7653 139c FC080000 		.4byte	.LASF393
 7654 13a0 07       		.sleb128 7
 7655 13a1 18       		.uleb128 0x18
 7656 13a2 D8010000 		.4byte	.LASF394
 7657 13a6 08       		.sleb128 8
 7658 13a7 18       		.uleb128 0x18
 7659 13a8 47170000 		.4byte	.LASF395
 7660 13ac 09       		.sleb128 9
 7661 13ad 00       		.byte	0
 7662 13ae 0A       		.uleb128 0xa
 7663 13af 04       		.byte	0x4
 7664 13b0 50000000 		.4byte	0x50
 7665 13b4 0A       		.uleb128 0xa
 7666 13b5 04       		.byte	0x4
 7667 13b6 25070000 		.4byte	0x725
 7668 13ba 02       		.uleb128 0x2
 7669 13bb 08       		.byte	0x8
 7670 13bc 04       		.byte	0x4
 7671 13bd 05190000 		.4byte	.LASF396
 7672 13c1 02       		.uleb128 0x2
 7673 13c2 08       		.byte	0x8
ARM GAS  /tmp/ccy8OeyM.s 			page 136


 7674 13c3 04       		.byte	0x4
 7675 13c4 0B140000 		.4byte	.LASF397
 7676 13c8 04       		.uleb128 0x4
 7677 13c9 80060000 		.4byte	.LASF398
 7678 13cd 12       		.byte	0x12
 7679 13ce 28       		.byte	0x28
 7680 13cf D3130000 		.4byte	0x13d3
 7681 13d3 06       		.uleb128 0x6
 7682 13d4 F7210000 		.4byte	.LASF399
 7683 13d8 04       		.byte	0x4
 7684 13d9 13       		.byte	0x13
 7685 13da 00       		.byte	0
 7686 13db EA130000 		.4byte	0x13ea
 7687 13df 1E       		.uleb128 0x1e
 7688 13e0 AC1C0000 		.4byte	.LASF400
 7689 13e4 82030000 		.4byte	0x382
 7690 13e8 00       		.byte	0
 7691 13e9 00       		.byte	0
 7692 13ea 04       		.uleb128 0x4
 7693 13eb 60090000 		.4byte	.LASF401
 7694 13ef 12       		.byte	0x12
 7695 13f0 62       		.byte	0x62
 7696 13f1 C8130000 		.4byte	0x13c8
 7697 13f5 1F       		.uleb128 0x1f
 7698 13f6 6A1B0000 		.4byte	.LASF522
 7699 13fa 02       		.byte	0x2
 7700 13fb 84       		.byte	0x84
 7701 13fc 03       		.byte	0x3
 7702 13fd 0D140000 		.4byte	0x140d
 7703 1401 20       		.uleb128 0x20
 7704 1402 A50F0000 		.4byte	.LASF402
 7705 1406 02       		.byte	0x2
 7706 1407 84       		.byte	0x84
 7707 1408 1A070000 		.4byte	0x71a
 7708 140c 00       		.byte	0
 7709 140d 21       		.uleb128 0x21
 7710 140e F8150000 		.4byte	.LASF523
 7711 1412 0F       		.byte	0xf
 7712 1413 AE       		.byte	0xae
 7713 1414 A5020000 		.4byte	0x2a5
 7714 1418 03       		.byte	0x3
 7715 1419 22       		.uleb128 0x22
 7716 141a D2210000 		.4byte	.LASF455
 7717 141e 01       		.byte	0x1
 7718 141f 5D       		.byte	0x5d
 7719 1420 01       		.byte	0x1
 7720 1421 3C140000 		.4byte	0x143c
 7721 1425 20       		.uleb128 0x20
 7722 1426 B9190000 		.4byte	.LASF403
 7723 142a 01       		.byte	0x1
 7724 142b 5D       		.byte	0x5d
 7725 142c AE130000 		.4byte	0x13ae
 7726 1430 23       		.uleb128 0x23
 7727 1431 6C656E00 		.ascii	"len\000"
 7728 1435 01       		.byte	0x1
 7729 1436 5D       		.byte	0x5d
 7730 1437 B8000000 		.4byte	0xb8
ARM GAS  /tmp/ccy8OeyM.s 			page 137


 7731 143b 00       		.byte	0
 7732 143c 24       		.uleb128 0x24
 7733 143d AE050000 		.4byte	.LASF524
 7734 1441 03       		.byte	0x3
 7735 1442 5401     		.2byte	0x154
 7736 1444 03       		.byte	0x3
 7737 1445 25       		.uleb128 0x25
 7738 1446 9A110000 		.4byte	.LASF525
 7739 144a 01       		.byte	0x1
 7740 144b 6603     		.2byte	0x366
 7741 144d 00000000 		.4byte	.LFB267
 7742 1451 00010000 		.4byte	.LFE267-.LFB267
 7743 1455 01       		.uleb128 0x1
 7744 1456 9C       		.byte	0x9c
 7745 1457 4B150000 		.4byte	0x154b
 7746 145b 26       		.uleb128 0x26
 7747 145c 61726700 		.ascii	"arg\000"
 7748 1460 01       		.byte	0x1
 7749 1461 6603     		.2byte	0x366
 7750 1463 82030000 		.4byte	0x382
 7751 1467 00000000 		.4byte	.LLST0
 7752 146b 27       		.uleb128 0x27
 7753 146c F5130000 		.4byte	0x13f5
 7754 1470 04000000 		.4byte	.LBB59
 7755 1474 00000000 		.4byte	.Ldebug_ranges0+0
 7756 1478 01       		.byte	0x1
 7757 1479 6903     		.2byte	0x369
 7758 147b 8C140000 		.4byte	0x148c
 7759 147f 28       		.uleb128 0x28
 7760 1480 01140000 		.4byte	0x1401
 7761 1484 06       		.uleb128 0x6
 7762 1485 03       		.byte	0x3
 7763 1486 00000000 		.4byte	.LC0
 7764 148a 9F       		.byte	0x9f
 7765 148b 00       		.byte	0
 7766 148c 29       		.uleb128 0x29
 7767 148d 20000000 		.4byte	.Ldebug_ranges0+0x20
 7768 1491 2A       		.uleb128 0x2a
 7769 1492 696E6400 		.ascii	"ind\000"
 7770 1496 01       		.byte	0x1
 7771 1497 7703     		.2byte	0x377
 7772 1499 EB000000 		.4byte	0xeb
 7773 149d 02       		.uleb128 0x2
 7774 149e 91       		.byte	0x91
 7775 149f 4C       		.sleb128 -52
 7776 14a0 27       		.uleb128 0x27
 7777 14a1 19140000 		.4byte	0x1419
 7778 14a5 92000000 		.4byte	.LBB65
 7779 14a9 48000000 		.4byte	.Ldebug_ranges0+0x48
 7780 14ad 01       		.byte	0x1
 7781 14ae 7E03     		.2byte	0x37e
 7782 14b0 D6140000 		.4byte	0x14d6
 7783 14b4 2B       		.uleb128 0x2b
 7784 14b5 30140000 		.4byte	0x1430
 7785 14b9 21000000 		.4byte	.LLST1
 7786 14bd 2B       		.uleb128 0x2b
 7787 14be 25140000 		.4byte	0x1425
ARM GAS  /tmp/ccy8OeyM.s 			page 138


 7788 14c2 34000000 		.4byte	.LLST2
 7789 14c6 2C       		.uleb128 0x2c
 7790 14c7 BA000000 		.4byte	.LVL7
 7791 14cb 02       		.uleb128 0x2
 7792 14cc 75       		.byte	0x75
 7793 14cd 00       		.sleb128 0
 7794 14ce 2D       		.uleb128 0x2d
 7795 14cf 01       		.uleb128 0x1
 7796 14d0 50       		.byte	0x50
 7797 14d1 02       		.uleb128 0x2
 7798 14d2 74       		.byte	0x74
 7799 14d3 00       		.sleb128 0
 7800 14d4 00       		.byte	0
 7801 14d5 00       		.byte	0
 7802 14d6 2E       		.uleb128 0x2e
 7803 14d7 3C000000 		.4byte	.LVL2
 7804 14db 6B400000 		.4byte	0x406b
 7805 14df E9140000 		.4byte	0x14e9
 7806 14e3 2D       		.uleb128 0x2d
 7807 14e4 01       		.uleb128 0x1
 7808 14e5 50       		.byte	0x50
 7809 14e6 01       		.uleb128 0x1
 7810 14e7 31       		.byte	0x31
 7811 14e8 00       		.byte	0
 7812 14e9 2E       		.uleb128 0x2e
 7813 14ea 54000000 		.4byte	.LVL3
 7814 14ee 80400000 		.4byte	0x4080
 7815 14f2 12150000 		.4byte	0x1512
 7816 14f6 2D       		.uleb128 0x2d
 7817 14f7 01       		.uleb128 0x1
 7818 14f8 53       		.byte	0x53
 7819 14f9 02       		.uleb128 0x2
 7820 14fa 77       		.byte	0x77
 7821 14fb 00       		.sleb128 0
 7822 14fc 2D       		.uleb128 0x2d
 7823 14fd 01       		.uleb128 0x1
 7824 14fe 52       		.byte	0x52
 7825 14ff 05       		.uleb128 0x5
 7826 1500 03       		.byte	0x3
 7827 1501 00000000 		.4byte	.LANCHOR6
 7828 1505 2D       		.uleb128 0x2d
 7829 1506 01       		.uleb128 0x1
 7830 1507 51       		.byte	0x51
 7831 1508 02       		.uleb128 0x2
 7832 1509 75       		.byte	0x75
 7833 150a 00       		.sleb128 0
 7834 150b 2D       		.uleb128 0x2d
 7835 150c 01       		.uleb128 0x1
 7836 150d 50       		.byte	0x50
 7837 150e 02       		.uleb128 0x2
 7838 150f 76       		.byte	0x76
 7839 1510 00       		.sleb128 0
 7840 1511 00       		.byte	0
 7841 1512 2E       		.uleb128 0x2e
 7842 1513 7A000000 		.4byte	.LVL4
 7843 1517 BF400000 		.4byte	0x40bf
 7844 151b 33150000 		.4byte	0x1533
ARM GAS  /tmp/ccy8OeyM.s 			page 139


 7845 151f 2D       		.uleb128 0x2d
 7846 1520 01       		.uleb128 0x1
 7847 1521 52       		.byte	0x52
 7848 1522 02       		.uleb128 0x2
 7849 1523 91       		.byte	0x91
 7850 1524 4C       		.sleb128 -52
 7851 1525 2D       		.uleb128 0x2d
 7852 1526 01       		.uleb128 0x1
 7853 1527 51       		.byte	0x51
 7854 1528 03       		.uleb128 0x3
 7855 1529 91       		.byte	0x91
 7856 152a 44       		.sleb128 -60
 7857 152b 06       		.byte	0x6
 7858 152c 2D       		.uleb128 0x2d
 7859 152d 01       		.uleb128 0x1
 7860 152e 50       		.byte	0x50
 7861 152f 02       		.uleb128 0x2
 7862 1530 74       		.byte	0x74
 7863 1531 00       		.sleb128 0
 7864 1532 00       		.byte	0
 7865 1533 2F       		.uleb128 0x2f
 7866 1534 92000000 		.4byte	.LVL5
 7867 1538 BF400000 		.4byte	0x40bf
 7868 153c 2D       		.uleb128 0x2d
 7869 153d 01       		.uleb128 0x1
 7870 153e 52       		.byte	0x52
 7871 153f 02       		.uleb128 0x2
 7872 1540 91       		.byte	0x91
 7873 1541 4C       		.sleb128 -52
 7874 1542 2D       		.uleb128 0x2d
 7875 1543 01       		.uleb128 0x1
 7876 1544 50       		.byte	0x50
 7877 1545 02       		.uleb128 0x2
 7878 1546 74       		.byte	0x74
 7879 1547 00       		.sleb128 0
 7880 1548 00       		.byte	0
 7881 1549 00       		.byte	0
 7882 154a 00       		.byte	0
 7883 154b 30       		.uleb128 0x30
 7884 154c 41010000 		.4byte	.LASF404
 7885 1550 01       		.byte	0x1
 7886 1551 46       		.byte	0x46
 7887 1552 00000000 		.4byte	.LFB256
 7888 1556 24000000 		.4byte	.LFE256-.LFB256
 7889 155a 01       		.uleb128 0x1
 7890 155b 9C       		.byte	0x9c
 7891 155c 90150000 		.4byte	0x1590
 7892 1560 2F       		.uleb128 0x2f
 7893 1561 16000000 		.4byte	.LVL9
 7894 1565 E0400000 		.4byte	0x40e0
 7895 1569 2D       		.uleb128 0x2d
 7896 156a 01       		.uleb128 0x1
 7897 156b 53       		.byte	0x53
 7898 156c 05       		.uleb128 0x5
 7899 156d 03       		.byte	0x3
 7900 156e 00000000 		.4byte	detect_thread
 7901 1572 2D       		.uleb128 0x2d
ARM GAS  /tmp/ccy8OeyM.s 			page 140


 7902 1573 01       		.uleb128 0x1
 7903 1574 52       		.byte	0x52
 7904 1575 02       		.uleb128 0x2
 7905 1576 08       		.byte	0x8
 7906 1577 40       		.byte	0x40
 7907 1578 2D       		.uleb128 0x2d
 7908 1579 01       		.uleb128 0x1
 7909 157a 51       		.byte	0x51
 7910 157b 03       		.uleb128 0x3
 7911 157c 0A       		.byte	0xa
 7912 157d 9809     		.2byte	0x998
 7913 157f 2D       		.uleb128 0x2d
 7914 1580 01       		.uleb128 0x1
 7915 1581 50       		.byte	0x50
 7916 1582 05       		.uleb128 0x5
 7917 1583 03       		.byte	0x3
 7918 1584 00000000 		.4byte	.LANCHOR10
 7919 1588 2D       		.uleb128 0x2d
 7920 1589 02       		.uleb128 0x2
 7921 158a 7D       		.byte	0x7d
 7922 158b 00       		.sleb128 0
 7923 158c 01       		.uleb128 0x1
 7924 158d 30       		.byte	0x30
 7925 158e 00       		.byte	0
 7926 158f 00       		.byte	0
 7927 1590 30       		.uleb128 0x30
 7928 1591 BD160000 		.4byte	.LASF405
 7929 1595 01       		.byte	0x1
 7930 1596 50       		.byte	0x50
 7931 1597 00000000 		.4byte	.LFB257
 7932 159b 0C000000 		.4byte	.LFE257-.LFB257
 7933 159f 01       		.uleb128 0x1
 7934 15a0 9C       		.byte	0x9c
 7935 15a1 B3150000 		.4byte	0x15b3
 7936 15a5 31       		.uleb128 0x31
 7937 15a6 DE110000 		.4byte	.LASF406
 7938 15aa 01       		.byte	0x1
 7939 15ab 50       		.byte	0x50
 7940 15ac C3150000 		.4byte	0x15c3
 7941 15b0 01       		.uleb128 0x1
 7942 15b1 50       		.byte	0x50
 7943 15b2 00       		.byte	0
 7944 15b3 0C       		.uleb128 0xc
 7945 15b4 C3150000 		.4byte	0x15c3
 7946 15b8 0D       		.uleb128 0xd
 7947 15b9 AE130000 		.4byte	0x13ae
 7948 15bd 0D       		.uleb128 0xd
 7949 15be B8000000 		.4byte	0xb8
 7950 15c2 00       		.byte	0
 7951 15c3 0A       		.uleb128 0xa
 7952 15c4 04       		.byte	0x4
 7953 15c5 B3150000 		.4byte	0x15b3
 7954 15c9 32       		.uleb128 0x32
 7955 15ca 19140000 		.4byte	0x1419
 7956 15ce 00000000 		.4byte	.LFB258
 7957 15d2 10000000 		.4byte	.LFE258-.LFB258
 7958 15d6 01       		.uleb128 0x1
ARM GAS  /tmp/ccy8OeyM.s 			page 141


 7959 15d7 9C       		.byte	0x9c
 7960 15d8 03160000 		.4byte	0x1603
 7961 15dc 2B       		.uleb128 0x2b
 7962 15dd 25140000 		.4byte	0x1425
 7963 15e1 4C000000 		.4byte	.LLST3
 7964 15e5 2B       		.uleb128 0x2b
 7965 15e6 30140000 		.4byte	0x1430
 7966 15ea 78000000 		.4byte	.LLST4
 7967 15ee 33       		.uleb128 0x33
 7968 15ef 08000000 		.4byte	.LVL12
 7969 15f3 2D       		.uleb128 0x2d
 7970 15f4 01       		.uleb128 0x1
 7971 15f5 51       		.byte	0x51
 7972 15f6 03       		.uleb128 0x3
 7973 15f7 F3       		.byte	0xf3
 7974 15f8 01       		.uleb128 0x1
 7975 15f9 51       		.byte	0x51
 7976 15fa 2D       		.uleb128 0x2d
 7977 15fb 01       		.uleb128 0x1
 7978 15fc 50       		.byte	0x50
 7979 15fd 03       		.uleb128 0x3
 7980 15fe F3       		.byte	0xf3
 7981 15ff 01       		.uleb128 0x1
 7982 1600 50       		.byte	0x50
 7983 1601 00       		.byte	0
 7984 1602 00       		.byte	0
 7985 1603 34       		.uleb128 0x34
 7986 1604 6B1A0000 		.4byte	.LASF407
 7987 1608 01       		.byte	0x1
 7988 1609 6C       		.byte	0x6c
 7989 160a 00000000 		.4byte	.LFB259
 7990 160e 401C0000 		.4byte	.LFE259-.LFB259
 7991 1612 01       		.uleb128 0x1
 7992 1613 9C       		.byte	0x9c
 7993 1614 483B0000 		.4byte	0x3b48
 7994 1618 35       		.uleb128 0x35
 7995 1619 B9190000 		.4byte	.LASF403
 7996 161d 01       		.byte	0x1
 7997 161e 6C       		.byte	0x6c
 7998 161f AE130000 		.4byte	0x13ae
 7999 1623 A4000000 		.4byte	.LLST5
 8000 1627 36       		.uleb128 0x36
 8001 1628 6C656E00 		.ascii	"len\000"
 8002 162c 01       		.byte	0x1
 8003 162d 6C       		.byte	0x6c
 8004 162e B8000000 		.4byte	0xb8
 8005 1632 D4020000 		.4byte	.LLST6
 8006 1636 37       		.uleb128 0x37
 8007 1637 410B0000 		.4byte	.LASF408
 8008 163b 01       		.byte	0x1
 8009 163c 71       		.byte	0x71
 8010 163d F2120000 		.4byte	0x12f2
 8011 1641 09050000 		.4byte	.LLST7
 8012 1645 38       		.uleb128 0x38
 8013 1646 696E6400 		.ascii	"ind\000"
 8014 164a 01       		.byte	0x1
 8015 164b 72       		.byte	0x72
ARM GAS  /tmp/ccy8OeyM.s 			page 142


 8016 164c EB000000 		.4byte	0xeb
 8017 1650 53050000 		.4byte	.LLST8
 8018 1654 37       		.uleb128 0x37
 8019 1655 39140000 		.4byte	.LASF409
 8020 1659 01       		.byte	0x1
 8021 165a 73       		.byte	0x73
 8022 165b E0000000 		.4byte	0xe0
 8023 165f 73050000 		.4byte	.LLST9
 8024 1663 37       		.uleb128 0x37
 8025 1664 C7210000 		.4byte	.LASF410
 8026 1668 01       		.byte	0x1
 8027 1669 74       		.byte	0x74
 8028 166a CA000000 		.4byte	0xca
 8029 166e 86050000 		.4byte	.LLST10
 8030 1672 37       		.uleb128 0x37
 8031 1673 BD110000 		.4byte	.LASF411
 8032 1677 01       		.byte	0x1
 8033 1678 75       		.byte	0x75
 8034 1679 9E0C0000 		.4byte	0xc9e
 8035 167d 9F050000 		.4byte	.LLST11
 8036 1681 39       		.uleb128 0x39
 8037 1682 0B1A0000 		.4byte	.LASF412
 8038 1686 01       		.byte	0x1
 8039 1687 76       		.byte	0x76
 8040 1688 C50C0000 		.4byte	0xcc5
 8041 168c 05       		.uleb128 0x5
 8042 168d 03       		.byte	0x3
 8043 168e 00000000 		.4byte	mcconf.11290
 8044 1692 39       		.uleb128 0x39
 8045 1693 EB1A0000 		.4byte	.LASF413
 8046 1697 01       		.byte	0x1
 8047 1698 76       		.byte	0x76
 8048 1699 C50C0000 		.4byte	0xcc5
 8049 169d 05       		.uleb128 0x5
 8050 169e 03       		.byte	0x3
 8051 169f 00000000 		.4byte	mcconf_old.11291
 8052 16a3 39       		.uleb128 0x39
 8053 16a4 540D0000 		.4byte	.LASF414
 8054 16a8 01       		.byte	0x1
 8055 16a9 77       		.byte	0x77
 8056 16aa 04120000 		.4byte	0x1204
 8057 16ae 03       		.uleb128 0x3
 8058 16af 91       		.byte	0x91
 8059 16b0 A87E     		.sleb128 -216
 8060 16b2 37       		.uleb128 0x37
 8061 16b3 D60B0000 		.4byte	.LASF415
 8062 16b7 01       		.byte	0x1
 8063 16b8 78       		.byte	0x78
 8064 16b9 E0000000 		.4byte	0xe0
 8065 16bd B2050000 		.4byte	.LLST12
 8066 16c1 37       		.uleb128 0x37
 8067 16c2 85130000 		.4byte	.LASF416
 8068 16c6 01       		.byte	0x1
 8069 16c7 79       		.byte	0x79
 8070 16c8 F6000000 		.4byte	0xf6
 8071 16cc D0050000 		.4byte	.LLST13
 8072 16d0 39       		.uleb128 0x39
ARM GAS  /tmp/ccy8OeyM.s 			page 143


 8073 16d1 04030000 		.4byte	.LASF417
 8074 16d5 01       		.byte	0x1
 8075 16d6 7A       		.byte	0x7a
 8076 16d7 63130000 		.4byte	0x1363
 8077 16db 03       		.uleb128 0x3
 8078 16dc 91       		.byte	0x91
 8079 16dd A87E     		.sleb128 -216
 8080 16df 27       		.uleb128 0x27
 8081 16e0 19140000 		.4byte	0x1419
 8082 16e4 40030000 		.4byte	.LBB79
 8083 16e8 78000000 		.4byte	.Ldebug_ranges0+0x78
 8084 16ec 01       		.byte	0x1
 8085 16ed 5002     		.2byte	0x250
 8086 16ef 15170000 		.4byte	0x1715
 8087 16f3 2B       		.uleb128 0x2b
 8088 16f4 30140000 		.4byte	0x1430
 8089 16f8 E3050000 		.4byte	.LLST14
 8090 16fc 2B       		.uleb128 0x2b
 8091 16fd 25140000 		.4byte	0x1425
 8092 1701 F6050000 		.4byte	.LLST15
 8093 1705 2C       		.uleb128 0x2c
 8094 1706 8E030000 		.4byte	.LVL49
 8095 170a 02       		.uleb128 0x2
 8096 170b 75       		.byte	0x75
 8097 170c 00       		.sleb128 0
 8098 170d 2D       		.uleb128 0x2d
 8099 170e 01       		.uleb128 0x1
 8100 170f 50       		.byte	0x50
 8101 1710 02       		.uleb128 0x2
 8102 1711 74       		.byte	0x74
 8103 1712 00       		.sleb128 0
 8104 1713 00       		.byte	0
 8105 1714 00       		.byte	0
 8106 1715 27       		.uleb128 0x27
 8107 1716 19140000 		.4byte	0x1419
 8108 171a 26040000 		.4byte	.LBB85
 8109 171e 98000000 		.4byte	.Ldebug_ranges0+0x98
 8110 1722 01       		.byte	0x1
 8111 1723 FF02     		.2byte	0x2ff
 8112 1725 48170000 		.4byte	0x1748
 8113 1729 2B       		.uleb128 0x2b
 8114 172a 30140000 		.4byte	0x1430
 8115 172e 0E060000 		.4byte	.LLST16
 8116 1732 2B       		.uleb128 0x2b
 8117 1733 25140000 		.4byte	0x1425
 8118 1737 21060000 		.4byte	.LLST17
 8119 173b 3A       		.uleb128 0x3a
 8120 173c 34040000 		.4byte	.LVL66
 8121 1740 2D       		.uleb128 0x2d
 8122 1741 01       		.uleb128 0x1
 8123 1742 50       		.byte	0x50
 8124 1743 02       		.uleb128 0x2
 8125 1744 74       		.byte	0x74
 8126 1745 00       		.sleb128 0
 8127 1746 00       		.byte	0
 8128 1747 00       		.byte	0
 8129 1748 3B       		.uleb128 0x3b
ARM GAS  /tmp/ccy8OeyM.s 			page 144


 8130 1749 19140000 		.4byte	0x1419
 8131 174d 48070000 		.4byte	.LBB89
 8132 1751 B0000000 		.4byte	.Ldebug_ranges0+0xb0
 8133 1755 01       		.byte	0x1
 8134 1756 B9       		.byte	0xb9
 8135 1757 6E170000 		.4byte	0x176e
 8136 175b 2B       		.uleb128 0x2b
 8137 175c 30140000 		.4byte	0x1430
 8138 1760 39060000 		.4byte	.LLST18
 8139 1764 2B       		.uleb128 0x2b
 8140 1765 25140000 		.4byte	0x1425
 8141 1769 4C060000 		.4byte	.LLST19
 8142 176d 00       		.byte	0
 8143 176e 3B       		.uleb128 0x3b
 8144 176f 19140000 		.4byte	0x1419
 8145 1773 A2070000 		.4byte	.LBB95
 8146 1777 D0000000 		.4byte	.Ldebug_ranges0+0xd0
 8147 177b 01       		.byte	0x1
 8148 177c 9F       		.byte	0x9f
 8149 177d A3170000 		.4byte	0x17a3
 8150 1781 2B       		.uleb128 0x2b
 8151 1782 30140000 		.4byte	0x1430
 8152 1786 64060000 		.4byte	.LLST20
 8153 178a 2B       		.uleb128 0x2b
 8154 178b 25140000 		.4byte	0x1425
 8155 178f 78060000 		.4byte	.LLST21
 8156 1793 3A       		.uleb128 0x3a
 8157 1794 C6070000 		.4byte	.LVL126
 8158 1798 2D       		.uleb128 0x2d
 8159 1799 01       		.uleb128 0x1
 8160 179a 50       		.byte	0x50
 8161 179b 05       		.uleb128 0x5
 8162 179c 03       		.byte	0x3
 8163 179d 00000000 		.4byte	.LANCHOR8
 8164 17a1 00       		.byte	0
 8165 17a2 00       		.byte	0
 8166 17a3 3B       		.uleb128 0x3b
 8167 17a4 19140000 		.4byte	0x1419
 8168 17a8 D4070000 		.4byte	.LBB101
 8169 17ac F0000000 		.4byte	.Ldebug_ranges0+0xf0
 8170 17b0 01       		.byte	0x1
 8171 17b1 94       		.byte	0x94
 8172 17b2 C9170000 		.4byte	0x17c9
 8173 17b6 2B       		.uleb128 0x2b
 8174 17b7 30140000 		.4byte	0x1430
 8175 17bb 90060000 		.4byte	.LLST22
 8176 17bf 2B       		.uleb128 0x2b
 8177 17c0 25140000 		.4byte	0x1425
 8178 17c4 A4060000 		.4byte	.LLST23
 8179 17c8 00       		.byte	0
 8180 17c9 3B       		.uleb128 0x3b
 8181 17ca 19140000 		.4byte	0x1419
 8182 17ce F8070000 		.4byte	.LBB107
 8183 17d2 10010000 		.4byte	.Ldebug_ranges0+0x110
 8184 17d6 01       		.byte	0x1
 8185 17d7 86       		.byte	0x86
 8186 17d8 EF170000 		.4byte	0x17ef
ARM GAS  /tmp/ccy8OeyM.s 			page 145


 8187 17dc 2B       		.uleb128 0x2b
 8188 17dd 30140000 		.4byte	0x1430
 8189 17e1 BC060000 		.4byte	.LLST24
 8190 17e5 2B       		.uleb128 0x2b
 8191 17e6 25140000 		.4byte	0x1425
 8192 17ea D0060000 		.4byte	.LLST25
 8193 17ee 00       		.byte	0
 8194 17ef 3C       		.uleb128 0x3c
 8195 17f0 3C140000 		.4byte	0x143c
 8196 17f4 22090000 		.4byte	.LBB113
 8197 17f8 02000000 		.4byte	.LBE113-.LBB113
 8198 17fc 01       		.byte	0x1
 8199 17fd E102     		.2byte	0x2e1
 8200 17ff 3D       		.uleb128 0x3d
 8201 1800 42090000 		.4byte	.LBB115
 8202 1804 7E000000 		.4byte	.LBE115-.LBB115
 8203 1808 08190000 		.4byte	0x1908
 8204 180c 3E       		.uleb128 0x3e
 8205 180d 8C100000 		.4byte	.LASF418
 8206 1811 01       		.byte	0x1
 8207 1812 C202     		.2byte	0x2c2
 8208 1814 25000000 		.4byte	0x25
 8209 1818 E8060000 		.4byte	.LLST26
 8210 181c 3F       		.uleb128 0x3f
 8211 181d 160F0000 		.4byte	.LASF419
 8212 1821 01       		.byte	0x1
 8213 1822 CA02     		.2byte	0x2ca
 8214 1824 B50C0000 		.4byte	0xcb5
 8215 1828 03       		.uleb128 0x3
 8216 1829 91       		.byte	0x91
 8217 182a A87E     		.sleb128 -216
 8218 182c 40       		.uleb128 0x40
 8219 182d 72657300 		.ascii	"res\000"
 8220 1831 01       		.byte	0x1
 8221 1832 CB02     		.2byte	0x2cb
 8222 1834 9E0C0000 		.4byte	0xc9e
 8223 1838 08070000 		.4byte	.LLST27
 8224 183c 27       		.uleb128 0x27
 8225 183d 19140000 		.4byte	0x1419
 8226 1841 5A090000 		.4byte	.LBB116
 8227 1845 30010000 		.4byte	.Ldebug_ranges0+0x130
 8228 1849 01       		.byte	0x1
 8229 184a D402     		.2byte	0x2d4
 8230 184c 78180000 		.4byte	0x1878
 8231 1850 2B       		.uleb128 0x2b
 8232 1851 30140000 		.4byte	0x1430
 8233 1855 1B070000 		.4byte	.LLST28
 8234 1859 2B       		.uleb128 0x2b
 8235 185a 25140000 		.4byte	0x1425
 8236 185e 2F070000 		.4byte	.LLST29
 8237 1862 3A       		.uleb128 0x3a
 8238 1863 BE090000 		.4byte	.LVL177
 8239 1867 2D       		.uleb128 0x2d
 8240 1868 01       		.uleb128 0x1
 8241 1869 51       		.byte	0x51
 8242 186a 02       		.uleb128 0x2
 8243 186b 76       		.byte	0x76
ARM GAS  /tmp/ccy8OeyM.s 			page 146


 8244 186c 00       		.sleb128 0
 8245 186d 2D       		.uleb128 0x2d
 8246 186e 01       		.uleb128 0x1
 8247 186f 50       		.byte	0x50
 8248 1870 05       		.uleb128 0x5
 8249 1871 03       		.byte	0x3
 8250 1872 00000000 		.4byte	.LANCHOR8
 8251 1876 00       		.byte	0
 8252 1877 00       		.byte	0
 8253 1878 2E       		.uleb128 0x2e
 8254 1879 4E090000 		.4byte	.LVL168
 8255 187d 09410000 		.4byte	0x4109
 8256 1881 9C180000 		.4byte	0x189c
 8257 1885 2D       		.uleb128 0x2d
 8258 1886 01       		.uleb128 0x1
 8259 1887 52       		.byte	0x52
 8260 1888 03       		.uleb128 0x3
 8261 1889 0A       		.byte	0xa
 8262 188a 3401     		.2byte	0x134
 8263 188c 2D       		.uleb128 0x2d
 8264 188d 01       		.uleb128 0x1
 8265 188e 51       		.byte	0x51
 8266 188f 02       		.uleb128 0x2
 8267 1890 75       		.byte	0x75
 8268 1891 00       		.sleb128 0
 8269 1892 2D       		.uleb128 0x2d
 8270 1893 01       		.uleb128 0x1
 8271 1894 50       		.byte	0x50
 8272 1895 05       		.uleb128 0x5
 8273 1896 03       		.byte	0x3
 8274 1897 00000000 		.4byte	.LANCHOR13
 8275 189b 00       		.byte	0
 8276 189c 2E       		.uleb128 0x2e
 8277 189d 60090000 		.4byte	.LVL169
 8278 18a1 2D410000 		.4byte	0x412d
 8279 18a5 C3180000 		.4byte	0x18c3
 8280 18a9 2D       		.uleb128 0x2d
 8281 18aa 01       		.uleb128 0x1
 8282 18ab 51       		.byte	0x51
 8283 18ac 03       		.uleb128 0x3
 8284 18ad 91       		.byte	0x91
 8285 18ae A07E     		.sleb128 -224
 8286 18b0 2D       		.uleb128 0x2d
 8287 18b1 02       		.uleb128 0x2
 8288 18b2 90       		.byte	0x90
 8289 18b3 40       		.uleb128 0x40
 8290 18b4 07       		.uleb128 0x7
 8291 18b5 F4       		.byte	0xf4
 8292 18b6 25       		.uleb128 0x25
 8293 18b7 04       		.byte	0x4
 8294 18b8 00007A44 		.4byte	0x447a0000
 8295 18bc 2D       		.uleb128 0x2d
 8296 18bd 01       		.uleb128 0x1
 8297 18be 50       		.byte	0x50
 8298 18bf 02       		.uleb128 0x2
 8299 18c0 74       		.byte	0x74
 8300 18c1 00       		.sleb128 0
ARM GAS  /tmp/ccy8OeyM.s 			page 147


 8301 18c2 00       		.byte	0
 8302 18c3 2E       		.uleb128 0x2e
 8303 18c4 80090000 		.4byte	.LVL171
 8304 18c8 4C410000 		.4byte	0x414c
 8305 18cc D7180000 		.4byte	0x18d7
 8306 18d0 2D       		.uleb128 0x2d
 8307 18d1 01       		.uleb128 0x1
 8308 18d2 50       		.byte	0x50
 8309 18d3 02       		.uleb128 0x2
 8310 18d4 75       		.byte	0x75
 8311 18d5 00       		.sleb128 0
 8312 18d6 00       		.byte	0
 8313 18d7 2E       		.uleb128 0x2e
 8314 18d8 8A090000 		.4byte	.LVL172
 8315 18dc 63410000 		.4byte	0x4163
 8316 18e0 F4180000 		.4byte	0x18f4
 8317 18e4 2D       		.uleb128 0x2d
 8318 18e5 01       		.uleb128 0x1
 8319 18e6 50       		.byte	0x50
 8320 18e7 03       		.uleb128 0x3
 8321 18e8 91       		.byte	0x91
 8322 18e9 A87E     		.sleb128 -216
 8323 18eb 2D       		.uleb128 0x2d
 8324 18ec 02       		.uleb128 0x2
 8325 18ed 90       		.byte	0x90
 8326 18ee 40       		.uleb128 0x40
 8327 18ef 03       		.uleb128 0x3
 8328 18f0 F5       		.byte	0xf5
 8329 18f1 50       		.uleb128 0x50
 8330 18f2 25       		.uleb128 0x25
 8331 18f3 00       		.byte	0
 8332 18f4 2F       		.uleb128 0x2f
 8333 18f5 92090000 		.4byte	.LVL174
 8334 18f9 4C410000 		.4byte	0x414c
 8335 18fd 2D       		.uleb128 0x2d
 8336 18fe 01       		.uleb128 0x1
 8337 18ff 50       		.byte	0x50
 8338 1900 05       		.uleb128 0x5
 8339 1901 03       		.byte	0x3
 8340 1902 00000000 		.4byte	.LANCHOR13
 8341 1906 00       		.byte	0
 8342 1907 00       		.byte	0
 8343 1908 3D       		.uleb128 0x3d
 8344 1909 CC090000 		.4byte	.LBB122
 8345 190d E8000000 		.4byte	.LBE122-.LBB122
 8346 1911 9B1A0000 		.4byte	0x1a9b
 8347 1915 3E       		.uleb128 0x3e
 8348 1916 8C100000 		.4byte	.LASF418
 8349 191a 01       		.byte	0x1
 8350 191b 9D02     		.2byte	0x29d
 8351 191d 25000000 		.4byte	0x25
 8352 1921 47070000 		.4byte	.LLST30
 8353 1925 3F       		.uleb128 0x3f
 8354 1926 591B0000 		.4byte	.LASF94
 8355 192a 01       		.byte	0x1
 8356 192b A502     		.2byte	0x2a5
 8357 192d 25000000 		.4byte	0x25
ARM GAS  /tmp/ccy8OeyM.s 			page 148


 8358 1931 03       		.uleb128 0x3
 8359 1932 91       		.byte	0x91
 8360 1933 A47E     		.sleb128 -220
 8361 1935 3F       		.uleb128 0x3f
 8362 1936 36180000 		.4byte	.LASF420
 8363 193a 01       		.byte	0x1
 8364 193b A602     		.2byte	0x2a6
 8365 193d 25000000 		.4byte	0x25
 8366 1941 03       		.uleb128 0x3
 8367 1942 91       		.byte	0x91
 8368 1943 A87E     		.sleb128 -216
 8369 1945 3F       		.uleb128 0x3f
 8370 1946 B81E0000 		.4byte	.LASF421
 8371 194a 01       		.byte	0x1
 8372 194b A702     		.2byte	0x2a7
 8373 194d 9E0C0000 		.4byte	0xc9e
 8374 1951 03       		.uleb128 0x3
 8375 1952 91       		.byte	0x91
 8376 1953 9F7E     		.sleb128 -225
 8377 1955 27       		.uleb128 0x27
 8378 1956 19140000 		.4byte	0x1419
 8379 195a 6C0A0000 		.4byte	.LBB123
 8380 195e 50010000 		.4byte	.Ldebug_ranges0+0x150
 8381 1962 01       		.byte	0x1
 8382 1963 B002     		.2byte	0x2b0
 8383 1965 88190000 		.4byte	0x1988
 8384 1969 2B       		.uleb128 0x2b
 8385 196a 30140000 		.4byte	0x1430
 8386 196e 67070000 		.4byte	.LLST31
 8387 1972 2B       		.uleb128 0x2b
 8388 1973 25140000 		.4byte	0x1425
 8389 1977 7A070000 		.4byte	.LLST32
 8390 197b 3A       		.uleb128 0x3a
 8391 197c 860A0000 		.4byte	.LVL195
 8392 1980 2D       		.uleb128 0x2d
 8393 1981 01       		.uleb128 0x1
 8394 1982 50       		.byte	0x50
 8395 1983 02       		.uleb128 0x2
 8396 1984 76       		.byte	0x76
 8397 1985 00       		.sleb128 0
 8398 1986 00       		.byte	0
 8399 1987 00       		.byte	0
 8400 1988 41       		.uleb128 0x41
 8401 1989 D0090000 		.4byte	.LVL180
 8402 198d 7D410000 		.4byte	0x417d
 8403 1991 2E       		.uleb128 0x2e
 8404 1992 E2090000 		.4byte	.LVL182
 8405 1996 09410000 		.4byte	0x4109
 8406 199a AC190000 		.4byte	0x19ac
 8407 199e 2D       		.uleb128 0x2d
 8408 199f 01       		.uleb128 0x1
 8409 19a0 52       		.byte	0x52
 8410 19a1 03       		.uleb128 0x3
 8411 19a2 0A       		.byte	0xa
 8412 19a3 3401     		.2byte	0x134
 8413 19a5 2D       		.uleb128 0x2d
 8414 19a6 01       		.uleb128 0x1
ARM GAS  /tmp/ccy8OeyM.s 			page 149


 8415 19a7 50       		.byte	0x50
 8416 19a8 02       		.uleb128 0x2
 8417 19a9 75       		.byte	0x75
 8418 19aa 00       		.sleb128 0
 8419 19ab 00       		.byte	0
 8420 19ac 2E       		.uleb128 0x2e
 8421 19ad F2090000 		.4byte	.LVL184
 8422 19b1 09410000 		.4byte	0x4109
 8423 19b5 D0190000 		.4byte	0x19d0
 8424 19b9 2D       		.uleb128 0x2d
 8425 19ba 01       		.uleb128 0x1
 8426 19bb 52       		.byte	0x52
 8427 19bc 03       		.uleb128 0x3
 8428 19bd 0A       		.byte	0xa
 8429 19be 3401     		.2byte	0x134
 8430 19c0 2D       		.uleb128 0x2d
 8431 19c1 01       		.uleb128 0x1
 8432 19c2 51       		.byte	0x51
 8433 19c3 02       		.uleb128 0x2
 8434 19c4 75       		.byte	0x75
 8435 19c5 00       		.sleb128 0
 8436 19c6 2D       		.uleb128 0x2d
 8437 19c7 01       		.uleb128 0x1
 8438 19c8 50       		.byte	0x50
 8439 19c9 05       		.uleb128 0x5
 8440 19ca 03       		.byte	0x3
 8441 19cb 00000000 		.4byte	.LANCHOR13
 8442 19cf 00       		.byte	0
 8443 19d0 2E       		.uleb128 0x2e
 8444 19d1 020A0000 		.4byte	.LVL185
 8445 19d5 2D410000 		.4byte	0x412d
 8446 19d9 F6190000 		.4byte	0x19f6
 8447 19dd 2D       		.uleb128 0x2d
 8448 19de 01       		.uleb128 0x1
 8449 19df 51       		.byte	0x51
 8450 19e0 02       		.uleb128 0x2
 8451 19e1 77       		.byte	0x77
 8452 19e2 00       		.sleb128 0
 8453 19e3 2D       		.uleb128 0x2d
 8454 19e4 02       		.uleb128 0x2
 8455 19e5 90       		.byte	0x90
 8456 19e6 40       		.uleb128 0x40
 8457 19e7 07       		.uleb128 0x7
 8458 19e8 F4       		.byte	0xf4
 8459 19e9 25       		.uleb128 0x25
 8460 19ea 04       		.byte	0x4
 8461 19eb 00007A44 		.4byte	0x447a0000
 8462 19ef 2D       		.uleb128 0x2d
 8463 19f0 01       		.uleb128 0x1
 8464 19f1 50       		.byte	0x50
 8465 19f2 02       		.uleb128 0x2
 8466 19f3 74       		.byte	0x74
 8467 19f4 00       		.sleb128 0
 8468 19f5 00       		.byte	0
 8469 19f6 2E       		.uleb128 0x2e
 8470 19f7 240A0000 		.4byte	.LVL188
 8471 19fb 4C410000 		.4byte	0x414c
ARM GAS  /tmp/ccy8OeyM.s 			page 150


 8472 19ff 0A1A0000 		.4byte	0x1a0a
 8473 1a03 2D       		.uleb128 0x2d
 8474 1a04 01       		.uleb128 0x1
 8475 1a05 50       		.byte	0x50
 8476 1a06 02       		.uleb128 0x2
 8477 1a07 75       		.byte	0x75
 8478 1a08 00       		.sleb128 0
 8479 1a09 00       		.byte	0
 8480 1a0a 2E       		.uleb128 0x2e
 8481 1a0b 3E0A0000 		.4byte	.LVL189
 8482 1a0f 98410000 		.4byte	0x4198
 8483 1a13 3B1A0000 		.4byte	0x1a3b
 8484 1a17 2D       		.uleb128 0x2d
 8485 1a18 01       		.uleb128 0x1
 8486 1a19 53       		.byte	0x53
 8487 1a1a 03       		.uleb128 0x3
 8488 1a1b 91       		.byte	0x91
 8489 1a1c 9F7E     		.sleb128 -225
 8490 1a1e 2D       		.uleb128 0x2d
 8491 1a1f 01       		.uleb128 0x1
 8492 1a20 52       		.byte	0x52
 8493 1a21 03       		.uleb128 0x3
 8494 1a22 91       		.byte	0x91
 8495 1a23 A87E     		.sleb128 -216
 8496 1a25 2D       		.uleb128 0x2d
 8497 1a26 01       		.uleb128 0x1
 8498 1a27 51       		.byte	0x51
 8499 1a28 03       		.uleb128 0x3
 8500 1a29 91       		.byte	0x91
 8501 1a2a A47E     		.sleb128 -220
 8502 1a2c 2D       		.uleb128 0x2d
 8503 1a2d 01       		.uleb128 0x1
 8504 1a2e 50       		.byte	0x50
 8505 1a2f 02       		.uleb128 0x2
 8506 1a30 74       		.byte	0x74
 8507 1a31 00       		.sleb128 0
 8508 1a32 2D       		.uleb128 0x2d
 8509 1a33 02       		.uleb128 0x2
 8510 1a34 90       		.byte	0x90
 8511 1a35 40       		.uleb128 0x40
 8512 1a36 03       		.uleb128 0x3
 8513 1a37 F5       		.byte	0xf5
 8514 1a38 50       		.uleb128 0x50
 8515 1a39 25       		.uleb128 0x25
 8516 1a3a 00       		.byte	0
 8517 1a3b 2E       		.uleb128 0x2e
 8518 1a3c 440A0000 		.4byte	.LVL190
 8519 1a40 4C410000 		.4byte	0x414c
 8520 1a44 521A0000 		.4byte	0x1a52
 8521 1a48 2D       		.uleb128 0x2d
 8522 1a49 01       		.uleb128 0x1
 8523 1a4a 50       		.byte	0x50
 8524 1a4b 05       		.uleb128 0x5
 8525 1a4c 03       		.byte	0x3
 8526 1a4d 00000000 		.4byte	.LANCHOR13
 8527 1a51 00       		.byte	0
 8528 1a52 2E       		.uleb128 0x2e
ARM GAS  /tmp/ccy8OeyM.s 			page 151


 8529 1a53 5C0A0000 		.4byte	.LVL191
 8530 1a57 C3410000 		.4byte	0x41c3
 8531 1a5b 781A0000 		.4byte	0x1a78
 8532 1a5f 2D       		.uleb128 0x2d
 8533 1a60 01       		.uleb128 0x1
 8534 1a61 51       		.byte	0x51
 8535 1a62 02       		.uleb128 0x2
 8536 1a63 77       		.byte	0x77
 8537 1a64 00       		.sleb128 0
 8538 1a65 2D       		.uleb128 0x2d
 8539 1a66 02       		.uleb128 0x2
 8540 1a67 90       		.byte	0x90
 8541 1a68 41       		.uleb128 0x41
 8542 1a69 07       		.uleb128 0x7
 8543 1a6a F4       		.byte	0xf4
 8544 1a6b 25       		.uleb128 0x25
 8545 1a6c 04       		.byte	0x4
 8546 1a6d 00247449 		.4byte	0x49742400
 8547 1a71 2D       		.uleb128 0x2d
 8548 1a72 01       		.uleb128 0x1
 8549 1a73 50       		.byte	0x50
 8550 1a74 02       		.uleb128 0x2
 8551 1a75 76       		.byte	0x76
 8552 1a76 00       		.sleb128 0
 8553 1a77 00       		.byte	0
 8554 1a78 2F       		.uleb128 0x2f
 8555 1a79 6C0A0000 		.4byte	.LVL192
 8556 1a7d C3410000 		.4byte	0x41c3
 8557 1a81 2D       		.uleb128 0x2d
 8558 1a82 01       		.uleb128 0x1
 8559 1a83 51       		.byte	0x51
 8560 1a84 02       		.uleb128 0x2
 8561 1a85 77       		.byte	0x77
 8562 1a86 00       		.sleb128 0
 8563 1a87 2D       		.uleb128 0x2d
 8564 1a88 02       		.uleb128 0x2
 8565 1a89 90       		.byte	0x90
 8566 1a8a 41       		.uleb128 0x41
 8567 1a8b 07       		.uleb128 0x7
 8568 1a8c F4       		.byte	0xf4
 8569 1a8d 25       		.uleb128 0x25
 8570 1a8e 04       		.byte	0x4
 8571 1a8f 00247449 		.4byte	0x49742400
 8572 1a93 2D       		.uleb128 0x2d
 8573 1a94 01       		.uleb128 0x1
 8574 1a95 50       		.byte	0x50
 8575 1a96 02       		.uleb128 0x2
 8576 1a97 76       		.byte	0x76
 8577 1a98 00       		.sleb128 0
 8578 1a99 00       		.byte	0
 8579 1a9a 00       		.byte	0
 8580 1a9b 3D       		.uleb128 0x3d
 8581 1a9c B40A0000 		.4byte	.LBB129
 8582 1aa0 88000000 		.4byte	.LBE129-.LBB129
 8583 1aa4 021C0000 		.4byte	0x1c02
 8584 1aa8 3E       		.uleb128 0x3e
 8585 1aa9 8C100000 		.4byte	.LASF418
ARM GAS  /tmp/ccy8OeyM.s 			page 152


 8586 1aad 01       		.byte	0x1
 8587 1aae 8402     		.2byte	0x284
 8588 1ab0 25000000 		.4byte	0x25
 8589 1ab4 92070000 		.4byte	.LLST33
 8590 1ab8 3E       		.uleb128 0x3e
 8591 1ab9 C4150000 		.4byte	.LASF422
 8592 1abd 01       		.byte	0x1
 8593 1abe 8502     		.2byte	0x285
 8594 1ac0 25000000 		.4byte	0x25
 8595 1ac4 BE070000 		.4byte	.LLST34
 8596 1ac8 3E       		.uleb128 0x3e
 8597 1ac9 D4160000 		.4byte	.LASF423
 8598 1acd 01       		.byte	0x1
 8599 1ace 8602     		.2byte	0x286
 8600 1ad0 25000000 		.4byte	0x25
 8601 1ad4 EA070000 		.4byte	.LLST35
 8602 1ad8 3E       		.uleb128 0x3e
 8603 1ad9 7B040000 		.4byte	.LASF424
 8604 1add 01       		.byte	0x1
 8605 1ade 8702     		.2byte	0x287
 8606 1ae0 25000000 		.4byte	0x25
 8607 1ae4 16080000 		.4byte	.LLST36
 8608 1ae8 3F       		.uleb128 0x3f
 8609 1ae9 83050000 		.4byte	.LASF425
 8610 1aed 01       		.byte	0x1
 8611 1aee 8902     		.2byte	0x289
 8612 1af0 25000000 		.4byte	0x25
 8613 1af4 03       		.uleb128 0x3
 8614 1af5 91       		.byte	0x91
 8615 1af6 A87E     		.sleb128 -216
 8616 1af8 40       		.uleb128 0x40
 8617 1af9 72657300 		.ascii	"res\000"
 8618 1afd 01       		.byte	0x1
 8619 1afe 8A02     		.2byte	0x28a
 8620 1b00 9E0C0000 		.4byte	0xc9e
 8621 1b04 36080000 		.4byte	.LLST37
 8622 1b08 27       		.uleb128 0x27
 8623 1b09 19140000 		.4byte	0x1419
 8624 1b0d 2E0B0000 		.4byte	.LBB130
 8625 1b11 70010000 		.4byte	.Ldebug_ranges0+0x170
 8626 1b15 01       		.byte	0x1
 8627 1b16 9302     		.2byte	0x293
 8628 1b18 2F1B0000 		.4byte	0x1b2f
 8629 1b1c 2B       		.uleb128 0x2b
 8630 1b1d 30140000 		.4byte	0x1430
 8631 1b21 54080000 		.4byte	.LLST38
 8632 1b25 2B       		.uleb128 0x2b
 8633 1b26 25140000 		.4byte	0x1425
 8634 1b2a 67080000 		.4byte	.LLST39
 8635 1b2e 00       		.byte	0
 8636 1b2f 2E       		.uleb128 0x2e
 8637 1b30 C00A0000 		.4byte	.LVL197
 8638 1b34 2D410000 		.4byte	0x412d
 8639 1b38 561B0000 		.4byte	0x1b56
 8640 1b3c 2D       		.uleb128 0x2d
 8641 1b3d 01       		.uleb128 0x1
 8642 1b3e 51       		.byte	0x51
ARM GAS  /tmp/ccy8OeyM.s 			page 153


 8643 1b3f 03       		.uleb128 0x3
 8644 1b40 91       		.byte	0x91
 8645 1b41 A07E     		.sleb128 -224
 8646 1b43 2D       		.uleb128 0x2d
 8647 1b44 02       		.uleb128 0x2
 8648 1b45 90       		.byte	0x90
 8649 1b46 40       		.uleb128 0x40
 8650 1b47 07       		.uleb128 0x7
 8651 1b48 F4       		.byte	0xf4
 8652 1b49 25       		.uleb128 0x25
 8653 1b4a 04       		.byte	0x4
 8654 1b4b 00007A44 		.4byte	0x447a0000
 8655 1b4f 2D       		.uleb128 0x2d
 8656 1b50 01       		.uleb128 0x1
 8657 1b51 50       		.byte	0x50
 8658 1b52 02       		.uleb128 0x2
 8659 1b53 74       		.byte	0x74
 8660 1b54 00       		.sleb128 0
 8661 1b55 00       		.byte	0
 8662 1b56 2E       		.uleb128 0x2e
 8663 1b57 D00A0000 		.4byte	.LVL200
 8664 1b5b 2D410000 		.4byte	0x412d
 8665 1b5f 7D1B0000 		.4byte	0x1b7d
 8666 1b63 2D       		.uleb128 0x2d
 8667 1b64 01       		.uleb128 0x1
 8668 1b65 51       		.byte	0x51
 8669 1b66 03       		.uleb128 0x3
 8670 1b67 91       		.byte	0x91
 8671 1b68 A07E     		.sleb128 -224
 8672 1b6a 2D       		.uleb128 0x2d
 8673 1b6b 02       		.uleb128 0x2
 8674 1b6c 90       		.byte	0x90
 8675 1b6d 40       		.uleb128 0x40
 8676 1b6e 07       		.uleb128 0x7
 8677 1b6f F4       		.byte	0xf4
 8678 1b70 25       		.uleb128 0x25
 8679 1b71 04       		.byte	0x4
 8680 1b72 00007A44 		.4byte	0x447a0000
 8681 1b76 2D       		.uleb128 0x2d
 8682 1b77 01       		.uleb128 0x1
 8683 1b78 50       		.byte	0x50
 8684 1b79 02       		.uleb128 0x2
 8685 1b7a 74       		.byte	0x74
 8686 1b7b 00       		.sleb128 0
 8687 1b7c 00       		.byte	0
 8688 1b7d 2E       		.uleb128 0x2e
 8689 1b7e E00A0000 		.4byte	.LVL203
 8690 1b82 2D410000 		.4byte	0x412d
 8691 1b86 A41B0000 		.4byte	0x1ba4
 8692 1b8a 2D       		.uleb128 0x2d
 8693 1b8b 01       		.uleb128 0x1
 8694 1b8c 51       		.byte	0x51
 8695 1b8d 03       		.uleb128 0x3
 8696 1b8e 91       		.byte	0x91
 8697 1b8f A07E     		.sleb128 -224
 8698 1b91 2D       		.uleb128 0x2d
 8699 1b92 02       		.uleb128 0x2
ARM GAS  /tmp/ccy8OeyM.s 			page 154


 8700 1b93 90       		.byte	0x90
 8701 1b94 40       		.uleb128 0x40
 8702 1b95 07       		.uleb128 0x7
 8703 1b96 F4       		.byte	0xf4
 8704 1b97 25       		.uleb128 0x25
 8705 1b98 04       		.byte	0x4
 8706 1b99 00007A44 		.4byte	0x447a0000
 8707 1b9d 2D       		.uleb128 0x2d
 8708 1b9e 01       		.uleb128 0x1
 8709 1b9f 50       		.byte	0x50
 8710 1ba0 02       		.uleb128 0x2
 8711 1ba1 74       		.byte	0x74
 8712 1ba2 00       		.sleb128 0
 8713 1ba3 00       		.byte	0
 8714 1ba4 2E       		.uleb128 0x2e
 8715 1ba5 F00A0000 		.4byte	.LVL206
 8716 1ba9 2D410000 		.4byte	0x412d
 8717 1bad CB1B0000 		.4byte	0x1bcb
 8718 1bb1 2D       		.uleb128 0x2d
 8719 1bb2 01       		.uleb128 0x1
 8720 1bb3 51       		.byte	0x51
 8721 1bb4 03       		.uleb128 0x3
 8722 1bb5 91       		.byte	0x91
 8723 1bb6 A07E     		.sleb128 -224
 8724 1bb8 2D       		.uleb128 0x2d
 8725 1bb9 02       		.uleb128 0x2
 8726 1bba 90       		.byte	0x90
 8727 1bbb 40       		.uleb128 0x40
 8728 1bbc 07       		.uleb128 0x7
 8729 1bbd F4       		.byte	0xf4
 8730 1bbe 25       		.uleb128 0x25
 8731 1bbf 04       		.byte	0x4
 8732 1bc0 00247449 		.4byte	0x49742400
 8733 1bc4 2D       		.uleb128 0x2d
 8734 1bc5 01       		.uleb128 0x1
 8735 1bc6 50       		.byte	0x50
 8736 1bc7 02       		.uleb128 0x2
 8737 1bc8 74       		.byte	0x74
 8738 1bc9 00       		.sleb128 0
 8739 1bca 00       		.byte	0
 8740 1bcb 2E       		.uleb128 0x2e
 8741 1bcc 060B0000 		.4byte	.LVL209
 8742 1bd0 E3410000 		.4byte	0x41e3
 8743 1bd4 F81B0000 		.4byte	0x1bf8
 8744 1bd8 2D       		.uleb128 0x2d
 8745 1bd9 01       		.uleb128 0x1
 8746 1bda 50       		.byte	0x50
 8747 1bdb 03       		.uleb128 0x3
 8748 1bdc 91       		.byte	0x91
 8749 1bdd A87E     		.sleb128 -216
 8750 1bdf 2D       		.uleb128 0x2d
 8751 1be0 02       		.uleb128 0x2
 8752 1be1 90       		.byte	0x90
 8753 1be2 42       		.uleb128 0x42
 8754 1be3 03       		.uleb128 0x3
 8755 1be4 F5       		.byte	0xf5
 8756 1be5 50       		.uleb128 0x50
ARM GAS  /tmp/ccy8OeyM.s 			page 155


 8757 1be6 25       		.uleb128 0x25
 8758 1be7 2D       		.uleb128 0x2d
 8759 1be8 02       		.uleb128 0x2
 8760 1be9 90       		.byte	0x90
 8761 1bea 41       		.uleb128 0x41
 8762 1beb 03       		.uleb128 0x3
 8763 1bec F5       		.byte	0xf5
 8764 1bed 51       		.uleb128 0x51
 8765 1bee 25       		.uleb128 0x25
 8766 1bef 2D       		.uleb128 0x2d
 8767 1bf0 02       		.uleb128 0x2
 8768 1bf1 90       		.byte	0x90
 8769 1bf2 40       		.uleb128 0x40
 8770 1bf3 03       		.uleb128 0x3
 8771 1bf4 F5       		.byte	0xf5
 8772 1bf5 52       		.uleb128 0x52
 8773 1bf6 25       		.uleb128 0x25
 8774 1bf7 00       		.byte	0
 8775 1bf8 41       		.uleb128 0x41
 8776 1bf9 2E0B0000 		.4byte	.LVL213
 8777 1bfd C3410000 		.4byte	0x41c3
 8778 1c01 00       		.byte	0
 8779 1c02 3D       		.uleb128 0x3d
 8780 1c03 3C0B0000 		.4byte	.LBB134
 8781 1c07 7E000000 		.4byte	.LBE134-.LBB134
 8782 1c0b ED1C0000 		.4byte	0x1ced
 8783 1c0f 2A       		.uleb128 0x2a
 8784 1c10 7200     		.ascii	"r\000"
 8785 1c12 01       		.byte	0x1
 8786 1c13 7002     		.2byte	0x270
 8787 1c15 25000000 		.4byte	0x25
 8788 1c19 03       		.uleb128 0x3
 8789 1c1a 91       		.byte	0x91
 8790 1c1b A47E     		.sleb128 -220
 8791 1c1d 2A       		.uleb128 0x2a
 8792 1c1e 6C00     		.ascii	"l\000"
 8793 1c20 01       		.byte	0x1
 8794 1c21 7102     		.2byte	0x271
 8795 1c23 25000000 		.4byte	0x25
 8796 1c27 03       		.uleb128 0x3
 8797 1c28 91       		.byte	0x91
 8798 1c29 A87E     		.sleb128 -216
 8799 1c2b 40       		.uleb128 0x40
 8800 1c2c 72657300 		.ascii	"res\000"
 8801 1c30 01       		.byte	0x1
 8802 1c31 7202     		.2byte	0x272
 8803 1c33 9E0C0000 		.4byte	0xc9e
 8804 1c37 7F080000 		.4byte	.LLST40
 8805 1c3b 41       		.uleb128 0x41
 8806 1c3c 400B0000 		.4byte	.LVL216
 8807 1c40 7D410000 		.4byte	0x417d
 8808 1c44 2E       		.uleb128 0x2e
 8809 1c45 520B0000 		.4byte	.LVL218
 8810 1c49 09410000 		.4byte	0x4109
 8811 1c4d 5F1C0000 		.4byte	0x1c5f
 8812 1c51 2D       		.uleb128 0x2d
 8813 1c52 01       		.uleb128 0x1
ARM GAS  /tmp/ccy8OeyM.s 			page 156


 8814 1c53 52       		.byte	0x52
 8815 1c54 03       		.uleb128 0x3
 8816 1c55 0A       		.byte	0xa
 8817 1c56 3401     		.2byte	0x134
 8818 1c58 2D       		.uleb128 0x2d
 8819 1c59 01       		.uleb128 0x1
 8820 1c5a 50       		.byte	0x50
 8821 1c5b 02       		.uleb128 0x2
 8822 1c5c 74       		.byte	0x74
 8823 1c5d 00       		.sleb128 0
 8824 1c5e 00       		.byte	0
 8825 1c5f 2E       		.uleb128 0x2e
 8826 1c60 5E0B0000 		.4byte	.LVL219
 8827 1c64 09410000 		.4byte	0x4109
 8828 1c68 831C0000 		.4byte	0x1c83
 8829 1c6c 2D       		.uleb128 0x2d
 8830 1c6d 01       		.uleb128 0x1
 8831 1c6e 52       		.byte	0x52
 8832 1c6f 03       		.uleb128 0x3
 8833 1c70 0A       		.byte	0xa
 8834 1c71 3401     		.2byte	0x134
 8835 1c73 2D       		.uleb128 0x2d
 8836 1c74 01       		.uleb128 0x1
 8837 1c75 51       		.byte	0x51
 8838 1c76 02       		.uleb128 0x2
 8839 1c77 74       		.byte	0x74
 8840 1c78 00       		.sleb128 0
 8841 1c79 2D       		.uleb128 0x2d
 8842 1c7a 01       		.uleb128 0x1
 8843 1c7b 50       		.byte	0x50
 8844 1c7c 05       		.uleb128 0x5
 8845 1c7d 03       		.byte	0x3
 8846 1c7e 00000000 		.4byte	.LANCHOR13
 8847 1c82 00       		.byte	0
 8848 1c83 2E       		.uleb128 0x2e
 8849 1c84 680B0000 		.4byte	.LVL220
 8850 1c88 4C410000 		.4byte	0x414c
 8851 1c8c 971C0000 		.4byte	0x1c97
 8852 1c90 2D       		.uleb128 0x2d
 8853 1c91 01       		.uleb128 0x1
 8854 1c92 50       		.byte	0x50
 8855 1c93 02       		.uleb128 0x2
 8856 1c94 74       		.byte	0x74
 8857 1c95 00       		.sleb128 0
 8858 1c96 00       		.byte	0
 8859 1c97 2E       		.uleb128 0x2e
 8860 1c98 780B0000 		.4byte	.LVL221
 8861 1c9c 0C420000 		.4byte	0x420c
 8862 1ca0 B31C0000 		.4byte	0x1cb3
 8863 1ca4 2D       		.uleb128 0x2d
 8864 1ca5 01       		.uleb128 0x1
 8865 1ca6 51       		.byte	0x51
 8866 1ca7 03       		.uleb128 0x3
 8867 1ca8 91       		.byte	0x91
 8868 1ca9 A87E     		.sleb128 -216
 8869 1cab 2D       		.uleb128 0x2d
 8870 1cac 01       		.uleb128 0x1
ARM GAS  /tmp/ccy8OeyM.s 			page 157


 8871 1cad 50       		.byte	0x50
 8872 1cae 03       		.uleb128 0x3
 8873 1caf 91       		.byte	0x91
 8874 1cb0 A47E     		.sleb128 -220
 8875 1cb2 00       		.byte	0
 8876 1cb3 2E       		.uleb128 0x2e
 8877 1cb4 800B0000 		.4byte	.LVL223
 8878 1cb8 4C410000 		.4byte	0x414c
 8879 1cbc CA1C0000 		.4byte	0x1cca
 8880 1cc0 2D       		.uleb128 0x2d
 8881 1cc1 01       		.uleb128 0x1
 8882 1cc2 50       		.byte	0x50
 8883 1cc3 05       		.uleb128 0x5
 8884 1cc4 03       		.byte	0x3
 8885 1cc5 00000000 		.4byte	.LANCHOR13
 8886 1cc9 00       		.byte	0
 8887 1cca 2F       		.uleb128 0x2f
 8888 1ccb AC0B0000 		.4byte	.LVL226
 8889 1ccf C3410000 		.4byte	0x41c3
 8890 1cd3 2D       		.uleb128 0x2d
 8891 1cd4 01       		.uleb128 0x1
 8892 1cd5 51       		.byte	0x51
 8893 1cd6 02       		.uleb128 0x2
 8894 1cd7 75       		.byte	0x75
 8895 1cd8 00       		.sleb128 0
 8896 1cd9 2D       		.uleb128 0x2d
 8897 1cda 02       		.uleb128 0x2
 8898 1cdb 90       		.byte	0x90
 8899 1cdc 41       		.uleb128 0x41
 8900 1cdd 07       		.uleb128 0x7
 8901 1cde F4       		.byte	0xf4
 8902 1cdf 25       		.uleb128 0x25
 8903 1ce0 04       		.byte	0x4
 8904 1ce1 00247449 		.4byte	0x49742400
 8905 1ce5 2D       		.uleb128 0x2d
 8906 1ce6 01       		.uleb128 0x1
 8907 1ce7 50       		.byte	0x50
 8908 1ce8 02       		.uleb128 0x2
 8909 1ce9 74       		.byte	0x74
 8910 1cea 00       		.sleb128 0
 8911 1ceb 00       		.byte	0
 8912 1cec 00       		.byte	0
 8913 1ced 27       		.uleb128 0x27
 8914 1cee 19140000 		.4byte	0x1419
 8915 1cf2 B0110000 		.4byte	.LBB135
 8916 1cf6 88010000 		.4byte	.Ldebug_ranges0+0x188
 8917 1cfa 01       		.byte	0x1
 8918 1cfb BE01     		.2byte	0x1be
 8919 1cfd 141D0000 		.4byte	0x1d14
 8920 1d01 2B       		.uleb128 0x2b
 8921 1d02 30140000 		.4byte	0x1430
 8922 1d06 9D080000 		.4byte	.LLST41
 8923 1d0a 2B       		.uleb128 0x2b
 8924 1d0b 25140000 		.4byte	0x1425
 8925 1d0f B0080000 		.4byte	.LLST42
 8926 1d13 00       		.byte	0
 8927 1d14 27       		.uleb128 0x27
ARM GAS  /tmp/ccy8OeyM.s 			page 158


 8928 1d15 19140000 		.4byte	0x1419
 8929 1d19 4A170000 		.4byte	.LBB141
 8930 1d1d A8010000 		.4byte	.Ldebug_ranges0+0x1a8
 8931 1d21 01       		.byte	0x1
 8932 1d22 5A01     		.2byte	0x15a
 8933 1d24 3B1D0000 		.4byte	0x1d3b
 8934 1d28 2B       		.uleb128 0x2b
 8935 1d29 30140000 		.4byte	0x1430
 8936 1d2d C8080000 		.4byte	.LLST43
 8937 1d31 2B       		.uleb128 0x2b
 8938 1d32 25140000 		.4byte	0x1425
 8939 1d36 DC080000 		.4byte	.LLST44
 8940 1d3a 00       		.byte	0
 8941 1d3b 27       		.uleb128 0x27
 8942 1d3c 19140000 		.4byte	0x1419
 8943 1d40 781B0000 		.4byte	.LBB147
 8944 1d44 C8010000 		.4byte	.Ldebug_ranges0+0x1c8
 8945 1d48 01       		.byte	0x1
 8946 1d49 0702     		.2byte	0x207
 8947 1d4b 621D0000 		.4byte	0x1d62
 8948 1d4f 2B       		.uleb128 0x2b
 8949 1d50 30140000 		.4byte	0x1430
 8950 1d54 F4080000 		.4byte	.LLST45
 8951 1d58 2B       		.uleb128 0x2b
 8952 1d59 25140000 		.4byte	0x1425
 8953 1d5d 08090000 		.4byte	.LLST46
 8954 1d61 00       		.byte	0
 8955 1d62 27       		.uleb128 0x27
 8956 1d63 19140000 		.4byte	0x1419
 8957 1d67 101C0000 		.4byte	.LBB153
 8958 1d6b E8010000 		.4byte	.Ldebug_ranges0+0x1e8
 8959 1d6f 01       		.byte	0x1
 8960 1d70 B702     		.2byte	0x2b7
 8961 1d72 8A1D0000 		.4byte	0x1d8a
 8962 1d76 28       		.uleb128 0x28
 8963 1d77 30140000 		.4byte	0x1430
 8964 1d7b 01       		.uleb128 0x1
 8965 1d7c 51       		.byte	0x51
 8966 1d7d 28       		.uleb128 0x28
 8967 1d7e 25140000 		.4byte	0x1425
 8968 1d82 06       		.uleb128 0x6
 8969 1d83 03       		.byte	0x3
 8970 1d84 00000000 		.4byte	send_buffer
 8971 1d88 9F       		.byte	0x9f
 8972 1d89 00       		.byte	0
 8973 1d8a 2E       		.uleb128 0x2e
 8974 1d8b 7E000000 		.4byte	.LVL18
 8975 1d8f 26420000 		.4byte	0x4226
 8976 1d93 9F1D0000 		.4byte	0x1d9f
 8977 1d97 2D       		.uleb128 0x2d
 8978 1d98 01       		.uleb128 0x1
 8979 1d99 50       		.byte	0x50
 8980 1d9a 03       		.uleb128 0x3
 8981 1d9b 91       		.byte	0x91
 8982 1d9c A87E     		.sleb128 -216
 8983 1d9e 00       		.byte	0
 8984 1d9f 2E       		.uleb128 0x2e
ARM GAS  /tmp/ccy8OeyM.s 			page 159


 8985 1da0 9C000000 		.4byte	.LVL21
 8986 1da4 3D420000 		.4byte	0x423d
 8987 1da8 BA1D0000 		.4byte	0x1dba
 8988 1dac 2D       		.uleb128 0x2d
 8989 1dad 01       		.uleb128 0x1
 8990 1dae 52       		.byte	0x52
 8991 1daf 03       		.uleb128 0x3
 8992 1db0 91       		.byte	0x91
 8993 1db1 A07E     		.sleb128 -224
 8994 1db3 2D       		.uleb128 0x2d
 8995 1db4 01       		.uleb128 0x1
 8996 1db5 50       		.byte	0x50
 8997 1db6 02       		.uleb128 0x2
 8998 1db7 74       		.byte	0x74
 8999 1db8 00       		.sleb128 0
 9000 1db9 00       		.byte	0
 9001 1dba 2E       		.uleb128 0x2e
 9002 1dbb B4000000 		.4byte	.LVL22
 9003 1dbf BF400000 		.4byte	0x40bf
 9004 1dc3 D51D0000 		.4byte	0x1dd5
 9005 1dc7 2D       		.uleb128 0x2d
 9006 1dc8 01       		.uleb128 0x1
 9007 1dc9 52       		.byte	0x52
 9008 1dca 03       		.uleb128 0x3
 9009 1dcb 91       		.byte	0x91
 9010 1dcc A07E     		.sleb128 -224
 9011 1dce 2D       		.uleb128 0x2d
 9012 1dcf 01       		.uleb128 0x1
 9013 1dd0 50       		.byte	0x50
 9014 1dd1 02       		.uleb128 0x2
 9015 1dd2 74       		.byte	0x74
 9016 1dd3 00       		.sleb128 0
 9017 1dd4 00       		.byte	0
 9018 1dd5 2E       		.uleb128 0x2e
 9019 1dd6 CC000000 		.4byte	.LVL23
 9020 1dda 58420000 		.4byte	0x4258
 9021 1dde F01D0000 		.4byte	0x1df0
 9022 1de2 2D       		.uleb128 0x2d
 9023 1de3 01       		.uleb128 0x1
 9024 1de4 52       		.byte	0x52
 9025 1de5 03       		.uleb128 0x3
 9026 1de6 91       		.byte	0x91
 9027 1de7 A07E     		.sleb128 -224
 9028 1de9 2D       		.uleb128 0x2d
 9029 1dea 01       		.uleb128 0x1
 9030 1deb 50       		.byte	0x50
 9031 1dec 02       		.uleb128 0x2
 9032 1ded 74       		.byte	0x74
 9033 1dee 00       		.sleb128 0
 9034 1def 00       		.byte	0
 9035 1df0 2E       		.uleb128 0x2e
 9036 1df1 F8000000 		.4byte	.LVL24
 9037 1df5 BF400000 		.4byte	0x40bf
 9038 1df9 0B1E0000 		.4byte	0x1e0b
 9039 1dfd 2D       		.uleb128 0x2d
 9040 1dfe 01       		.uleb128 0x1
 9041 1dff 52       		.byte	0x52
ARM GAS  /tmp/ccy8OeyM.s 			page 160


 9042 1e00 03       		.uleb128 0x3
 9043 1e01 91       		.byte	0x91
 9044 1e02 A07E     		.sleb128 -224
 9045 1e04 2D       		.uleb128 0x2d
 9046 1e05 01       		.uleb128 0x1
 9047 1e06 50       		.byte	0x50
 9048 1e07 02       		.uleb128 0x2
 9049 1e08 74       		.byte	0x74
 9050 1e09 00       		.sleb128 0
 9051 1e0a 00       		.byte	0
 9052 1e0b 2E       		.uleb128 0x2e
 9053 1e0c 10010000 		.4byte	.LVL25
 9054 1e10 BF400000 		.4byte	0x40bf
 9055 1e14 261E0000 		.4byte	0x1e26
 9056 1e18 2D       		.uleb128 0x2d
 9057 1e19 01       		.uleb128 0x1
 9058 1e1a 52       		.byte	0x52
 9059 1e1b 03       		.uleb128 0x3
 9060 1e1c 91       		.byte	0x91
 9061 1e1d A07E     		.sleb128 -224
 9062 1e1f 2D       		.uleb128 0x2d
 9063 1e20 01       		.uleb128 0x1
 9064 1e21 50       		.byte	0x50
 9065 1e22 02       		.uleb128 0x2
 9066 1e23 74       		.byte	0x74
 9067 1e24 00       		.sleb128 0
 9068 1e25 00       		.byte	0
 9069 1e26 2E       		.uleb128 0x2e
 9070 1e27 28010000 		.4byte	.LVL26
 9071 1e2b BF400000 		.4byte	0x40bf
 9072 1e2f 411E0000 		.4byte	0x1e41
 9073 1e33 2D       		.uleb128 0x2d
 9074 1e34 01       		.uleb128 0x1
 9075 1e35 52       		.byte	0x52
 9076 1e36 03       		.uleb128 0x3
 9077 1e37 91       		.byte	0x91
 9078 1e38 A07E     		.sleb128 -224
 9079 1e3a 2D       		.uleb128 0x2d
 9080 1e3b 01       		.uleb128 0x1
 9081 1e3c 50       		.byte	0x50
 9082 1e3d 02       		.uleb128 0x2
 9083 1e3e 74       		.byte	0x74
 9084 1e3f 00       		.sleb128 0
 9085 1e40 00       		.byte	0
 9086 1e41 2E       		.uleb128 0x2e
 9087 1e42 40010000 		.4byte	.LVL27
 9088 1e46 BF400000 		.4byte	0x40bf
 9089 1e4a 5C1E0000 		.4byte	0x1e5c
 9090 1e4e 2D       		.uleb128 0x2d
 9091 1e4f 01       		.uleb128 0x1
 9092 1e50 52       		.byte	0x52
 9093 1e51 03       		.uleb128 0x3
 9094 1e52 91       		.byte	0x91
 9095 1e53 A07E     		.sleb128 -224
 9096 1e55 2D       		.uleb128 0x2d
 9097 1e56 01       		.uleb128 0x1
 9098 1e57 50       		.byte	0x50
ARM GAS  /tmp/ccy8OeyM.s 			page 161


 9099 1e58 02       		.uleb128 0x2
 9100 1e59 74       		.byte	0x74
 9101 1e5a 00       		.sleb128 0
 9102 1e5b 00       		.byte	0
 9103 1e5c 2E       		.uleb128 0x2e
 9104 1e5d 6C010000 		.4byte	.LVL28
 9105 1e61 BF400000 		.4byte	0x40bf
 9106 1e65 771E0000 		.4byte	0x1e77
 9107 1e69 2D       		.uleb128 0x2d
 9108 1e6a 01       		.uleb128 0x1
 9109 1e6b 52       		.byte	0x52
 9110 1e6c 03       		.uleb128 0x3
 9111 1e6d 91       		.byte	0x91
 9112 1e6e A07E     		.sleb128 -224
 9113 1e70 2D       		.uleb128 0x2d
 9114 1e71 01       		.uleb128 0x1
 9115 1e72 50       		.byte	0x50
 9116 1e73 02       		.uleb128 0x2
 9117 1e74 74       		.byte	0x74
 9118 1e75 00       		.sleb128 0
 9119 1e76 00       		.byte	0
 9120 1e77 2E       		.uleb128 0x2e
 9121 1e78 84010000 		.4byte	.LVL29
 9122 1e7c BF400000 		.4byte	0x40bf
 9123 1e80 921E0000 		.4byte	0x1e92
 9124 1e84 2D       		.uleb128 0x2d
 9125 1e85 01       		.uleb128 0x1
 9126 1e86 52       		.byte	0x52
 9127 1e87 03       		.uleb128 0x3
 9128 1e88 91       		.byte	0x91
 9129 1e89 A07E     		.sleb128 -224
 9130 1e8b 2D       		.uleb128 0x2d
 9131 1e8c 01       		.uleb128 0x1
 9132 1e8d 50       		.byte	0x50
 9133 1e8e 02       		.uleb128 0x2
 9134 1e8f 74       		.byte	0x74
 9135 1e90 00       		.sleb128 0
 9136 1e91 00       		.byte	0
 9137 1e92 2E       		.uleb128 0x2e
 9138 1e93 B0010000 		.4byte	.LVL30
 9139 1e97 BF400000 		.4byte	0x40bf
 9140 1e9b AD1E0000 		.4byte	0x1ead
 9141 1e9f 2D       		.uleb128 0x2d
 9142 1ea0 01       		.uleb128 0x1
 9143 1ea1 52       		.byte	0x52
 9144 1ea2 03       		.uleb128 0x3
 9145 1ea3 91       		.byte	0x91
 9146 1ea4 A07E     		.sleb128 -224
 9147 1ea6 2D       		.uleb128 0x2d
 9148 1ea7 01       		.uleb128 0x1
 9149 1ea8 50       		.byte	0x50
 9150 1ea9 02       		.uleb128 0x2
 9151 1eaa 74       		.byte	0x74
 9152 1eab 00       		.sleb128 0
 9153 1eac 00       		.byte	0
 9154 1ead 2E       		.uleb128 0x2e
 9155 1eae D4010000 		.4byte	.LVL31
ARM GAS  /tmp/ccy8OeyM.s 			page 162


 9156 1eb2 BF400000 		.4byte	0x40bf
 9157 1eb6 C81E0000 		.4byte	0x1ec8
 9158 1eba 2D       		.uleb128 0x2d
 9159 1ebb 01       		.uleb128 0x1
 9160 1ebc 52       		.byte	0x52
 9161 1ebd 03       		.uleb128 0x3
 9162 1ebe 91       		.byte	0x91
 9163 1ebf A07E     		.sleb128 -224
 9164 1ec1 2D       		.uleb128 0x2d
 9165 1ec2 01       		.uleb128 0x1
 9166 1ec3 50       		.byte	0x50
 9167 1ec4 02       		.uleb128 0x2
 9168 1ec5 74       		.byte	0x74
 9169 1ec6 00       		.sleb128 0
 9170 1ec7 00       		.byte	0
 9171 1ec8 2E       		.uleb128 0x2e
 9172 1ec9 EC010000 		.4byte	.LVL32
 9173 1ecd BF400000 		.4byte	0x40bf
 9174 1ed1 E31E0000 		.4byte	0x1ee3
 9175 1ed5 2D       		.uleb128 0x2d
 9176 1ed6 01       		.uleb128 0x1
 9177 1ed7 52       		.byte	0x52
 9178 1ed8 03       		.uleb128 0x3
 9179 1ed9 91       		.byte	0x91
 9180 1eda A07E     		.sleb128 -224
 9181 1edc 2D       		.uleb128 0x2d
 9182 1edd 01       		.uleb128 0x1
 9183 1ede 50       		.byte	0x50
 9184 1edf 02       		.uleb128 0x2
 9185 1ee0 74       		.byte	0x74
 9186 1ee1 00       		.sleb128 0
 9187 1ee2 00       		.byte	0
 9188 1ee3 2E       		.uleb128 0x2e
 9189 1ee4 04020000 		.4byte	.LVL33
 9190 1ee8 BF400000 		.4byte	0x40bf
 9191 1eec FE1E0000 		.4byte	0x1efe
 9192 1ef0 2D       		.uleb128 0x2d
 9193 1ef1 01       		.uleb128 0x1
 9194 1ef2 52       		.byte	0x52
 9195 1ef3 03       		.uleb128 0x3
 9196 1ef4 91       		.byte	0x91
 9197 1ef5 A07E     		.sleb128 -224
 9198 1ef7 2D       		.uleb128 0x2d
 9199 1ef8 01       		.uleb128 0x1
 9200 1ef9 50       		.byte	0x50
 9201 1efa 02       		.uleb128 0x2
 9202 1efb 74       		.byte	0x74
 9203 1efc 00       		.sleb128 0
 9204 1efd 00       		.byte	0
 9205 1efe 2E       		.uleb128 0x2e
 9206 1eff 46020000 		.4byte	.LVL35
 9207 1f03 BF400000 		.4byte	0x40bf
 9208 1f07 191F0000 		.4byte	0x1f19
 9209 1f0b 2D       		.uleb128 0x2d
 9210 1f0c 01       		.uleb128 0x1
 9211 1f0d 52       		.byte	0x52
 9212 1f0e 03       		.uleb128 0x3
ARM GAS  /tmp/ccy8OeyM.s 			page 163


 9213 1f0f 91       		.byte	0x91
 9214 1f10 A07E     		.sleb128 -224
 9215 1f12 2D       		.uleb128 0x2d
 9216 1f13 01       		.uleb128 0x1
 9217 1f14 50       		.byte	0x50
 9218 1f15 02       		.uleb128 0x2
 9219 1f16 74       		.byte	0x74
 9220 1f17 00       		.sleb128 0
 9221 1f18 00       		.byte	0
 9222 1f19 2E       		.uleb128 0x2e
 9223 1f1a 5E020000 		.4byte	.LVL36
 9224 1f1e BF400000 		.4byte	0x40bf
 9225 1f22 341F0000 		.4byte	0x1f34
 9226 1f26 2D       		.uleb128 0x2d
 9227 1f27 01       		.uleb128 0x1
 9228 1f28 52       		.byte	0x52
 9229 1f29 03       		.uleb128 0x3
 9230 1f2a 91       		.byte	0x91
 9231 1f2b A07E     		.sleb128 -224
 9232 1f2d 2D       		.uleb128 0x2d
 9233 1f2e 01       		.uleb128 0x1
 9234 1f2f 50       		.byte	0x50
 9235 1f30 02       		.uleb128 0x2
 9236 1f31 74       		.byte	0x74
 9237 1f32 00       		.sleb128 0
 9238 1f33 00       		.byte	0
 9239 1f34 2E       		.uleb128 0x2e
 9240 1f35 8A020000 		.4byte	.LVL37
 9241 1f39 BF400000 		.4byte	0x40bf
 9242 1f3d 4F1F0000 		.4byte	0x1f4f
 9243 1f41 2D       		.uleb128 0x2d
 9244 1f42 01       		.uleb128 0x1
 9245 1f43 52       		.byte	0x52
 9246 1f44 03       		.uleb128 0x3
 9247 1f45 91       		.byte	0x91
 9248 1f46 A07E     		.sleb128 -224
 9249 1f48 2D       		.uleb128 0x2d
 9250 1f49 01       		.uleb128 0x1
 9251 1f4a 50       		.byte	0x50
 9252 1f4b 02       		.uleb128 0x2
 9253 1f4c 74       		.byte	0x74
 9254 1f4d 00       		.sleb128 0
 9255 1f4e 00       		.byte	0
 9256 1f4f 2E       		.uleb128 0x2e
 9257 1f50 96020000 		.4byte	.LVL38
 9258 1f54 58420000 		.4byte	0x4258
 9259 1f58 6A1F0000 		.4byte	0x1f6a
 9260 1f5c 2D       		.uleb128 0x2d
 9261 1f5d 01       		.uleb128 0x1
 9262 1f5e 52       		.byte	0x52
 9263 1f5f 03       		.uleb128 0x3
 9264 1f60 91       		.byte	0x91
 9265 1f61 A07E     		.sleb128 -224
 9266 1f63 2D       		.uleb128 0x2d
 9267 1f64 01       		.uleb128 0x1
 9268 1f65 50       		.byte	0x50
 9269 1f66 02       		.uleb128 0x2
ARM GAS  /tmp/ccy8OeyM.s 			page 164


 9270 1f67 74       		.byte	0x74
 9271 1f68 00       		.sleb128 0
 9272 1f69 00       		.byte	0
 9273 1f6a 2E       		.uleb128 0x2e
 9274 1f6b A0020000 		.4byte	.LVL39
 9275 1f6f 3D420000 		.4byte	0x423d
 9276 1f73 851F0000 		.4byte	0x1f85
 9277 1f77 2D       		.uleb128 0x2d
 9278 1f78 01       		.uleb128 0x1
 9279 1f79 52       		.byte	0x52
 9280 1f7a 03       		.uleb128 0x3
 9281 1f7b 91       		.byte	0x91
 9282 1f7c A07E     		.sleb128 -224
 9283 1f7e 2D       		.uleb128 0x2d
 9284 1f7f 01       		.uleb128 0x1
 9285 1f80 50       		.byte	0x50
 9286 1f81 02       		.uleb128 0x2
 9287 1f82 74       		.byte	0x74
 9288 1f83 00       		.sleb128 0
 9289 1f84 00       		.byte	0
 9290 1f85 2E       		.uleb128 0x2e
 9291 1f86 BC020000 		.4byte	.LVL40
 9292 1f8a C3410000 		.4byte	0x41c3
 9293 1f8e A81F0000 		.4byte	0x1fa8
 9294 1f92 2D       		.uleb128 0x2d
 9295 1f93 01       		.uleb128 0x1
 9296 1f94 51       		.byte	0x51
 9297 1f95 03       		.uleb128 0x3
 9298 1f96 91       		.byte	0x91
 9299 1f97 A07E     		.sleb128 -224
 9300 1f99 2D       		.uleb128 0x2d
 9301 1f9a 02       		.uleb128 0x2
 9302 1f9b 90       		.byte	0x90
 9303 1f9c 41       		.uleb128 0x41
 9304 1f9d 03       		.uleb128 0x3
 9305 1f9e F5       		.byte	0xf5
 9306 1f9f 50       		.uleb128 0x50
 9307 1fa0 25       		.uleb128 0x25
 9308 1fa1 2D       		.uleb128 0x2d
 9309 1fa2 01       		.uleb128 0x1
 9310 1fa3 50       		.byte	0x50
 9311 1fa4 02       		.uleb128 0x2
 9312 1fa5 74       		.byte	0x74
 9313 1fa6 00       		.sleb128 0
 9314 1fa7 00       		.byte	0
 9315 1fa8 2E       		.uleb128 0x2e
 9316 1fa9 CC020000 		.4byte	.LVL41
 9317 1fad C3410000 		.4byte	0x41c3
 9318 1fb1 CB1F0000 		.4byte	0x1fcb
 9319 1fb5 2D       		.uleb128 0x2d
 9320 1fb6 01       		.uleb128 0x1
 9321 1fb7 51       		.byte	0x51
 9322 1fb8 03       		.uleb128 0x3
 9323 1fb9 91       		.byte	0x91
 9324 1fba A07E     		.sleb128 -224
 9325 1fbc 2D       		.uleb128 0x2d
 9326 1fbd 02       		.uleb128 0x2
ARM GAS  /tmp/ccy8OeyM.s 			page 165


 9327 1fbe 90       		.byte	0x90
 9328 1fbf 41       		.uleb128 0x41
 9329 1fc0 03       		.uleb128 0x3
 9330 1fc1 F5       		.byte	0xf5
 9331 1fc2 50       		.uleb128 0x50
 9332 1fc3 25       		.uleb128 0x25
 9333 1fc4 2D       		.uleb128 0x2d
 9334 1fc5 01       		.uleb128 0x1
 9335 1fc6 50       		.byte	0x50
 9336 1fc7 02       		.uleb128 0x2
 9337 1fc8 74       		.byte	0x74
 9338 1fc9 00       		.sleb128 0
 9339 1fca 00       		.byte	0
 9340 1fcb 2E       		.uleb128 0x2e
 9341 1fcc DC020000 		.4byte	.LVL42
 9342 1fd0 C3410000 		.4byte	0x41c3
 9343 1fd4 EE1F0000 		.4byte	0x1fee
 9344 1fd8 2D       		.uleb128 0x2d
 9345 1fd9 01       		.uleb128 0x1
 9346 1fda 51       		.byte	0x51
 9347 1fdb 03       		.uleb128 0x3
 9348 1fdc 91       		.byte	0x91
 9349 1fdd A07E     		.sleb128 -224
 9350 1fdf 2D       		.uleb128 0x2d
 9351 1fe0 02       		.uleb128 0x2
 9352 1fe1 90       		.byte	0x90
 9353 1fe2 41       		.uleb128 0x41
 9354 1fe3 03       		.uleb128 0x3
 9355 1fe4 F5       		.byte	0xf5
 9356 1fe5 50       		.uleb128 0x50
 9357 1fe6 25       		.uleb128 0x25
 9358 1fe7 2D       		.uleb128 0x2d
 9359 1fe8 01       		.uleb128 0x1
 9360 1fe9 50       		.byte	0x50
 9361 1fea 02       		.uleb128 0x2
 9362 1feb 74       		.byte	0x74
 9363 1fec 00       		.sleb128 0
 9364 1fed 00       		.byte	0
 9365 1fee 2E       		.uleb128 0x2e
 9366 1fef EC020000 		.4byte	.LVL43
 9367 1ff3 C3410000 		.4byte	0x41c3
 9368 1ff7 11200000 		.4byte	0x2011
 9369 1ffb 2D       		.uleb128 0x2d
 9370 1ffc 01       		.uleb128 0x1
 9371 1ffd 51       		.byte	0x51
 9372 1ffe 03       		.uleb128 0x3
 9373 1fff 91       		.byte	0x91
 9374 2000 A07E     		.sleb128 -224
 9375 2002 2D       		.uleb128 0x2d
 9376 2003 02       		.uleb128 0x2
 9377 2004 90       		.byte	0x90
 9378 2005 41       		.uleb128 0x41
 9379 2006 03       		.uleb128 0x3
 9380 2007 F5       		.byte	0xf5
 9381 2008 50       		.uleb128 0x50
 9382 2009 25       		.uleb128 0x25
 9383 200a 2D       		.uleb128 0x2d
ARM GAS  /tmp/ccy8OeyM.s 			page 166


 9384 200b 01       		.uleb128 0x1
 9385 200c 50       		.byte	0x50
 9386 200d 02       		.uleb128 0x2
 9387 200e 74       		.byte	0x74
 9388 200f 00       		.sleb128 0
 9389 2010 00       		.byte	0
 9390 2011 2E       		.uleb128 0x2e
 9391 2012 FC020000 		.4byte	.LVL44
 9392 2016 C3410000 		.4byte	0x41c3
 9393 201a 34200000 		.4byte	0x2034
 9394 201e 2D       		.uleb128 0x2d
 9395 201f 01       		.uleb128 0x1
 9396 2020 51       		.byte	0x51
 9397 2021 03       		.uleb128 0x3
 9398 2022 91       		.byte	0x91
 9399 2023 A07E     		.sleb128 -224
 9400 2025 2D       		.uleb128 0x2d
 9401 2026 02       		.uleb128 0x2
 9402 2027 90       		.byte	0x90
 9403 2028 41       		.uleb128 0x41
 9404 2029 03       		.uleb128 0x3
 9405 202a F5       		.byte	0xf5
 9406 202b 50       		.uleb128 0x50
 9407 202c 25       		.uleb128 0x25
 9408 202d 2D       		.uleb128 0x2d
 9409 202e 01       		.uleb128 0x1
 9410 202f 50       		.byte	0x50
 9411 2030 02       		.uleb128 0x2
 9412 2031 74       		.byte	0x74
 9413 2032 00       		.sleb128 0
 9414 2033 00       		.byte	0
 9415 2034 2E       		.uleb128 0x2e
 9416 2035 0C030000 		.4byte	.LVL45
 9417 2039 C3410000 		.4byte	0x41c3
 9418 203d 57200000 		.4byte	0x2057
 9419 2041 2D       		.uleb128 0x2d
 9420 2042 01       		.uleb128 0x1
 9421 2043 51       		.byte	0x51
 9422 2044 03       		.uleb128 0x3
 9423 2045 91       		.byte	0x91
 9424 2046 A07E     		.sleb128 -224
 9425 2048 2D       		.uleb128 0x2d
 9426 2049 02       		.uleb128 0x2
 9427 204a 90       		.byte	0x90
 9428 204b 41       		.uleb128 0x41
 9429 204c 03       		.uleb128 0x3
 9430 204d F5       		.byte	0xf5
 9431 204e 50       		.uleb128 0x50
 9432 204f 25       		.uleb128 0x25
 9433 2050 2D       		.uleb128 0x2d
 9434 2051 01       		.uleb128 0x1
 9435 2052 50       		.byte	0x50
 9436 2053 02       		.uleb128 0x2
 9437 2054 74       		.byte	0x74
 9438 2055 00       		.sleb128 0
 9439 2056 00       		.byte	0
 9440 2057 2E       		.uleb128 0x2e
ARM GAS  /tmp/ccy8OeyM.s 			page 167


 9441 2058 38030000 		.4byte	.LVL46
 9442 205c BF400000 		.4byte	0x40bf
 9443 2060 7D200000 		.4byte	0x207d
 9444 2064 2D       		.uleb128 0x2d
 9445 2065 01       		.uleb128 0x1
 9446 2066 52       		.byte	0x52
 9447 2067 03       		.uleb128 0x3
 9448 2068 91       		.byte	0x91
 9449 2069 A07E     		.sleb128 -224
 9450 206b 2D       		.uleb128 0x2d
 9451 206c 01       		.uleb128 0x1
 9452 206d 51       		.byte	0x51
 9453 206e 07       		.uleb128 0x7
 9454 206f F5       		.byte	0xf5
 9455 2070 50       		.uleb128 0x50
 9456 2071 25       		.uleb128 0x25
 9457 2072 F7       		.byte	0xf7
 9458 2073 2C       		.uleb128 0x2c
 9459 2074 F7       		.byte	0xf7
 9460 2075 00       		.uleb128 0
 9461 2076 2D       		.uleb128 0x2d
 9462 2077 01       		.uleb128 0x1
 9463 2078 50       		.byte	0x50
 9464 2079 02       		.uleb128 0x2
 9465 207a 74       		.byte	0x74
 9466 207b 00       		.sleb128 0
 9467 207c 00       		.byte	0
 9468 207d 41       		.uleb128 0x41
 9469 207e 9C030000 		.4byte	.LVL51
 9470 2082 7D410000 		.4byte	0x417d
 9471 2086 2E       		.uleb128 0x2e
 9472 2087 AA030000 		.4byte	.LVL53
 9473 208b 09410000 		.4byte	0x4109
 9474 208f A1200000 		.4byte	0x20a1
 9475 2093 2D       		.uleb128 0x2d
 9476 2094 01       		.uleb128 0x1
 9477 2095 52       		.byte	0x52
 9478 2096 03       		.uleb128 0x3
 9479 2097 0A       		.byte	0xa
 9480 2098 3401     		.2byte	0x134
 9481 209a 2D       		.uleb128 0x2d
 9482 209b 01       		.uleb128 0x1
 9483 209c 50       		.byte	0x50
 9484 209d 02       		.uleb128 0x2
 9485 209e 74       		.byte	0x74
 9486 209f 00       		.sleb128 0
 9487 20a0 00       		.byte	0
 9488 20a1 41       		.uleb128 0x41
 9489 20a2 C6030000 		.4byte	.LVL54
 9490 20a6 73420000 		.4byte	0x4273
 9491 20aa 41       		.uleb128 0x41
 9492 20ab CA030000 		.4byte	.LVL55
 9493 20af 7A420000 		.4byte	0x427a
 9494 20b3 2E       		.uleb128 0x2e
 9495 20b4 F8030000 		.4byte	.LVL60
 9496 20b8 81420000 		.4byte	0x4281
 9497 20bc C6200000 		.4byte	0x20c6
ARM GAS  /tmp/ccy8OeyM.s 			page 168


 9498 20c0 2D       		.uleb128 0x2d
 9499 20c1 01       		.uleb128 0x1
 9500 20c2 50       		.byte	0x50
 9501 20c3 01       		.uleb128 0x1
 9502 20c4 30       		.byte	0x30
 9503 20c5 00       		.byte	0
 9504 20c6 2E       		.uleb128 0x2e
 9505 20c7 0C040000 		.4byte	.LVL61
 9506 20cb BF400000 		.4byte	0x40bf
 9507 20cf E0200000 		.4byte	0x20e0
 9508 20d3 2D       		.uleb128 0x2d
 9509 20d4 01       		.uleb128 0x1
 9510 20d5 52       		.byte	0x52
 9511 20d6 02       		.uleb128 0x2
 9512 20d7 75       		.byte	0x75
 9513 20d8 00       		.sleb128 0
 9514 20d9 2D       		.uleb128 0x2d
 9515 20da 01       		.uleb128 0x1
 9516 20db 50       		.byte	0x50
 9517 20dc 02       		.uleb128 0x2
 9518 20dd 74       		.byte	0x74
 9519 20de 00       		.sleb128 0
 9520 20df 00       		.byte	0
 9521 20e0 2E       		.uleb128 0x2e
 9522 20e1 12040000 		.4byte	.LVL62
 9523 20e5 96420000 		.4byte	0x4296
 9524 20e9 F3200000 		.4byte	0x20f3
 9525 20ed 2D       		.uleb128 0x2d
 9526 20ee 01       		.uleb128 0x1
 9527 20ef 50       		.byte	0x50
 9528 20f0 01       		.uleb128 0x1
 9529 20f1 30       		.byte	0x30
 9530 20f2 00       		.byte	0
 9531 20f3 2E       		.uleb128 0x2e
 9532 20f4 26040000 		.4byte	.LVL63
 9533 20f8 BF400000 		.4byte	0x40bf
 9534 20fc 0D210000 		.4byte	0x210d
 9535 2100 2D       		.uleb128 0x2d
 9536 2101 01       		.uleb128 0x1
 9537 2102 52       		.byte	0x52
 9538 2103 02       		.uleb128 0x2
 9539 2104 75       		.byte	0x75
 9540 2105 00       		.sleb128 0
 9541 2106 2D       		.uleb128 0x2d
 9542 2107 01       		.uleb128 0x1
 9543 2108 50       		.byte	0x50
 9544 2109 02       		.uleb128 0x2
 9545 210a 74       		.byte	0x74
 9546 210b 00       		.sleb128 0
 9547 210c 00       		.byte	0
 9548 210d 2E       		.uleb128 0x2e
 9549 210e 46040000 		.4byte	.LVL68
 9550 2112 AB420000 		.4byte	0x42ab
 9551 2116 28210000 		.4byte	0x2128
 9552 211a 2D       		.uleb128 0x2d
 9553 211b 01       		.uleb128 0x1
 9554 211c 51       		.byte	0x51
ARM GAS  /tmp/ccy8OeyM.s 			page 169


 9555 211d 03       		.uleb128 0x3
 9556 211e 91       		.byte	0x91
 9557 211f A07E     		.sleb128 -224
 9558 2121 2D       		.uleb128 0x2d
 9559 2122 01       		.uleb128 0x1
 9560 2123 50       		.byte	0x50
 9561 2124 02       		.uleb128 0x2
 9562 2125 74       		.byte	0x74
 9563 2126 00       		.sleb128 0
 9564 2127 00       		.byte	0
 9565 2128 41       		.uleb128 0x41
 9566 2129 52040000 		.4byte	.LVL69
 9567 212d C5420000 		.4byte	0x42c5
 9568 2131 41       		.uleb128 0x41
 9569 2132 56040000 		.4byte	.LVL70
 9570 2136 7A420000 		.4byte	0x427a
 9571 213a 2E       		.uleb128 0x2e
 9572 213b 60040000 		.4byte	.LVL71
 9573 213f AB420000 		.4byte	0x42ab
 9574 2143 55210000 		.4byte	0x2155
 9575 2147 2D       		.uleb128 0x2d
 9576 2148 01       		.uleb128 0x1
 9577 2149 51       		.byte	0x51
 9578 214a 03       		.uleb128 0x3
 9579 214b 91       		.byte	0x91
 9580 214c A07E     		.sleb128 -224
 9581 214e 2D       		.uleb128 0x2d
 9582 214f 01       		.uleb128 0x1
 9583 2150 50       		.byte	0x50
 9584 2151 02       		.uleb128 0x2
 9585 2152 74       		.byte	0x74
 9586 2153 00       		.sleb128 0
 9587 2154 00       		.byte	0
 9588 2155 41       		.uleb128 0x41
 9589 2156 74040000 		.4byte	.LVL72
 9590 215a D6420000 		.4byte	0x42d6
 9591 215e 41       		.uleb128 0x41
 9592 215f 78040000 		.4byte	.LVL73
 9593 2163 7A420000 		.4byte	0x427a
 9594 2167 2E       		.uleb128 0x2e
 9595 2168 82040000 		.4byte	.LVL74
 9596 216c AB420000 		.4byte	0x42ab
 9597 2170 82210000 		.4byte	0x2182
 9598 2174 2D       		.uleb128 0x2d
 9599 2175 01       		.uleb128 0x1
 9600 2176 51       		.byte	0x51
 9601 2177 03       		.uleb128 0x3
 9602 2178 91       		.byte	0x91
 9603 2179 A07E     		.sleb128 -224
 9604 217b 2D       		.uleb128 0x2d
 9605 217c 01       		.uleb128 0x1
 9606 217d 50       		.byte	0x50
 9607 217e 02       		.uleb128 0x2
 9608 217f 74       		.byte	0x74
 9609 2180 00       		.sleb128 0
 9610 2181 00       		.byte	0
 9611 2182 41       		.uleb128 0x41
ARM GAS  /tmp/ccy8OeyM.s 			page 170


 9612 2183 96040000 		.4byte	.LVL75
 9613 2187 E7420000 		.4byte	0x42e7
 9614 218b 41       		.uleb128 0x41
 9615 218c 9A040000 		.4byte	.LVL76
 9616 2190 7A420000 		.4byte	0x427a
 9617 2194 2E       		.uleb128 0x2e
 9618 2195 A4040000 		.4byte	.LVL77
 9619 2199 AB420000 		.4byte	0x42ab
 9620 219d AF210000 		.4byte	0x21af
 9621 21a1 2D       		.uleb128 0x2d
 9622 21a2 01       		.uleb128 0x1
 9623 21a3 51       		.byte	0x51
 9624 21a4 03       		.uleb128 0x3
 9625 21a5 91       		.byte	0x91
 9626 21a6 A07E     		.sleb128 -224
 9627 21a8 2D       		.uleb128 0x2d
 9628 21a9 01       		.uleb128 0x1
 9629 21aa 50       		.byte	0x50
 9630 21ab 02       		.uleb128 0x2
 9631 21ac 74       		.byte	0x74
 9632 21ad 00       		.sleb128 0
 9633 21ae 00       		.byte	0
 9634 21af 41       		.uleb128 0x41
 9635 21b0 B8040000 		.4byte	.LVL78
 9636 21b4 F8420000 		.4byte	0x42f8
 9637 21b8 41       		.uleb128 0x41
 9638 21b9 BC040000 		.4byte	.LVL79
 9639 21bd 7A420000 		.4byte	0x427a
 9640 21c1 41       		.uleb128 0x41
 9641 21c2 02050000 		.4byte	.LVL82
 9642 21c6 09430000 		.4byte	0x4309
 9643 21ca 2E       		.uleb128 0x2e
 9644 21cb 1E050000 		.4byte	.LVL83
 9645 21cf 1F430000 		.4byte	0x431f
 9646 21d3 F0210000 		.4byte	0x21f0
 9647 21d7 2D       		.uleb128 0x2d
 9648 21d8 01       		.uleb128 0x1
 9649 21d9 51       		.byte	0x51
 9650 21da 02       		.uleb128 0x2
 9651 21db 75       		.byte	0x75
 9652 21dc 00       		.sleb128 0
 9653 21dd 2D       		.uleb128 0x2d
 9654 21de 02       		.uleb128 0x2
 9655 21df 90       		.byte	0x90
 9656 21e0 41       		.uleb128 0x41
 9657 21e1 07       		.uleb128 0x7
 9658 21e2 F4       		.byte	0xf4
 9659 21e3 25       		.uleb128 0x25
 9660 21e4 04       		.byte	0x4
 9661 21e5 00002041 		.4byte	0x41200000
 9662 21e9 2D       		.uleb128 0x2d
 9663 21ea 01       		.uleb128 0x1
 9664 21eb 50       		.byte	0x50
 9665 21ec 02       		.uleb128 0x2
 9666 21ed 74       		.byte	0x74
 9667 21ee 00       		.sleb128 0
 9668 21ef 00       		.byte	0
ARM GAS  /tmp/ccy8OeyM.s 			page 171


 9669 21f0 41       		.uleb128 0x41
 9670 21f1 3A050000 		.4byte	.LVL84
 9671 21f5 09430000 		.4byte	0x4309
 9672 21f9 2E       		.uleb128 0x2e
 9673 21fa 56050000 		.4byte	.LVL85
 9674 21fe 1F430000 		.4byte	0x431f
 9675 2202 1F220000 		.4byte	0x221f
 9676 2206 2D       		.uleb128 0x2d
 9677 2207 01       		.uleb128 0x1
 9678 2208 51       		.byte	0x51
 9679 2209 02       		.uleb128 0x2
 9680 220a 75       		.byte	0x75
 9681 220b 00       		.sleb128 0
 9682 220c 2D       		.uleb128 0x2d
 9683 220d 02       		.uleb128 0x2
 9684 220e 90       		.byte	0x90
 9685 220f 41       		.uleb128 0x41
 9686 2210 07       		.uleb128 0x7
 9687 2211 F4       		.byte	0xf4
 9688 2212 25       		.uleb128 0x25
 9689 2213 04       		.byte	0x4
 9690 2214 00002041 		.4byte	0x41200000
 9691 2218 2D       		.uleb128 0x2d
 9692 2219 01       		.uleb128 0x1
 9693 221a 50       		.byte	0x50
 9694 221b 02       		.uleb128 0x2
 9695 221c 74       		.byte	0x74
 9696 221d 00       		.sleb128 0
 9697 221e 00       		.byte	0
 9698 221f 41       		.uleb128 0x41
 9699 2220 72050000 		.4byte	.LVL86
 9700 2224 09430000 		.4byte	0x4309
 9701 2228 2E       		.uleb128 0x2e
 9702 2229 8E050000 		.4byte	.LVL87
 9703 222d 1F430000 		.4byte	0x431f
 9704 2231 4E220000 		.4byte	0x224e
 9705 2235 2D       		.uleb128 0x2d
 9706 2236 01       		.uleb128 0x1
 9707 2237 51       		.byte	0x51
 9708 2238 02       		.uleb128 0x2
 9709 2239 75       		.byte	0x75
 9710 223a 00       		.sleb128 0
 9711 223b 2D       		.uleb128 0x2d
 9712 223c 02       		.uleb128 0x2
 9713 223d 90       		.byte	0x90
 9714 223e 41       		.uleb128 0x41
 9715 223f 07       		.uleb128 0x7
 9716 2240 F4       		.byte	0xf4
 9717 2241 25       		.uleb128 0x25
 9718 2242 04       		.byte	0x4
 9719 2243 00002041 		.4byte	0x41200000
 9720 2247 2D       		.uleb128 0x2d
 9721 2248 01       		.uleb128 0x1
 9722 2249 50       		.byte	0x50
 9723 224a 02       		.uleb128 0x2
 9724 224b 74       		.byte	0x74
 9725 224c 00       		.sleb128 0
ARM GAS  /tmp/ccy8OeyM.s 			page 172


 9726 224d 00       		.byte	0
 9727 224e 41       		.uleb128 0x41
 9728 224f AA050000 		.4byte	.LVL88
 9729 2253 09430000 		.4byte	0x4309
 9730 2257 2E       		.uleb128 0x2e
 9731 2258 C6050000 		.4byte	.LVL89
 9732 225c 1F430000 		.4byte	0x431f
 9733 2260 7D220000 		.4byte	0x227d
 9734 2264 2D       		.uleb128 0x2d
 9735 2265 01       		.uleb128 0x1
 9736 2266 51       		.byte	0x51
 9737 2267 02       		.uleb128 0x2
 9738 2268 75       		.byte	0x75
 9739 2269 00       		.sleb128 0
 9740 226a 2D       		.uleb128 0x2d
 9741 226b 02       		.uleb128 0x2
 9742 226c 90       		.byte	0x90
 9743 226d 41       		.uleb128 0x41
 9744 226e 07       		.uleb128 0x7
 9745 226f F4       		.byte	0xf4
 9746 2270 25       		.uleb128 0x25
 9747 2271 04       		.byte	0x4
 9748 2272 00002041 		.4byte	0x41200000
 9749 2276 2D       		.uleb128 0x2d
 9750 2277 01       		.uleb128 0x1
 9751 2278 50       		.byte	0x50
 9752 2279 02       		.uleb128 0x2
 9753 227a 74       		.byte	0x74
 9754 227b 00       		.sleb128 0
 9755 227c 00       		.byte	0
 9756 227d 41       		.uleb128 0x41
 9757 227e E2050000 		.4byte	.LVL90
 9758 2282 09430000 		.4byte	0x4309
 9759 2286 2E       		.uleb128 0x2e
 9760 2287 FE050000 		.4byte	.LVL91
 9761 228b 1F430000 		.4byte	0x431f
 9762 228f AC220000 		.4byte	0x22ac
 9763 2293 2D       		.uleb128 0x2d
 9764 2294 01       		.uleb128 0x1
 9765 2295 51       		.byte	0x51
 9766 2296 02       		.uleb128 0x2
 9767 2297 75       		.byte	0x75
 9768 2298 00       		.sleb128 0
 9769 2299 2D       		.uleb128 0x2d
 9770 229a 02       		.uleb128 0x2
 9771 229b 90       		.byte	0x90
 9772 229c 41       		.uleb128 0x41
 9773 229d 07       		.uleb128 0x7
 9774 229e F4       		.byte	0xf4
 9775 229f 25       		.uleb128 0x25
 9776 22a0 04       		.byte	0x4
 9777 22a1 00002041 		.4byte	0x41200000
 9778 22a5 2D       		.uleb128 0x2d
 9779 22a6 01       		.uleb128 0x1
 9780 22a7 50       		.byte	0x50
 9781 22a8 02       		.uleb128 0x2
 9782 22a9 74       		.byte	0x74
ARM GAS  /tmp/ccy8OeyM.s 			page 173


 9783 22aa 00       		.sleb128 0
 9784 22ab 00       		.byte	0
 9785 22ac 41       		.uleb128 0x41
 9786 22ad 1A060000 		.4byte	.LVL92
 9787 22b1 09430000 		.4byte	0x4309
 9788 22b5 2E       		.uleb128 0x2e
 9789 22b6 36060000 		.4byte	.LVL93
 9790 22ba 1F430000 		.4byte	0x431f
 9791 22be DB220000 		.4byte	0x22db
 9792 22c2 2D       		.uleb128 0x2d
 9793 22c3 01       		.uleb128 0x1
 9794 22c4 51       		.byte	0x51
 9795 22c5 02       		.uleb128 0x2
 9796 22c6 75       		.byte	0x75
 9797 22c7 00       		.sleb128 0
 9798 22c8 2D       		.uleb128 0x2d
 9799 22c9 02       		.uleb128 0x2
 9800 22ca 90       		.byte	0x90
 9801 22cb 41       		.uleb128 0x41
 9802 22cc 07       		.uleb128 0x7
 9803 22cd F4       		.byte	0xf4
 9804 22ce 25       		.uleb128 0x25
 9805 22cf 04       		.byte	0x4
 9806 22d0 00002041 		.4byte	0x41200000
 9807 22d4 2D       		.uleb128 0x2d
 9808 22d5 01       		.uleb128 0x1
 9809 22d6 50       		.byte	0x50
 9810 22d7 02       		.uleb128 0x2
 9811 22d8 74       		.byte	0x74
 9812 22d9 00       		.sleb128 0
 9813 22da 00       		.byte	0
 9814 22db 41       		.uleb128 0x41
 9815 22dc 52060000 		.4byte	.LVL94
 9816 22e0 09430000 		.4byte	0x4309
 9817 22e4 2E       		.uleb128 0x2e
 9818 22e5 6E060000 		.4byte	.LVL95
 9819 22e9 1F430000 		.4byte	0x431f
 9820 22ed 0A230000 		.4byte	0x230a
 9821 22f1 2D       		.uleb128 0x2d
 9822 22f2 01       		.uleb128 0x1
 9823 22f3 51       		.byte	0x51
 9824 22f4 02       		.uleb128 0x2
 9825 22f5 75       		.byte	0x75
 9826 22f6 00       		.sleb128 0
 9827 22f7 2D       		.uleb128 0x2d
 9828 22f8 02       		.uleb128 0x2
 9829 22f9 90       		.byte	0x90
 9830 22fa 41       		.uleb128 0x41
 9831 22fb 07       		.uleb128 0x7
 9832 22fc F4       		.byte	0xf4
 9833 22fd 25       		.uleb128 0x25
 9834 22fe 04       		.byte	0x4
 9835 22ff 00002041 		.4byte	0x41200000
 9836 2303 2D       		.uleb128 0x2d
 9837 2304 01       		.uleb128 0x1
 9838 2305 50       		.byte	0x50
 9839 2306 02       		.uleb128 0x2
ARM GAS  /tmp/ccy8OeyM.s 			page 174


 9840 2307 74       		.byte	0x74
 9841 2308 00       		.sleb128 0
 9842 2309 00       		.byte	0
 9843 230a 41       		.uleb128 0x41
 9844 230b 72060000 		.4byte	.LVL96
 9845 230f 3F430000 		.4byte	0x433f
 9846 2313 2E       		.uleb128 0x2e
 9847 2314 7E060000 		.4byte	.LVL97
 9848 2318 C3410000 		.4byte	0x41c3
 9849 231c 39230000 		.4byte	0x2339
 9850 2320 2D       		.uleb128 0x2d
 9851 2321 01       		.uleb128 0x1
 9852 2322 51       		.byte	0x51
 9853 2323 02       		.uleb128 0x2
 9854 2324 75       		.byte	0x75
 9855 2325 00       		.sleb128 0
 9856 2326 2D       		.uleb128 0x2d
 9857 2327 02       		.uleb128 0x2
 9858 2328 90       		.byte	0x90
 9859 2329 41       		.uleb128 0x41
 9860 232a 07       		.uleb128 0x7
 9861 232b F4       		.byte	0xf4
 9862 232c 25       		.uleb128 0x25
 9863 232d 04       		.byte	0x4
 9864 232e 0000C842 		.4byte	0x42c80000
 9865 2332 2D       		.uleb128 0x2d
 9866 2333 01       		.uleb128 0x1
 9867 2334 50       		.byte	0x50
 9868 2335 02       		.uleb128 0x2
 9869 2336 74       		.byte	0x74
 9870 2337 00       		.sleb128 0
 9871 2338 00       		.byte	0
 9872 2339 41       		.uleb128 0x41
 9873 233a 82060000 		.4byte	.LVL98
 9874 233e 4A430000 		.4byte	0x434a
 9875 2342 2E       		.uleb128 0x2e
 9876 2343 8E060000 		.4byte	.LVL99
 9877 2347 C3410000 		.4byte	0x41c3
 9878 234b 68230000 		.4byte	0x2368
 9879 234f 2D       		.uleb128 0x2d
 9880 2350 01       		.uleb128 0x1
 9881 2351 51       		.byte	0x51
 9882 2352 02       		.uleb128 0x2
 9883 2353 75       		.byte	0x75
 9884 2354 00       		.sleb128 0
 9885 2355 2D       		.uleb128 0x2d
 9886 2356 02       		.uleb128 0x2
 9887 2357 90       		.byte	0x90
 9888 2358 41       		.uleb128 0x41
 9889 2359 07       		.uleb128 0x7
 9890 235a F4       		.byte	0xf4
 9891 235b 25       		.uleb128 0x25
 9892 235c 04       		.byte	0x4
 9893 235d 0000C842 		.4byte	0x42c80000
 9894 2361 2D       		.uleb128 0x2d
 9895 2362 01       		.uleb128 0x1
 9896 2363 50       		.byte	0x50
ARM GAS  /tmp/ccy8OeyM.s 			page 175


 9897 2364 02       		.uleb128 0x2
 9898 2365 74       		.byte	0x74
 9899 2366 00       		.sleb128 0
 9900 2367 00       		.byte	0
 9901 2368 41       		.uleb128 0x41
 9902 2369 92060000 		.4byte	.LVL100
 9903 236d 55430000 		.4byte	0x4355
 9904 2371 2E       		.uleb128 0x2e
 9905 2372 9E060000 		.4byte	.LVL101
 9906 2376 1F430000 		.4byte	0x431f
 9907 237a 97230000 		.4byte	0x2397
 9908 237e 2D       		.uleb128 0x2d
 9909 237f 01       		.uleb128 0x1
 9910 2380 51       		.byte	0x51
 9911 2381 02       		.uleb128 0x2
 9912 2382 75       		.byte	0x75
 9913 2383 00       		.sleb128 0
 9914 2384 2D       		.uleb128 0x2d
 9915 2385 02       		.uleb128 0x2
 9916 2386 90       		.byte	0x90
 9917 2387 41       		.uleb128 0x41
 9918 2388 07       		.uleb128 0x7
 9919 2389 F4       		.byte	0xf4
 9920 238a 25       		.uleb128 0x25
 9921 238b 04       		.byte	0x4
 9922 238c 00007A44 		.4byte	0x447a0000
 9923 2390 2D       		.uleb128 0x2d
 9924 2391 01       		.uleb128 0x1
 9925 2392 50       		.byte	0x50
 9926 2393 02       		.uleb128 0x2
 9927 2394 74       		.byte	0x74
 9928 2395 00       		.sleb128 0
 9929 2396 00       		.byte	0
 9930 2397 41       		.uleb128 0x41
 9931 2398 A2060000 		.4byte	.LVL102
 9932 239c 60430000 		.4byte	0x4360
 9933 23a0 2E       		.uleb128 0x2e
 9934 23a1 AE060000 		.4byte	.LVL103
 9935 23a5 C3410000 		.4byte	0x41c3
 9936 23a9 C2230000 		.4byte	0x23c2
 9937 23ad 2D       		.uleb128 0x2d
 9938 23ae 01       		.uleb128 0x1
 9939 23af 51       		.byte	0x51
 9940 23b0 02       		.uleb128 0x2
 9941 23b1 75       		.byte	0x75
 9942 23b2 00       		.sleb128 0
 9943 23b3 2D       		.uleb128 0x2d
 9944 23b4 02       		.uleb128 0x2
 9945 23b5 90       		.byte	0x90
 9946 23b6 41       		.uleb128 0x41
 9947 23b7 03       		.uleb128 0x3
 9948 23b8 F5       		.byte	0xf5
 9949 23b9 53       		.uleb128 0x53
 9950 23ba 25       		.uleb128 0x25
 9951 23bb 2D       		.uleb128 0x2d
 9952 23bc 01       		.uleb128 0x1
 9953 23bd 50       		.byte	0x50
ARM GAS  /tmp/ccy8OeyM.s 			page 176


 9954 23be 02       		.uleb128 0x2
 9955 23bf 74       		.byte	0x74
 9956 23c0 00       		.sleb128 0
 9957 23c1 00       		.byte	0
 9958 23c2 2E       		.uleb128 0x2e
 9959 23c3 D6060000 		.4byte	.LVL104
 9960 23c7 1F430000 		.4byte	0x431f
 9961 23cb E8230000 		.4byte	0x23e8
 9962 23cf 2D       		.uleb128 0x2d
 9963 23d0 01       		.uleb128 0x1
 9964 23d1 51       		.byte	0x51
 9965 23d2 02       		.uleb128 0x2
 9966 23d3 75       		.byte	0x75
 9967 23d4 00       		.sleb128 0
 9968 23d5 2D       		.uleb128 0x2d
 9969 23d6 02       		.uleb128 0x2
 9970 23d7 90       		.byte	0x90
 9971 23d8 41       		.uleb128 0x41
 9972 23d9 07       		.uleb128 0x7
 9973 23da F4       		.byte	0xf4
 9974 23db 25       		.uleb128 0x25
 9975 23dc 04       		.byte	0x4
 9976 23dd 00002041 		.4byte	0x41200000
 9977 23e1 2D       		.uleb128 0x2d
 9978 23e2 01       		.uleb128 0x1
 9979 23e3 50       		.byte	0x50
 9980 23e4 02       		.uleb128 0x2
 9981 23e5 74       		.byte	0x74
 9982 23e6 00       		.sleb128 0
 9983 23e7 00       		.byte	0
 9984 23e8 2E       		.uleb128 0x2e
 9985 23e9 DC060000 		.4byte	.LVL105
 9986 23ed 6B430000 		.4byte	0x436b
 9987 23f1 FB230000 		.4byte	0x23fb
 9988 23f5 2D       		.uleb128 0x2d
 9989 23f6 01       		.uleb128 0x1
 9990 23f7 50       		.byte	0x50
 9991 23f8 01       		.uleb128 0x1
 9992 23f9 30       		.byte	0x30
 9993 23fa 00       		.byte	0
 9994 23fb 2E       		.uleb128 0x2e
 9995 23fc E8060000 		.4byte	.LVL106
 9996 2400 C3410000 		.4byte	0x41c3
 9997 2404 1D240000 		.4byte	0x241d
 9998 2408 2D       		.uleb128 0x2d
 9999 2409 01       		.uleb128 0x1
 10000 240a 51       		.byte	0x51
 10001 240b 02       		.uleb128 0x2
 10002 240c 75       		.byte	0x75
 10003 240d 00       		.sleb128 0
 10004 240e 2D       		.uleb128 0x2d
 10005 240f 02       		.uleb128 0x2
 10006 2410 90       		.byte	0x90
 10007 2411 41       		.uleb128 0x41
 10008 2412 03       		.uleb128 0x3
 10009 2413 F5       		.byte	0xf5
 10010 2414 50       		.uleb128 0x50
ARM GAS  /tmp/ccy8OeyM.s 			page 177


 10011 2415 25       		.uleb128 0x25
 10012 2416 2D       		.uleb128 0x2d
 10013 2417 01       		.uleb128 0x1
 10014 2418 50       		.byte	0x50
 10015 2419 02       		.uleb128 0x2
 10016 241a 74       		.byte	0x74
 10017 241b 00       		.sleb128 0
 10018 241c 00       		.byte	0
 10019 241d 2E       		.uleb128 0x2e
 10020 241e EE060000 		.4byte	.LVL107
 10021 2422 80430000 		.4byte	0x4380
 10022 2426 30240000 		.4byte	0x2430
 10023 242a 2D       		.uleb128 0x2d
 10024 242b 01       		.uleb128 0x1
 10025 242c 50       		.byte	0x50
 10026 242d 01       		.uleb128 0x1
 10027 242e 30       		.byte	0x30
 10028 242f 00       		.byte	0
 10029 2430 2E       		.uleb128 0x2e
 10030 2431 FA060000 		.4byte	.LVL108
 10031 2435 C3410000 		.4byte	0x41c3
 10032 2439 52240000 		.4byte	0x2452
 10033 243d 2D       		.uleb128 0x2d
 10034 243e 01       		.uleb128 0x1
 10035 243f 51       		.byte	0x51
 10036 2440 02       		.uleb128 0x2
 10037 2441 75       		.byte	0x75
 10038 2442 00       		.sleb128 0
 10039 2443 2D       		.uleb128 0x2d
 10040 2444 02       		.uleb128 0x2
 10041 2445 90       		.byte	0x90
 10042 2446 41       		.uleb128 0x41
 10043 2447 03       		.uleb128 0x3
 10044 2448 F5       		.byte	0xf5
 10045 2449 50       		.uleb128 0x50
 10046 244a 25       		.uleb128 0x25
 10047 244b 2D       		.uleb128 0x2d
 10048 244c 01       		.uleb128 0x1
 10049 244d 50       		.byte	0x50
 10050 244e 02       		.uleb128 0x2
 10051 244f 74       		.byte	0x74
 10052 2450 00       		.sleb128 0
 10053 2451 00       		.byte	0
 10054 2452 2E       		.uleb128 0x2e
 10055 2453 00070000 		.4byte	.LVL109
 10056 2457 95430000 		.4byte	0x4395
 10057 245b 65240000 		.4byte	0x2465
 10058 245f 2D       		.uleb128 0x2d
 10059 2460 01       		.uleb128 0x1
 10060 2461 50       		.byte	0x50
 10061 2462 01       		.uleb128 0x1
 10062 2463 30       		.byte	0x30
 10063 2464 00       		.byte	0
 10064 2465 2E       		.uleb128 0x2e
 10065 2466 0C070000 		.4byte	.LVL110
 10066 246a C3410000 		.4byte	0x41c3
 10067 246e 87240000 		.4byte	0x2487
ARM GAS  /tmp/ccy8OeyM.s 			page 178


 10068 2472 2D       		.uleb128 0x2d
 10069 2473 01       		.uleb128 0x1
 10070 2474 51       		.byte	0x51
 10071 2475 02       		.uleb128 0x2
 10072 2476 75       		.byte	0x75
 10073 2477 00       		.sleb128 0
 10074 2478 2D       		.uleb128 0x2d
 10075 2479 02       		.uleb128 0x2
 10076 247a 90       		.byte	0x90
 10077 247b 41       		.uleb128 0x41
 10078 247c 03       		.uleb128 0x3
 10079 247d F5       		.byte	0xf5
 10080 247e 50       		.uleb128 0x50
 10081 247f 25       		.uleb128 0x25
 10082 2480 2D       		.uleb128 0x2d
 10083 2481 01       		.uleb128 0x1
 10084 2482 50       		.byte	0x50
 10085 2483 02       		.uleb128 0x2
 10086 2484 74       		.byte	0x74
 10087 2485 00       		.sleb128 0
 10088 2486 00       		.byte	0
 10089 2487 2E       		.uleb128 0x2e
 10090 2488 12070000 		.4byte	.LVL111
 10091 248c AA430000 		.4byte	0x43aa
 10092 2490 9A240000 		.4byte	0x249a
 10093 2494 2D       		.uleb128 0x2d
 10094 2495 01       		.uleb128 0x1
 10095 2496 50       		.byte	0x50
 10096 2497 01       		.uleb128 0x1
 10097 2498 30       		.byte	0x30
 10098 2499 00       		.byte	0
 10099 249a 2E       		.uleb128 0x2e
 10100 249b 1E070000 		.4byte	.LVL112
 10101 249f C3410000 		.4byte	0x41c3
 10102 24a3 BC240000 		.4byte	0x24bc
 10103 24a7 2D       		.uleb128 0x2d
 10104 24a8 01       		.uleb128 0x1
 10105 24a9 51       		.byte	0x51
 10106 24aa 02       		.uleb128 0x2
 10107 24ab 75       		.byte	0x75
 10108 24ac 00       		.sleb128 0
 10109 24ad 2D       		.uleb128 0x2d
 10110 24ae 02       		.uleb128 0x2
 10111 24af 90       		.byte	0x90
 10112 24b0 41       		.uleb128 0x41
 10113 24b1 03       		.uleb128 0x3
 10114 24b2 F5       		.byte	0xf5
 10115 24b3 50       		.uleb128 0x50
 10116 24b4 25       		.uleb128 0x25
 10117 24b5 2D       		.uleb128 0x2d
 10118 24b6 01       		.uleb128 0x1
 10119 24b7 50       		.byte	0x50
 10120 24b8 02       		.uleb128 0x2
 10121 24b9 74       		.byte	0x74
 10122 24ba 00       		.sleb128 0
 10123 24bb 00       		.byte	0
 10124 24bc 2E       		.uleb128 0x2e
ARM GAS  /tmp/ccy8OeyM.s 			page 179


 10125 24bd 24070000 		.4byte	.LVL113
 10126 24c1 BF430000 		.4byte	0x43bf
 10127 24c5 CF240000 		.4byte	0x24cf
 10128 24c9 2D       		.uleb128 0x2d
 10129 24ca 01       		.uleb128 0x1
 10130 24cb 50       		.byte	0x50
 10131 24cc 01       		.uleb128 0x1
 10132 24cd 30       		.byte	0x30
 10133 24ce 00       		.byte	0
 10134 24cf 2E       		.uleb128 0x2e
 10135 24d0 2E070000 		.4byte	.LVL114
 10136 24d4 BF400000 		.4byte	0x40bf
 10137 24d8 E9240000 		.4byte	0x24e9
 10138 24dc 2D       		.uleb128 0x2d
 10139 24dd 01       		.uleb128 0x1
 10140 24de 52       		.byte	0x52
 10141 24df 02       		.uleb128 0x2
 10142 24e0 75       		.byte	0x75
 10143 24e1 00       		.sleb128 0
 10144 24e2 2D       		.uleb128 0x2d
 10145 24e3 01       		.uleb128 0x1
 10146 24e4 50       		.byte	0x50
 10147 24e5 02       		.uleb128 0x2
 10148 24e6 74       		.byte	0x74
 10149 24e7 00       		.sleb128 0
 10150 24e8 00       		.byte	0
 10151 24e9 2E       		.uleb128 0x2e
 10152 24ea 34070000 		.4byte	.LVL115
 10153 24ee D4430000 		.4byte	0x43d4
 10154 24f2 FC240000 		.4byte	0x24fc
 10155 24f6 2D       		.uleb128 0x2d
 10156 24f7 01       		.uleb128 0x1
 10157 24f8 50       		.byte	0x50
 10158 24f9 01       		.uleb128 0x1
 10159 24fa 30       		.byte	0x30
 10160 24fb 00       		.byte	0
 10161 24fc 2E       		.uleb128 0x2e
 10162 24fd 3E070000 		.4byte	.LVL116
 10163 2501 BF400000 		.4byte	0x40bf
 10164 2505 16250000 		.4byte	0x2516
 10165 2509 2D       		.uleb128 0x2d
 10166 250a 01       		.uleb128 0x1
 10167 250b 52       		.byte	0x52
 10168 250c 02       		.uleb128 0x2
 10169 250d 75       		.byte	0x75
 10170 250e 00       		.sleb128 0
 10171 250f 2D       		.uleb128 0x2d
 10172 2510 01       		.uleb128 0x1
 10173 2511 50       		.byte	0x50
 10174 2512 02       		.uleb128 0x2
 10175 2513 74       		.byte	0x74
 10176 2514 00       		.sleb128 0
 10177 2515 00       		.byte	0
 10178 2516 41       		.uleb128 0x41
 10179 2517 48070000 		.4byte	.LVL117
 10180 251b E9430000 		.4byte	0x43e9
 10181 251f 2E       		.uleb128 0x2e
ARM GAS  /tmp/ccy8OeyM.s 			page 180


 10182 2520 98070000 		.4byte	.LVL120
 10183 2524 F4430000 		.4byte	0x43f4
 10184 2528 3A250000 		.4byte	0x253a
 10185 252c 2D       		.uleb128 0x2d
 10186 252d 01       		.uleb128 0x1
 10187 252e 51       		.byte	0x51
 10188 252f 03       		.uleb128 0x3
 10189 2530 91       		.byte	0x91
 10190 2531 A07E     		.sleb128 -224
 10191 2533 2D       		.uleb128 0x2d
 10192 2534 01       		.uleb128 0x1
 10193 2535 50       		.byte	0x50
 10194 2536 02       		.uleb128 0x2
 10195 2537 74       		.byte	0x74
 10196 2538 00       		.sleb128 0
 10197 2539 00       		.byte	0
 10198 253a 41       		.uleb128 0x41
 10199 253b A2070000 		.4byte	.LVL121
 10200 253f 0E440000 		.4byte	0x440e
 10201 2543 2E       		.uleb128 0x2e
 10202 2544 D0070000 		.4byte	.LVL128
 10203 2548 F4430000 		.4byte	0x43f4
 10204 254c 5E250000 		.4byte	0x255e
 10205 2550 2D       		.uleb128 0x2d
 10206 2551 01       		.uleb128 0x1
 10207 2552 51       		.byte	0x51
 10208 2553 03       		.uleb128 0x3
 10209 2554 91       		.byte	0x91
 10210 2555 A07E     		.sleb128 -224
 10211 2557 2D       		.uleb128 0x2d
 10212 2558 01       		.uleb128 0x1
 10213 2559 50       		.byte	0x50
 10214 255a 02       		.uleb128 0x2
 10215 255b 74       		.byte	0x74
 10216 255c 00       		.sleb128 0
 10217 255d 00       		.byte	0
 10218 255e 41       		.uleb128 0x41
 10219 255f D4070000 		.4byte	.LVL129
 10220 2563 2D440000 		.4byte	0x442d
 10221 2567 41       		.uleb128 0x41
 10222 2568 F6070000 		.4byte	.LVL133
 10223 256c 42440000 		.4byte	0x4442
 10224 2570 2E       		.uleb128 0x2e
 10225 2571 54080000 		.4byte	.LVL142
 10226 2575 49440000 		.4byte	0x4449
 10227 2579 8B250000 		.4byte	0x258b
 10228 257d 2D       		.uleb128 0x2d
 10229 257e 01       		.uleb128 0x1
 10230 257f 51       		.byte	0x51
 10231 2580 03       		.uleb128 0x3
 10232 2581 91       		.byte	0x91
 10233 2582 A07E     		.sleb128 -224
 10234 2584 2D       		.uleb128 0x2d
 10235 2585 01       		.uleb128 0x1
 10236 2586 50       		.byte	0x50
 10237 2587 02       		.uleb128 0x2
 10238 2588 74       		.byte	0x74
ARM GAS  /tmp/ccy8OeyM.s 			page 181


 10239 2589 00       		.sleb128 0
 10240 258a 00       		.byte	0
 10241 258b 2E       		.uleb128 0x2e
 10242 258c 5E080000 		.4byte	.LVL143
 10243 2590 49440000 		.4byte	0x4449
 10244 2594 A6250000 		.4byte	0x25a6
 10245 2598 2D       		.uleb128 0x2d
 10246 2599 01       		.uleb128 0x1
 10247 259a 51       		.byte	0x51
 10248 259b 03       		.uleb128 0x3
 10249 259c 91       		.byte	0x91
 10250 259d A07E     		.sleb128 -224
 10251 259f 2D       		.uleb128 0x2d
 10252 25a0 01       		.uleb128 0x1
 10253 25a1 50       		.byte	0x50
 10254 25a2 02       		.uleb128 0x2
 10255 25a3 74       		.byte	0x74
 10256 25a4 00       		.sleb128 0
 10257 25a5 00       		.byte	0
 10258 25a6 2E       		.uleb128 0x2e
 10259 25a7 68080000 		.4byte	.LVL144
 10260 25ab 49440000 		.4byte	0x4449
 10261 25af C1250000 		.4byte	0x25c1
 10262 25b3 2D       		.uleb128 0x2d
 10263 25b4 01       		.uleb128 0x1
 10264 25b5 51       		.byte	0x51
 10265 25b6 03       		.uleb128 0x3
 10266 25b7 91       		.byte	0x91
 10267 25b8 A07E     		.sleb128 -224
 10268 25ba 2D       		.uleb128 0x2d
 10269 25bb 01       		.uleb128 0x1
 10270 25bc 50       		.byte	0x50
 10271 25bd 02       		.uleb128 0x2
 10272 25be 74       		.byte	0x74
 10273 25bf 00       		.sleb128 0
 10274 25c0 00       		.byte	0
 10275 25c1 2E       		.uleb128 0x2e
 10276 25c2 70080000 		.4byte	.LVL145
 10277 25c6 63440000 		.4byte	0x4463
 10278 25ca D6250000 		.4byte	0x25d6
 10279 25ce 2D       		.uleb128 0x2d
 10280 25cf 01       		.uleb128 0x1
 10281 25d0 50       		.byte	0x50
 10282 25d1 03       		.uleb128 0x3
 10283 25d2 91       		.byte	0x91
 10284 25d3 A87E     		.sleb128 -216
 10285 25d5 00       		.byte	0
 10286 25d6 2E       		.uleb128 0x2e
 10287 25d7 7E080000 		.4byte	.LVL147
 10288 25db 7A440000 		.4byte	0x447a
 10289 25df F5250000 		.4byte	0x25f5
 10290 25e3 2D       		.uleb128 0x2d
 10291 25e4 01       		.uleb128 0x1
 10292 25e5 53       		.byte	0x53
 10293 25e6 01       		.uleb128 0x1
 10294 25e7 30       		.byte	0x30
 10295 25e8 2D       		.uleb128 0x2d
ARM GAS  /tmp/ccy8OeyM.s 			page 182


 10296 25e9 01       		.uleb128 0x1
 10297 25ea 52       		.byte	0x52
 10298 25eb 02       		.uleb128 0x2
 10299 25ec 75       		.byte	0x75
 10300 25ed 7F       		.sleb128 -1
 10301 25ee 2D       		.uleb128 0x2d
 10302 25ef 01       		.uleb128 0x1
 10303 25f0 51       		.byte	0x51
 10304 25f1 02       		.uleb128 0x2
 10305 25f2 77       		.byte	0x77
 10306 25f3 02       		.sleb128 2
 10307 25f4 00       		.byte	0
 10308 25f5 2E       		.uleb128 0x2e
 10309 25f6 88080000 		.4byte	.LVL148
 10310 25fa AB420000 		.4byte	0x42ab
 10311 25fe 10260000 		.4byte	0x2610
 10312 2602 2D       		.uleb128 0x2d
 10313 2603 01       		.uleb128 0x1
 10314 2604 51       		.byte	0x51
 10315 2605 03       		.uleb128 0x3
 10316 2606 91       		.byte	0x91
 10317 2607 A07E     		.sleb128 -224
 10318 2609 2D       		.uleb128 0x2d
 10319 260a 01       		.uleb128 0x1
 10320 260b 50       		.byte	0x50
 10321 260c 02       		.uleb128 0x2
 10322 260d 74       		.byte	0x74
 10323 260e 00       		.sleb128 0
 10324 260f 00       		.byte	0
 10325 2610 41       		.uleb128 0x41
 10326 2611 9C080000 		.4byte	.LVL149
 10327 2615 9A440000 		.4byte	0x449a
 10328 2619 41       		.uleb128 0x41
 10329 261a A0080000 		.4byte	.LVL150
 10330 261e 7A420000 		.4byte	0x427a
 10331 2622 41       		.uleb128 0x41
 10332 2623 B4080000 		.4byte	.LVL153
 10333 2627 AB440000 		.4byte	0x44ab
 10334 262b 41       		.uleb128 0x41
 10335 262c D4080000 		.4byte	.LVL157
 10336 2630 B6440000 		.4byte	0x44b6
 10337 2634 2E       		.uleb128 0x2e
 10338 2635 E8080000 		.4byte	.LVL158
 10339 2639 BF400000 		.4byte	0x40bf
 10340 263d 4E260000 		.4byte	0x264e
 10341 2641 2D       		.uleb128 0x2d
 10342 2642 01       		.uleb128 0x1
 10343 2643 52       		.byte	0x52
 10344 2644 02       		.uleb128 0x2
 10345 2645 75       		.byte	0x75
 10346 2646 00       		.sleb128 0
 10347 2647 2D       		.uleb128 0x2d
 10348 2648 01       		.uleb128 0x1
 10349 2649 50       		.byte	0x50
 10350 264a 02       		.uleb128 0x2
 10351 264b 74       		.byte	0x74
 10352 264c 00       		.sleb128 0
ARM GAS  /tmp/ccy8OeyM.s 			page 183


 10353 264d 00       		.byte	0
 10354 264e 41       		.uleb128 0x41
 10355 264f EC080000 		.4byte	.LVL159
 10356 2653 C1440000 		.4byte	0x44c1
 10357 2657 2E       		.uleb128 0x2e
 10358 2658 00090000 		.4byte	.LVL160
 10359 265c BF400000 		.4byte	0x40bf
 10360 2660 71260000 		.4byte	0x2671
 10361 2664 2D       		.uleb128 0x2d
 10362 2665 01       		.uleb128 0x1
 10363 2666 52       		.byte	0x52
 10364 2667 02       		.uleb128 0x2
 10365 2668 75       		.byte	0x75
 10366 2669 00       		.sleb128 0
 10367 266a 2D       		.uleb128 0x2d
 10368 266b 01       		.uleb128 0x1
 10369 266c 50       		.byte	0x50
 10370 266d 02       		.uleb128 0x2
 10371 266e 74       		.byte	0x74
 10372 266f 00       		.sleb128 0
 10373 2670 00       		.byte	0
 10374 2671 41       		.uleb128 0x41
 10375 2672 04090000 		.4byte	.LVL161
 10376 2676 CC440000 		.4byte	0x44cc
 10377 267a 2E       		.uleb128 0x2e
 10378 267b 18090000 		.4byte	.LVL162
 10379 267f BF400000 		.4byte	0x40bf
 10380 2683 94260000 		.4byte	0x2694
 10381 2687 2D       		.uleb128 0x2d
 10382 2688 01       		.uleb128 0x1
 10383 2689 52       		.byte	0x52
 10384 268a 02       		.uleb128 0x2
 10385 268b 75       		.byte	0x75
 10386 268c 00       		.sleb128 0
 10387 268d 2D       		.uleb128 0x2d
 10388 268e 01       		.uleb128 0x1
 10389 268f 50       		.byte	0x50
 10390 2690 02       		.uleb128 0x2
 10391 2691 74       		.byte	0x74
 10392 2692 00       		.sleb128 0
 10393 2693 00       		.byte	0
 10394 2694 41       		.uleb128 0x41
 10395 2695 1C090000 		.4byte	.LVL163
 10396 2699 D7440000 		.4byte	0x44d7
 10397 269d 41       		.uleb128 0x41
 10398 269e 2A090000 		.4byte	.LVL165
 10399 26a2 7D410000 		.4byte	0x417d
 10400 26a6 2E       		.uleb128 0x2e
 10401 26a7 38090000 		.4byte	.LVL167
 10402 26ab 09410000 		.4byte	0x4109
 10403 26af C1260000 		.4byte	0x26c1
 10404 26b3 2D       		.uleb128 0x2d
 10405 26b4 01       		.uleb128 0x1
 10406 26b5 52       		.byte	0x52
 10407 26b6 03       		.uleb128 0x3
 10408 26b7 0A       		.byte	0xa
 10409 26b8 3401     		.2byte	0x134
ARM GAS  /tmp/ccy8OeyM.s 			page 184


 10410 26ba 2D       		.uleb128 0x2d
 10411 26bb 01       		.uleb128 0x1
 10412 26bc 50       		.byte	0x50
 10413 26bd 02       		.uleb128 0x2
 10414 26be 75       		.byte	0x75
 10415 26bf 00       		.sleb128 0
 10416 26c0 00       		.byte	0
 10417 26c1 41       		.uleb128 0x41
 10418 26c2 C4090000 		.4byte	.LVL179
 10419 26c6 E2440000 		.4byte	0x44e2
 10420 26ca 2E       		.uleb128 0x2e
 10421 26cb C40B0000 		.4byte	.LVL228
 10422 26cf ED440000 		.4byte	0x44ed
 10423 26d3 DE260000 		.4byte	0x26de
 10424 26d7 2D       		.uleb128 0x2d
 10425 26d8 01       		.uleb128 0x1
 10426 26d9 50       		.byte	0x50
 10427 26da 02       		.uleb128 0x2
 10428 26db 74       		.byte	0x74
 10429 26dc 00       		.sleb128 0
 10430 26dd 00       		.byte	0
 10431 26de 2E       		.uleb128 0x2e
 10432 26df F60B0000 		.4byte	.LVL229
 10433 26e3 FE440000 		.4byte	0x44fe
 10434 26e7 F5260000 		.4byte	0x26f5
 10435 26eb 2D       		.uleb128 0x2d
 10436 26ec 01       		.uleb128 0x1
 10437 26ed 50       		.byte	0x50
 10438 26ee 05       		.uleb128 0x5
 10439 26ef 03       		.byte	0x3
 10440 26f0 00000000 		.4byte	.LANCHOR11
 10441 26f4 00       		.byte	0
 10442 26f5 2E       		.uleb128 0x2e
 10443 26f6 360C0000 		.4byte	.LVL233
 10444 26fa BF400000 		.4byte	0x40bf
 10445 26fe 0F270000 		.4byte	0x270f
 10446 2702 2D       		.uleb128 0x2d
 10447 2703 01       		.uleb128 0x1
 10448 2704 52       		.byte	0x52
 10449 2705 02       		.uleb128 0x2
 10450 2706 76       		.byte	0x76
 10451 2707 00       		.sleb128 0
 10452 2708 2D       		.uleb128 0x2d
 10453 2709 01       		.uleb128 0x1
 10454 270a 50       		.byte	0x50
 10455 270b 02       		.uleb128 0x2
 10456 270c 74       		.byte	0x74
 10457 270d 00       		.sleb128 0
 10458 270e 00       		.byte	0
 10459 270f 2E       		.uleb128 0x2e
 10460 2710 520C0000 		.4byte	.LVL234
 10461 2714 BF400000 		.4byte	0x40bf
 10462 2718 29270000 		.4byte	0x2729
 10463 271c 2D       		.uleb128 0x2d
 10464 271d 01       		.uleb128 0x1
 10465 271e 52       		.byte	0x52
 10466 271f 02       		.uleb128 0x2
ARM GAS  /tmp/ccy8OeyM.s 			page 185


 10467 2720 76       		.byte	0x76
 10468 2721 00       		.sleb128 0
 10469 2722 2D       		.uleb128 0x2d
 10470 2723 01       		.uleb128 0x1
 10471 2724 50       		.byte	0x50
 10472 2725 02       		.uleb128 0x2
 10473 2726 74       		.byte	0x74
 10474 2727 00       		.sleb128 0
 10475 2728 00       		.byte	0
 10476 2729 2E       		.uleb128 0x2e
 10477 272a 6A0C0000 		.4byte	.LVL235
 10478 272e BF400000 		.4byte	0x40bf
 10479 2732 43270000 		.4byte	0x2743
 10480 2736 2D       		.uleb128 0x2d
 10481 2737 01       		.uleb128 0x1
 10482 2738 52       		.byte	0x52
 10483 2739 02       		.uleb128 0x2
 10484 273a 76       		.byte	0x76
 10485 273b 00       		.sleb128 0
 10486 273c 2D       		.uleb128 0x2d
 10487 273d 01       		.uleb128 0x1
 10488 273e 50       		.byte	0x50
 10489 273f 02       		.uleb128 0x2
 10490 2740 74       		.byte	0x74
 10491 2741 00       		.sleb128 0
 10492 2742 00       		.byte	0
 10493 2743 2E       		.uleb128 0x2e
 10494 2744 820C0000 		.4byte	.LVL236
 10495 2748 BF400000 		.4byte	0x40bf
 10496 274c 5D270000 		.4byte	0x275d
 10497 2750 2D       		.uleb128 0x2d
 10498 2751 01       		.uleb128 0x1
 10499 2752 52       		.byte	0x52
 10500 2753 02       		.uleb128 0x2
 10501 2754 76       		.byte	0x76
 10502 2755 00       		.sleb128 0
 10503 2756 2D       		.uleb128 0x2d
 10504 2757 01       		.uleb128 0x1
 10505 2758 50       		.byte	0x50
 10506 2759 02       		.uleb128 0x2
 10507 275a 74       		.byte	0x74
 10508 275b 00       		.sleb128 0
 10509 275c 00       		.byte	0
 10510 275d 2E       		.uleb128 0x2e
 10511 275e 9A0C0000 		.4byte	.LVL237
 10512 2762 BF400000 		.4byte	0x40bf
 10513 2766 77270000 		.4byte	0x2777
 10514 276a 2D       		.uleb128 0x2d
 10515 276b 01       		.uleb128 0x1
 10516 276c 52       		.byte	0x52
 10517 276d 02       		.uleb128 0x2
 10518 276e 76       		.byte	0x76
 10519 276f 00       		.sleb128 0
 10520 2770 2D       		.uleb128 0x2d
 10521 2771 01       		.uleb128 0x1
 10522 2772 50       		.byte	0x50
 10523 2773 02       		.uleb128 0x2
ARM GAS  /tmp/ccy8OeyM.s 			page 186


 10524 2774 74       		.byte	0x74
 10525 2775 00       		.sleb128 0
 10526 2776 00       		.byte	0
 10527 2777 2E       		.uleb128 0x2e
 10528 2778 B20C0000 		.4byte	.LVL238
 10529 277c BF400000 		.4byte	0x40bf
 10530 2780 91270000 		.4byte	0x2791
 10531 2784 2D       		.uleb128 0x2d
 10532 2785 01       		.uleb128 0x1
 10533 2786 52       		.byte	0x52
 10534 2787 02       		.uleb128 0x2
 10535 2788 76       		.byte	0x76
 10536 2789 00       		.sleb128 0
 10537 278a 2D       		.uleb128 0x2d
 10538 278b 01       		.uleb128 0x1
 10539 278c 50       		.byte	0x50
 10540 278d 02       		.uleb128 0x2
 10541 278e 74       		.byte	0x74
 10542 278f 00       		.sleb128 0
 10543 2790 00       		.byte	0
 10544 2791 2E       		.uleb128 0x2e
 10545 2792 CA0C0000 		.4byte	.LVL239
 10546 2796 BF400000 		.4byte	0x40bf
 10547 279a AB270000 		.4byte	0x27ab
 10548 279e 2D       		.uleb128 0x2d
 10549 279f 01       		.uleb128 0x1
 10550 27a0 52       		.byte	0x52
 10551 27a1 02       		.uleb128 0x2
 10552 27a2 76       		.byte	0x76
 10553 27a3 00       		.sleb128 0
 10554 27a4 2D       		.uleb128 0x2d
 10555 27a5 01       		.uleb128 0x1
 10556 27a6 50       		.byte	0x50
 10557 27a7 02       		.uleb128 0x2
 10558 27a8 74       		.byte	0x74
 10559 27a9 00       		.sleb128 0
 10560 27aa 00       		.byte	0
 10561 27ab 2E       		.uleb128 0x2e
 10562 27ac E20C0000 		.4byte	.LVL240
 10563 27b0 BF400000 		.4byte	0x40bf
 10564 27b4 C5270000 		.4byte	0x27c5
 10565 27b8 2D       		.uleb128 0x2d
 10566 27b9 01       		.uleb128 0x1
 10567 27ba 52       		.byte	0x52
 10568 27bb 02       		.uleb128 0x2
 10569 27bc 76       		.byte	0x76
 10570 27bd 00       		.sleb128 0
 10571 27be 2D       		.uleb128 0x2d
 10572 27bf 01       		.uleb128 0x1
 10573 27c0 50       		.byte	0x50
 10574 27c1 02       		.uleb128 0x2
 10575 27c2 74       		.byte	0x74
 10576 27c3 00       		.sleb128 0
 10577 27c4 00       		.byte	0
 10578 27c5 2E       		.uleb128 0x2e
 10579 27c6 FA0C0000 		.4byte	.LVL241
 10580 27ca BF400000 		.4byte	0x40bf
ARM GAS  /tmp/ccy8OeyM.s 			page 187


 10581 27ce DF270000 		.4byte	0x27df
 10582 27d2 2D       		.uleb128 0x2d
 10583 27d3 01       		.uleb128 0x1
 10584 27d4 52       		.byte	0x52
 10585 27d5 02       		.uleb128 0x2
 10586 27d6 76       		.byte	0x76
 10587 27d7 00       		.sleb128 0
 10588 27d8 2D       		.uleb128 0x2d
 10589 27d9 01       		.uleb128 0x1
 10590 27da 50       		.byte	0x50
 10591 27db 02       		.uleb128 0x2
 10592 27dc 74       		.byte	0x74
 10593 27dd 00       		.sleb128 0
 10594 27de 00       		.byte	0
 10595 27df 2E       		.uleb128 0x2e
 10596 27e0 120D0000 		.4byte	.LVL242
 10597 27e4 BF400000 		.4byte	0x40bf
 10598 27e8 F9270000 		.4byte	0x27f9
 10599 27ec 2D       		.uleb128 0x2d
 10600 27ed 01       		.uleb128 0x1
 10601 27ee 52       		.byte	0x52
 10602 27ef 02       		.uleb128 0x2
 10603 27f0 76       		.byte	0x76
 10604 27f1 00       		.sleb128 0
 10605 27f2 2D       		.uleb128 0x2d
 10606 27f3 01       		.uleb128 0x1
 10607 27f4 50       		.byte	0x50
 10608 27f5 02       		.uleb128 0x2
 10609 27f6 74       		.byte	0x74
 10610 27f7 00       		.sleb128 0
 10611 27f8 00       		.byte	0
 10612 27f9 2E       		.uleb128 0x2e
 10613 27fa 2A0D0000 		.4byte	.LVL243
 10614 27fe BF400000 		.4byte	0x40bf
 10615 2802 13280000 		.4byte	0x2813
 10616 2806 2D       		.uleb128 0x2d
 10617 2807 01       		.uleb128 0x1
 10618 2808 52       		.byte	0x52
 10619 2809 02       		.uleb128 0x2
 10620 280a 76       		.byte	0x76
 10621 280b 00       		.sleb128 0
 10622 280c 2D       		.uleb128 0x2d
 10623 280d 01       		.uleb128 0x1
 10624 280e 50       		.byte	0x50
 10625 280f 02       		.uleb128 0x2
 10626 2810 74       		.byte	0x74
 10627 2811 00       		.sleb128 0
 10628 2812 00       		.byte	0
 10629 2813 2E       		.uleb128 0x2e
 10630 2814 3A0D0000 		.4byte	.LVL244
 10631 2818 C3410000 		.4byte	0x41c3
 10632 281c 35280000 		.4byte	0x2835
 10633 2820 2D       		.uleb128 0x2d
 10634 2821 01       		.uleb128 0x1
 10635 2822 51       		.byte	0x51
 10636 2823 02       		.uleb128 0x2
 10637 2824 76       		.byte	0x76
ARM GAS  /tmp/ccy8OeyM.s 			page 188


 10638 2825 00       		.sleb128 0
 10639 2826 2D       		.uleb128 0x2d
 10640 2827 02       		.uleb128 0x2
 10641 2828 90       		.byte	0x90
 10642 2829 41       		.uleb128 0x41
 10643 282a 03       		.uleb128 0x3
 10644 282b F5       		.byte	0xf5
 10645 282c 50       		.uleb128 0x50
 10646 282d 25       		.uleb128 0x25
 10647 282e 2D       		.uleb128 0x2d
 10648 282f 01       		.uleb128 0x1
 10649 2830 50       		.byte	0x50
 10650 2831 02       		.uleb128 0x2
 10651 2832 74       		.byte	0x74
 10652 2833 00       		.sleb128 0
 10653 2834 00       		.byte	0
 10654 2835 2E       		.uleb128 0x2e
 10655 2836 4A0D0000 		.4byte	.LVL245
 10656 283a C3410000 		.4byte	0x41c3
 10657 283e 57280000 		.4byte	0x2857
 10658 2842 2D       		.uleb128 0x2d
 10659 2843 01       		.uleb128 0x1
 10660 2844 51       		.byte	0x51
 10661 2845 02       		.uleb128 0x2
 10662 2846 76       		.byte	0x76
 10663 2847 00       		.sleb128 0
 10664 2848 2D       		.uleb128 0x2d
 10665 2849 02       		.uleb128 0x2
 10666 284a 90       		.byte	0x90
 10667 284b 41       		.uleb128 0x41
 10668 284c 03       		.uleb128 0x3
 10669 284d F5       		.byte	0xf5
 10670 284e 50       		.uleb128 0x50
 10671 284f 25       		.uleb128 0x25
 10672 2850 2D       		.uleb128 0x2d
 10673 2851 01       		.uleb128 0x1
 10674 2852 50       		.byte	0x50
 10675 2853 02       		.uleb128 0x2
 10676 2854 74       		.byte	0x74
 10677 2855 00       		.sleb128 0
 10678 2856 00       		.byte	0
 10679 2857 2E       		.uleb128 0x2e
 10680 2858 780D0000 		.4byte	.LVL246
 10681 285c BF400000 		.4byte	0x40bf
 10682 2860 71280000 		.4byte	0x2871
 10683 2864 2D       		.uleb128 0x2d
 10684 2865 01       		.uleb128 0x1
 10685 2866 52       		.byte	0x52
 10686 2867 02       		.uleb128 0x2
 10687 2868 76       		.byte	0x76
 10688 2869 00       		.sleb128 0
 10689 286a 2D       		.uleb128 0x2d
 10690 286b 01       		.uleb128 0x1
 10691 286c 50       		.byte	0x50
 10692 286d 02       		.uleb128 0x2
 10693 286e 74       		.byte	0x74
 10694 286f 00       		.sleb128 0
ARM GAS  /tmp/ccy8OeyM.s 			page 189


 10695 2870 00       		.byte	0
 10696 2871 2E       		.uleb128 0x2e
 10697 2872 900D0000 		.4byte	.LVL247
 10698 2876 BF400000 		.4byte	0x40bf
 10699 287a 8B280000 		.4byte	0x288b
 10700 287e 2D       		.uleb128 0x2d
 10701 287f 01       		.uleb128 0x1
 10702 2880 52       		.byte	0x52
 10703 2881 02       		.uleb128 0x2
 10704 2882 76       		.byte	0x76
 10705 2883 00       		.sleb128 0
 10706 2884 2D       		.uleb128 0x2d
 10707 2885 01       		.uleb128 0x1
 10708 2886 50       		.byte	0x50
 10709 2887 02       		.uleb128 0x2
 10710 2888 74       		.byte	0x74
 10711 2889 00       		.sleb128 0
 10712 288a 00       		.byte	0
 10713 288b 2E       		.uleb128 0x2e
 10714 288c A80D0000 		.4byte	.LVL248
 10715 2890 BF400000 		.4byte	0x40bf
 10716 2894 A5280000 		.4byte	0x28a5
 10717 2898 2D       		.uleb128 0x2d
 10718 2899 01       		.uleb128 0x1
 10719 289a 52       		.byte	0x52
 10720 289b 02       		.uleb128 0x2
 10721 289c 76       		.byte	0x76
 10722 289d 00       		.sleb128 0
 10723 289e 2D       		.uleb128 0x2d
 10724 289f 01       		.uleb128 0x1
 10725 28a0 50       		.byte	0x50
 10726 28a1 02       		.uleb128 0x2
 10727 28a2 74       		.byte	0x74
 10728 28a3 00       		.sleb128 0
 10729 28a4 00       		.byte	0
 10730 28a5 2E       		.uleb128 0x2e
 10731 28a6 C00D0000 		.4byte	.LVL249
 10732 28aa BF400000 		.4byte	0x40bf
 10733 28ae BF280000 		.4byte	0x28bf
 10734 28b2 2D       		.uleb128 0x2d
 10735 28b3 01       		.uleb128 0x1
 10736 28b4 52       		.byte	0x52
 10737 28b5 02       		.uleb128 0x2
 10738 28b6 76       		.byte	0x76
 10739 28b7 00       		.sleb128 0
 10740 28b8 2D       		.uleb128 0x2d
 10741 28b9 01       		.uleb128 0x1
 10742 28ba 50       		.byte	0x50
 10743 28bb 02       		.uleb128 0x2
 10744 28bc 74       		.byte	0x74
 10745 28bd 00       		.sleb128 0
 10746 28be 00       		.byte	0
 10747 28bf 2E       		.uleb128 0x2e
 10748 28c0 D80D0000 		.4byte	.LVL250
 10749 28c4 BF400000 		.4byte	0x40bf
 10750 28c8 D9280000 		.4byte	0x28d9
 10751 28cc 2D       		.uleb128 0x2d
ARM GAS  /tmp/ccy8OeyM.s 			page 190


 10752 28cd 01       		.uleb128 0x1
 10753 28ce 52       		.byte	0x52
 10754 28cf 02       		.uleb128 0x2
 10755 28d0 76       		.byte	0x76
 10756 28d1 00       		.sleb128 0
 10757 28d2 2D       		.uleb128 0x2d
 10758 28d3 01       		.uleb128 0x1
 10759 28d4 50       		.byte	0x50
 10760 28d5 02       		.uleb128 0x2
 10761 28d6 74       		.byte	0x74
 10762 28d7 00       		.sleb128 0
 10763 28d8 00       		.byte	0
 10764 28d9 2E       		.uleb128 0x2e
 10765 28da F00D0000 		.4byte	.LVL251
 10766 28de BF400000 		.4byte	0x40bf
 10767 28e2 F3280000 		.4byte	0x28f3
 10768 28e6 2D       		.uleb128 0x2d
 10769 28e7 01       		.uleb128 0x1
 10770 28e8 52       		.byte	0x52
 10771 28e9 02       		.uleb128 0x2
 10772 28ea 76       		.byte	0x76
 10773 28eb 00       		.sleb128 0
 10774 28ec 2D       		.uleb128 0x2d
 10775 28ed 01       		.uleb128 0x1
 10776 28ee 50       		.byte	0x50
 10777 28ef 02       		.uleb128 0x2
 10778 28f0 74       		.byte	0x74
 10779 28f1 00       		.sleb128 0
 10780 28f2 00       		.byte	0
 10781 28f3 2E       		.uleb128 0x2e
 10782 28f4 080E0000 		.4byte	.LVL252
 10783 28f8 BF400000 		.4byte	0x40bf
 10784 28fc 0D290000 		.4byte	0x290d
 10785 2900 2D       		.uleb128 0x2d
 10786 2901 01       		.uleb128 0x1
 10787 2902 52       		.byte	0x52
 10788 2903 02       		.uleb128 0x2
 10789 2904 76       		.byte	0x76
 10790 2905 00       		.sleb128 0
 10791 2906 2D       		.uleb128 0x2d
 10792 2907 01       		.uleb128 0x1
 10793 2908 50       		.byte	0x50
 10794 2909 02       		.uleb128 0x2
 10795 290a 74       		.byte	0x74
 10796 290b 00       		.sleb128 0
 10797 290c 00       		.byte	0
 10798 290d 2E       		.uleb128 0x2e
 10799 290e 200E0000 		.4byte	.LVL253
 10800 2912 BF400000 		.4byte	0x40bf
 10801 2916 27290000 		.4byte	0x2927
 10802 291a 2D       		.uleb128 0x2d
 10803 291b 01       		.uleb128 0x1
 10804 291c 52       		.byte	0x52
 10805 291d 02       		.uleb128 0x2
 10806 291e 76       		.byte	0x76
 10807 291f 00       		.sleb128 0
 10808 2920 2D       		.uleb128 0x2d
ARM GAS  /tmp/ccy8OeyM.s 			page 191


 10809 2921 01       		.uleb128 0x1
 10810 2922 50       		.byte	0x50
 10811 2923 02       		.uleb128 0x2
 10812 2924 74       		.byte	0x74
 10813 2925 00       		.sleb128 0
 10814 2926 00       		.byte	0
 10815 2927 2E       		.uleb128 0x2e
 10816 2928 380E0000 		.4byte	.LVL254
 10817 292c BF400000 		.4byte	0x40bf
 10818 2930 41290000 		.4byte	0x2941
 10819 2934 2D       		.uleb128 0x2d
 10820 2935 01       		.uleb128 0x1
 10821 2936 52       		.byte	0x52
 10822 2937 02       		.uleb128 0x2
 10823 2938 76       		.byte	0x76
 10824 2939 00       		.sleb128 0
 10825 293a 2D       		.uleb128 0x2d
 10826 293b 01       		.uleb128 0x1
 10827 293c 50       		.byte	0x50
 10828 293d 02       		.uleb128 0x2
 10829 293e 74       		.byte	0x74
 10830 293f 00       		.sleb128 0
 10831 2940 00       		.byte	0
 10832 2941 2E       		.uleb128 0x2e
 10833 2942 500E0000 		.4byte	.LVL255
 10834 2946 BF400000 		.4byte	0x40bf
 10835 294a 5B290000 		.4byte	0x295b
 10836 294e 2D       		.uleb128 0x2d
 10837 294f 01       		.uleb128 0x1
 10838 2950 52       		.byte	0x52
 10839 2951 02       		.uleb128 0x2
 10840 2952 76       		.byte	0x76
 10841 2953 00       		.sleb128 0
 10842 2954 2D       		.uleb128 0x2d
 10843 2955 01       		.uleb128 0x1
 10844 2956 50       		.byte	0x50
 10845 2957 02       		.uleb128 0x2
 10846 2958 74       		.byte	0x74
 10847 2959 00       		.sleb128 0
 10848 295a 00       		.byte	0
 10849 295b 2E       		.uleb128 0x2e
 10850 295c 680E0000 		.4byte	.LVL256
 10851 2960 BF400000 		.4byte	0x40bf
 10852 2964 75290000 		.4byte	0x2975
 10853 2968 2D       		.uleb128 0x2d
 10854 2969 01       		.uleb128 0x1
 10855 296a 52       		.byte	0x52
 10856 296b 02       		.uleb128 0x2
 10857 296c 76       		.byte	0x76
 10858 296d 00       		.sleb128 0
 10859 296e 2D       		.uleb128 0x2d
 10860 296f 01       		.uleb128 0x1
 10861 2970 50       		.byte	0x50
 10862 2971 02       		.uleb128 0x2
 10863 2972 74       		.byte	0x74
 10864 2973 00       		.sleb128 0
 10865 2974 00       		.byte	0
ARM GAS  /tmp/ccy8OeyM.s 			page 192


 10866 2975 2E       		.uleb128 0x2e
 10867 2976 800E0000 		.4byte	.LVL257
 10868 297a BF400000 		.4byte	0x40bf
 10869 297e 8F290000 		.4byte	0x298f
 10870 2982 2D       		.uleb128 0x2d
 10871 2983 01       		.uleb128 0x1
 10872 2984 52       		.byte	0x52
 10873 2985 02       		.uleb128 0x2
 10874 2986 76       		.byte	0x76
 10875 2987 00       		.sleb128 0
 10876 2988 2D       		.uleb128 0x2d
 10877 2989 01       		.uleb128 0x1
 10878 298a 50       		.byte	0x50
 10879 298b 02       		.uleb128 0x2
 10880 298c 74       		.byte	0x74
 10881 298d 00       		.sleb128 0
 10882 298e 00       		.byte	0
 10883 298f 2E       		.uleb128 0x2e
 10884 2990 980E0000 		.4byte	.LVL258
 10885 2994 BF400000 		.4byte	0x40bf
 10886 2998 A9290000 		.4byte	0x29a9
 10887 299c 2D       		.uleb128 0x2d
 10888 299d 01       		.uleb128 0x1
 10889 299e 52       		.byte	0x52
 10890 299f 02       		.uleb128 0x2
 10891 29a0 76       		.byte	0x76
 10892 29a1 00       		.sleb128 0
 10893 29a2 2D       		.uleb128 0x2d
 10894 29a3 01       		.uleb128 0x1
 10895 29a4 50       		.byte	0x50
 10896 29a5 02       		.uleb128 0x2
 10897 29a6 74       		.byte	0x74
 10898 29a7 00       		.sleb128 0
 10899 29a8 00       		.byte	0
 10900 29a9 2E       		.uleb128 0x2e
 10901 29aa C20E0000 		.4byte	.LVL259
 10902 29ae BF400000 		.4byte	0x40bf
 10903 29b2 C3290000 		.4byte	0x29c3
 10904 29b6 2D       		.uleb128 0x2d
 10905 29b7 01       		.uleb128 0x1
 10906 29b8 52       		.byte	0x52
 10907 29b9 02       		.uleb128 0x2
 10908 29ba 76       		.byte	0x76
 10909 29bb 00       		.sleb128 0
 10910 29bc 2D       		.uleb128 0x2d
 10911 29bd 01       		.uleb128 0x1
 10912 29be 50       		.byte	0x50
 10913 29bf 02       		.uleb128 0x2
 10914 29c0 74       		.byte	0x74
 10915 29c1 00       		.sleb128 0
 10916 29c2 00       		.byte	0
 10917 29c3 2E       		.uleb128 0x2e
 10918 29c4 D20E0000 		.4byte	.LVL260
 10919 29c8 C3410000 		.4byte	0x41c3
 10920 29cc E9290000 		.4byte	0x29e9
 10921 29d0 2D       		.uleb128 0x2d
 10922 29d1 01       		.uleb128 0x1
ARM GAS  /tmp/ccy8OeyM.s 			page 193


 10923 29d2 51       		.byte	0x51
 10924 29d3 02       		.uleb128 0x2
 10925 29d4 76       		.byte	0x76
 10926 29d5 00       		.sleb128 0
 10927 29d6 2D       		.uleb128 0x2d
 10928 29d7 02       		.uleb128 0x2
 10929 29d8 90       		.byte	0x90
 10930 29d9 41       		.uleb128 0x41
 10931 29da 07       		.uleb128 0x7
 10932 29db F4       		.byte	0xf4
 10933 29dc 25       		.uleb128 0x25
 10934 29dd 04       		.byte	0x4
 10935 29de 0050C347 		.4byte	0x47c35000
 10936 29e2 2D       		.uleb128 0x2d
 10937 29e3 01       		.uleb128 0x1
 10938 29e4 50       		.byte	0x50
 10939 29e5 02       		.uleb128 0x2
 10940 29e6 74       		.byte	0x74
 10941 29e7 00       		.sleb128 0
 10942 29e8 00       		.byte	0
 10943 29e9 2E       		.uleb128 0x2e
 10944 29ea E20E0000 		.4byte	.LVL261
 10945 29ee C3410000 		.4byte	0x41c3
 10946 29f2 0F2A0000 		.4byte	0x2a0f
 10947 29f6 2D       		.uleb128 0x2d
 10948 29f7 01       		.uleb128 0x1
 10949 29f8 51       		.byte	0x51
 10950 29f9 02       		.uleb128 0x2
 10951 29fa 76       		.byte	0x76
 10952 29fb 00       		.sleb128 0
 10953 29fc 2D       		.uleb128 0x2d
 10954 29fd 02       		.uleb128 0x2
 10955 29fe 90       		.byte	0x90
 10956 29ff 41       		.uleb128 0x41
 10957 2a00 07       		.uleb128 0x7
 10958 2a01 F4       		.byte	0xf4
 10959 2a02 25       		.uleb128 0x25
 10960 2a03 04       		.byte	0x4
 10961 2a04 0050C347 		.4byte	0x47c35000
 10962 2a08 2D       		.uleb128 0x2d
 10963 2a09 01       		.uleb128 0x1
 10964 2a0a 50       		.byte	0x50
 10965 2a0b 02       		.uleb128 0x2
 10966 2a0c 74       		.byte	0x74
 10967 2a0d 00       		.sleb128 0
 10968 2a0e 00       		.byte	0
 10969 2a0f 2E       		.uleb128 0x2e
 10970 2a10 F20E0000 		.4byte	.LVL262
 10971 2a14 C3410000 		.4byte	0x41c3
 10972 2a18 312A0000 		.4byte	0x2a31
 10973 2a1c 2D       		.uleb128 0x2d
 10974 2a1d 01       		.uleb128 0x1
 10975 2a1e 51       		.byte	0x51
 10976 2a1f 02       		.uleb128 0x2
 10977 2a20 76       		.byte	0x76
 10978 2a21 00       		.sleb128 0
 10979 2a22 2D       		.uleb128 0x2d
ARM GAS  /tmp/ccy8OeyM.s 			page 194


 10980 2a23 02       		.uleb128 0x2
 10981 2a24 90       		.byte	0x90
 10982 2a25 41       		.uleb128 0x41
 10983 2a26 03       		.uleb128 0x3
 10984 2a27 F5       		.byte	0xf5
 10985 2a28 50       		.uleb128 0x50
 10986 2a29 25       		.uleb128 0x25
 10987 2a2a 2D       		.uleb128 0x2d
 10988 2a2b 01       		.uleb128 0x1
 10989 2a2c 50       		.byte	0x50
 10990 2a2d 02       		.uleb128 0x2
 10991 2a2e 74       		.byte	0x74
 10992 2a2f 00       		.sleb128 0
 10993 2a30 00       		.byte	0
 10994 2a31 2E       		.uleb128 0x2e
 10995 2a32 020F0000 		.4byte	.LVL263
 10996 2a36 C3410000 		.4byte	0x41c3
 10997 2a3a 532A0000 		.4byte	0x2a53
 10998 2a3e 2D       		.uleb128 0x2d
 10999 2a3f 01       		.uleb128 0x1
 11000 2a40 51       		.byte	0x51
 11001 2a41 02       		.uleb128 0x2
 11002 2a42 76       		.byte	0x76
 11003 2a43 00       		.sleb128 0
 11004 2a44 2D       		.uleb128 0x2d
 11005 2a45 02       		.uleb128 0x2
 11006 2a46 90       		.byte	0x90
 11007 2a47 41       		.uleb128 0x41
 11008 2a48 03       		.uleb128 0x3
 11009 2a49 F5       		.byte	0xf5
 11010 2a4a 51       		.uleb128 0x51
 11011 2a4b 25       		.uleb128 0x25
 11012 2a4c 2D       		.uleb128 0x2d
 11013 2a4d 01       		.uleb128 0x1
 11014 2a4e 50       		.byte	0x50
 11015 2a4f 02       		.uleb128 0x2
 11016 2a50 74       		.byte	0x74
 11017 2a51 00       		.sleb128 0
 11018 2a52 00       		.byte	0
 11019 2a53 2E       		.uleb128 0x2e
 11020 2a54 1E0F0000 		.4byte	.LVL264
 11021 2a58 C3410000 		.4byte	0x41c3
 11022 2a5c 752A0000 		.4byte	0x2a75
 11023 2a60 2D       		.uleb128 0x2d
 11024 2a61 01       		.uleb128 0x1
 11025 2a62 51       		.byte	0x51
 11026 2a63 02       		.uleb128 0x2
 11027 2a64 76       		.byte	0x76
 11028 2a65 00       		.sleb128 0
 11029 2a66 2D       		.uleb128 0x2d
 11030 2a67 02       		.uleb128 0x2
 11031 2a68 90       		.byte	0x90
 11032 2a69 41       		.uleb128 0x41
 11033 2a6a 03       		.uleb128 0x3
 11034 2a6b F5       		.byte	0xf5
 11035 2a6c 50       		.uleb128 0x50
 11036 2a6d 25       		.uleb128 0x25
ARM GAS  /tmp/ccy8OeyM.s 			page 195


 11037 2a6e 2D       		.uleb128 0x2d
 11038 2a6f 01       		.uleb128 0x1
 11039 2a70 50       		.byte	0x50
 11040 2a71 02       		.uleb128 0x2
 11041 2a72 74       		.byte	0x74
 11042 2a73 00       		.sleb128 0
 11043 2a74 00       		.byte	0
 11044 2a75 2E       		.uleb128 0x2e
 11045 2a76 2E0F0000 		.4byte	.LVL265
 11046 2a7a C3410000 		.4byte	0x41c3
 11047 2a7e 972A0000 		.4byte	0x2a97
 11048 2a82 2D       		.uleb128 0x2d
 11049 2a83 01       		.uleb128 0x1
 11050 2a84 51       		.byte	0x51
 11051 2a85 02       		.uleb128 0x2
 11052 2a86 76       		.byte	0x76
 11053 2a87 00       		.sleb128 0
 11054 2a88 2D       		.uleb128 0x2d
 11055 2a89 02       		.uleb128 0x2
 11056 2a8a 90       		.byte	0x90
 11057 2a8b 41       		.uleb128 0x41
 11058 2a8c 03       		.uleb128 0x3
 11059 2a8d F5       		.byte	0xf5
 11060 2a8e 50       		.uleb128 0x50
 11061 2a8f 25       		.uleb128 0x25
 11062 2a90 2D       		.uleb128 0x2d
 11063 2a91 01       		.uleb128 0x1
 11064 2a92 50       		.byte	0x50
 11065 2a93 02       		.uleb128 0x2
 11066 2a94 74       		.byte	0x74
 11067 2a95 00       		.sleb128 0
 11068 2a96 00       		.byte	0
 11069 2a97 2E       		.uleb128 0x2e
 11070 2a98 4A0F0000 		.4byte	.LVL266
 11071 2a9c C3410000 		.4byte	0x41c3
 11072 2aa0 B92A0000 		.4byte	0x2ab9
 11073 2aa4 2D       		.uleb128 0x2d
 11074 2aa5 01       		.uleb128 0x1
 11075 2aa6 51       		.byte	0x51
 11076 2aa7 02       		.uleb128 0x2
 11077 2aa8 76       		.byte	0x76
 11078 2aa9 00       		.sleb128 0
 11079 2aaa 2D       		.uleb128 0x2d
 11080 2aab 02       		.uleb128 0x2
 11081 2aac 90       		.byte	0x90
 11082 2aad 41       		.uleb128 0x41
 11083 2aae 03       		.uleb128 0x3
 11084 2aaf F5       		.byte	0xf5
 11085 2ab0 50       		.uleb128 0x50
 11086 2ab1 25       		.uleb128 0x25
 11087 2ab2 2D       		.uleb128 0x2d
 11088 2ab3 01       		.uleb128 0x1
 11089 2ab4 50       		.byte	0x50
 11090 2ab5 02       		.uleb128 0x2
 11091 2ab6 74       		.byte	0x74
 11092 2ab7 00       		.sleb128 0
 11093 2ab8 00       		.byte	0
ARM GAS  /tmp/ccy8OeyM.s 			page 196


 11094 2ab9 2E       		.uleb128 0x2e
 11095 2aba 5A0F0000 		.4byte	.LVL267
 11096 2abe C3410000 		.4byte	0x41c3
 11097 2ac2 DB2A0000 		.4byte	0x2adb
 11098 2ac6 2D       		.uleb128 0x2d
 11099 2ac7 01       		.uleb128 0x1
 11100 2ac8 51       		.byte	0x51
 11101 2ac9 02       		.uleb128 0x2
 11102 2aca 76       		.byte	0x76
 11103 2acb 00       		.sleb128 0
 11104 2acc 2D       		.uleb128 0x2d
 11105 2acd 02       		.uleb128 0x2
 11106 2ace 90       		.byte	0x90
 11107 2acf 41       		.uleb128 0x41
 11108 2ad0 03       		.uleb128 0x3
 11109 2ad1 F5       		.byte	0xf5
 11110 2ad2 50       		.uleb128 0x50
 11111 2ad3 25       		.uleb128 0x25
 11112 2ad4 2D       		.uleb128 0x2d
 11113 2ad5 01       		.uleb128 0x1
 11114 2ad6 50       		.byte	0x50
 11115 2ad7 02       		.uleb128 0x2
 11116 2ad8 74       		.byte	0x74
 11117 2ad9 00       		.sleb128 0
 11118 2ada 00       		.byte	0
 11119 2adb 2E       		.uleb128 0x2e
 11120 2adc 6A0F0000 		.4byte	.LVL268
 11121 2ae0 C3410000 		.4byte	0x41c3
 11122 2ae4 012B0000 		.4byte	0x2b01
 11123 2ae8 2D       		.uleb128 0x2d
 11124 2ae9 01       		.uleb128 0x1
 11125 2aea 51       		.byte	0x51
 11126 2aeb 02       		.uleb128 0x2
 11127 2aec 76       		.byte	0x76
 11128 2aed 00       		.sleb128 0
 11129 2aee 2D       		.uleb128 0x2d
 11130 2aef 02       		.uleb128 0x2
 11131 2af0 90       		.byte	0x90
 11132 2af1 41       		.uleb128 0x41
 11133 2af2 07       		.uleb128 0x7
 11134 2af3 F4       		.byte	0xf4
 11135 2af4 25       		.uleb128 0x25
 11136 2af5 04       		.byte	0x4
 11137 2af6 20BCBE4C 		.4byte	0x4cbebc20
 11138 2afa 2D       		.uleb128 0x2d
 11139 2afb 01       		.uleb128 0x1
 11140 2afc 50       		.byte	0x50
 11141 2afd 02       		.uleb128 0x2
 11142 2afe 74       		.byte	0x74
 11143 2aff 00       		.sleb128 0
 11144 2b00 00       		.byte	0
 11145 2b01 2E       		.uleb128 0x2e
 11146 2b02 7A0F0000 		.4byte	.LVL269
 11147 2b06 C3410000 		.4byte	0x41c3
 11148 2b0a 272B0000 		.4byte	0x2b27
 11149 2b0e 2D       		.uleb128 0x2d
 11150 2b0f 01       		.uleb128 0x1
ARM GAS  /tmp/ccy8OeyM.s 			page 197


 11151 2b10 51       		.byte	0x51
 11152 2b11 02       		.uleb128 0x2
 11153 2b12 76       		.byte	0x76
 11154 2b13 00       		.sleb128 0
 11155 2b14 2D       		.uleb128 0x2d
 11156 2b15 02       		.uleb128 0x2
 11157 2b16 90       		.byte	0x90
 11158 2b17 41       		.uleb128 0x41
 11159 2b18 07       		.uleb128 0x7
 11160 2b19 F4       		.byte	0xf4
 11161 2b1a 25       		.uleb128 0x25
 11162 2b1b 04       		.byte	0x4
 11163 2b1c 0050C347 		.4byte	0x47c35000
 11164 2b20 2D       		.uleb128 0x2d
 11165 2b21 01       		.uleb128 0x1
 11166 2b22 50       		.byte	0x50
 11167 2b23 02       		.uleb128 0x2
 11168 2b24 74       		.byte	0x74
 11169 2b25 00       		.sleb128 0
 11170 2b26 00       		.byte	0
 11171 2b27 2E       		.uleb128 0x2e
 11172 2b28 8A0F0000 		.4byte	.LVL270
 11173 2b2c C3410000 		.4byte	0x41c3
 11174 2b30 4D2B0000 		.4byte	0x2b4d
 11175 2b34 2D       		.uleb128 0x2d
 11176 2b35 01       		.uleb128 0x1
 11177 2b36 51       		.byte	0x51
 11178 2b37 02       		.uleb128 0x2
 11179 2b38 76       		.byte	0x76
 11180 2b39 00       		.sleb128 0
 11181 2b3a 2D       		.uleb128 0x2d
 11182 2b3b 02       		.uleb128 0x2
 11183 2b3c 90       		.byte	0x90
 11184 2b3d 41       		.uleb128 0x41
 11185 2b3e 07       		.uleb128 0x7
 11186 2b3f F4       		.byte	0xf4
 11187 2b40 25       		.uleb128 0x25
 11188 2b41 04       		.byte	0x4
 11189 2b42 0050C347 		.4byte	0x47c35000
 11190 2b46 2D       		.uleb128 0x2d
 11191 2b47 01       		.uleb128 0x1
 11192 2b48 50       		.byte	0x50
 11193 2b49 02       		.uleb128 0x2
 11194 2b4a 74       		.byte	0x74
 11195 2b4b 00       		.sleb128 0
 11196 2b4c 00       		.byte	0
 11197 2b4d 2E       		.uleb128 0x2e
 11198 2b4e 9A0F0000 		.4byte	.LVL271
 11199 2b52 C3410000 		.4byte	0x41c3
 11200 2b56 732B0000 		.4byte	0x2b73
 11201 2b5a 2D       		.uleb128 0x2d
 11202 2b5b 01       		.uleb128 0x1
 11203 2b5c 51       		.byte	0x51
 11204 2b5d 02       		.uleb128 0x2
 11205 2b5e 76       		.byte	0x76
 11206 2b5f 00       		.sleb128 0
 11207 2b60 2D       		.uleb128 0x2d
ARM GAS  /tmp/ccy8OeyM.s 			page 198


 11208 2b61 02       		.uleb128 0x2
 11209 2b62 90       		.byte	0x90
 11210 2b63 41       		.uleb128 0x41
 11211 2b64 07       		.uleb128 0x7
 11212 2b65 F4       		.byte	0xf4
 11213 2b66 25       		.uleb128 0x25
 11214 2b67 04       		.byte	0x4
 11215 2b68 0000803F 		.4byte	0x3f800000
 11216 2b6c 2D       		.uleb128 0x2d
 11217 2b6d 01       		.uleb128 0x1
 11218 2b6e 50       		.byte	0x50
 11219 2b6f 02       		.uleb128 0x2
 11220 2b70 74       		.byte	0x74
 11221 2b71 00       		.sleb128 0
 11222 2b72 00       		.byte	0
 11223 2b73 2E       		.uleb128 0x2e
 11224 2b74 AA0F0000 		.4byte	.LVL272
 11225 2b78 C3410000 		.4byte	0x41c3
 11226 2b7c 952B0000 		.4byte	0x2b95
 11227 2b80 2D       		.uleb128 0x2d
 11228 2b81 01       		.uleb128 0x1
 11229 2b82 51       		.byte	0x51
 11230 2b83 02       		.uleb128 0x2
 11231 2b84 76       		.byte	0x76
 11232 2b85 00       		.sleb128 0
 11233 2b86 2D       		.uleb128 0x2d
 11234 2b87 02       		.uleb128 0x2
 11235 2b88 90       		.byte	0x90
 11236 2b89 41       		.uleb128 0x41
 11237 2b8a 03       		.uleb128 0x3
 11238 2b8b F5       		.byte	0xf5
 11239 2b8c 50       		.uleb128 0x50
 11240 2b8d 25       		.uleb128 0x25
 11241 2b8e 2D       		.uleb128 0x2d
 11242 2b8f 01       		.uleb128 0x1
 11243 2b90 50       		.byte	0x50
 11244 2b91 02       		.uleb128 0x2
 11245 2b92 74       		.byte	0x74
 11246 2b93 00       		.sleb128 0
 11247 2b94 00       		.byte	0
 11248 2b95 2E       		.uleb128 0x2e
 11249 2b96 BA0F0000 		.4byte	.LVL273
 11250 2b9a C3410000 		.4byte	0x41c3
 11251 2b9e B72B0000 		.4byte	0x2bb7
 11252 2ba2 2D       		.uleb128 0x2d
 11253 2ba3 01       		.uleb128 0x1
 11254 2ba4 51       		.byte	0x51
 11255 2ba5 02       		.uleb128 0x2
 11256 2ba6 76       		.byte	0x76
 11257 2ba7 00       		.sleb128 0
 11258 2ba8 2D       		.uleb128 0x2d
 11259 2ba9 02       		.uleb128 0x2
 11260 2baa 90       		.byte	0x90
 11261 2bab 41       		.uleb128 0x41
 11262 2bac 03       		.uleb128 0x3
 11263 2bad F5       		.byte	0xf5
 11264 2bae 50       		.uleb128 0x50
ARM GAS  /tmp/ccy8OeyM.s 			page 199


 11265 2baf 25       		.uleb128 0x25
 11266 2bb0 2D       		.uleb128 0x2d
 11267 2bb1 01       		.uleb128 0x1
 11268 2bb2 50       		.byte	0x50
 11269 2bb3 02       		.uleb128 0x2
 11270 2bb4 74       		.byte	0x74
 11271 2bb5 00       		.sleb128 0
 11272 2bb6 00       		.byte	0
 11273 2bb7 2E       		.uleb128 0x2e
 11274 2bb8 E40F0000 		.4byte	.LVL274
 11275 2bbc C3410000 		.4byte	0x41c3
 11276 2bc0 D92B0000 		.4byte	0x2bd9
 11277 2bc4 2D       		.uleb128 0x2d
 11278 2bc5 01       		.uleb128 0x1
 11279 2bc6 51       		.byte	0x51
 11280 2bc7 02       		.uleb128 0x2
 11281 2bc8 76       		.byte	0x76
 11282 2bc9 00       		.sleb128 0
 11283 2bca 2D       		.uleb128 0x2d
 11284 2bcb 02       		.uleb128 0x2
 11285 2bcc 90       		.byte	0x90
 11286 2bcd 41       		.uleb128 0x41
 11287 2bce 03       		.uleb128 0x3
 11288 2bcf F5       		.byte	0xf5
 11289 2bd0 50       		.uleb128 0x50
 11290 2bd1 25       		.uleb128 0x25
 11291 2bd2 2D       		.uleb128 0x2d
 11292 2bd3 01       		.uleb128 0x1
 11293 2bd4 50       		.byte	0x50
 11294 2bd5 02       		.uleb128 0x2
 11295 2bd6 74       		.byte	0x74
 11296 2bd7 00       		.sleb128 0
 11297 2bd8 00       		.byte	0
 11298 2bd9 2E       		.uleb128 0x2e
 11299 2bda F40F0000 		.4byte	.LVL275
 11300 2bde C3410000 		.4byte	0x41c3
 11301 2be2 FB2B0000 		.4byte	0x2bfb
 11302 2be6 2D       		.uleb128 0x2d
 11303 2be7 01       		.uleb128 0x1
 11304 2be8 51       		.byte	0x51
 11305 2be9 02       		.uleb128 0x2
 11306 2bea 76       		.byte	0x76
 11307 2beb 00       		.sleb128 0
 11308 2bec 2D       		.uleb128 0x2d
 11309 2bed 02       		.uleb128 0x2
 11310 2bee 90       		.byte	0x90
 11311 2bef 41       		.uleb128 0x41
 11312 2bf0 03       		.uleb128 0x3
 11313 2bf1 F5       		.byte	0xf5
 11314 2bf2 50       		.uleb128 0x50
 11315 2bf3 25       		.uleb128 0x25
 11316 2bf4 2D       		.uleb128 0x2d
 11317 2bf5 01       		.uleb128 0x1
 11318 2bf6 50       		.byte	0x50
 11319 2bf7 02       		.uleb128 0x2
 11320 2bf8 74       		.byte	0x74
 11321 2bf9 00       		.sleb128 0
ARM GAS  /tmp/ccy8OeyM.s 			page 200


 11322 2bfa 00       		.byte	0
 11323 2bfb 2E       		.uleb128 0x2e
 11324 2bfc 04100000 		.4byte	.LVL276
 11325 2c00 C3410000 		.4byte	0x41c3
 11326 2c04 1D2C0000 		.4byte	0x2c1d
 11327 2c08 2D       		.uleb128 0x2d
 11328 2c09 01       		.uleb128 0x1
 11329 2c0a 51       		.byte	0x51
 11330 2c0b 02       		.uleb128 0x2
 11331 2c0c 76       		.byte	0x76
 11332 2c0d 00       		.sleb128 0
 11333 2c0e 2D       		.uleb128 0x2d
 11334 2c0f 02       		.uleb128 0x2
 11335 2c10 90       		.byte	0x90
 11336 2c11 41       		.uleb128 0x41
 11337 2c12 03       		.uleb128 0x3
 11338 2c13 F5       		.byte	0xf5
 11339 2c14 50       		.uleb128 0x50
 11340 2c15 25       		.uleb128 0x25
 11341 2c16 2D       		.uleb128 0x2d
 11342 2c17 01       		.uleb128 0x1
 11343 2c18 50       		.byte	0x50
 11344 2c19 02       		.uleb128 0x2
 11345 2c1a 74       		.byte	0x74
 11346 2c1b 00       		.sleb128 0
 11347 2c1c 00       		.byte	0
 11348 2c1d 2E       		.uleb128 0x2e
 11349 2c1e 14100000 		.4byte	.LVL277
 11350 2c22 C3410000 		.4byte	0x41c3
 11351 2c26 3F2C0000 		.4byte	0x2c3f
 11352 2c2a 2D       		.uleb128 0x2d
 11353 2c2b 01       		.uleb128 0x1
 11354 2c2c 51       		.byte	0x51
 11355 2c2d 02       		.uleb128 0x2
 11356 2c2e 76       		.byte	0x76
 11357 2c2f 00       		.sleb128 0
 11358 2c30 2D       		.uleb128 0x2d
 11359 2c31 02       		.uleb128 0x2
 11360 2c32 90       		.byte	0x90
 11361 2c33 41       		.uleb128 0x41
 11362 2c34 03       		.uleb128 0x3
 11363 2c35 F5       		.byte	0xf5
 11364 2c36 50       		.uleb128 0x50
 11365 2c37 25       		.uleb128 0x25
 11366 2c38 2D       		.uleb128 0x2d
 11367 2c39 01       		.uleb128 0x1
 11368 2c3a 50       		.byte	0x50
 11369 2c3b 02       		.uleb128 0x2
 11370 2c3c 74       		.byte	0x74
 11371 2c3d 00       		.sleb128 0
 11372 2c3e 00       		.byte	0
 11373 2c3f 2E       		.uleb128 0x2e
 11374 2c40 24100000 		.4byte	.LVL278
 11375 2c44 C3410000 		.4byte	0x41c3
 11376 2c48 612C0000 		.4byte	0x2c61
 11377 2c4c 2D       		.uleb128 0x2d
 11378 2c4d 01       		.uleb128 0x1
ARM GAS  /tmp/ccy8OeyM.s 			page 201


 11379 2c4e 51       		.byte	0x51
 11380 2c4f 02       		.uleb128 0x2
 11381 2c50 76       		.byte	0x76
 11382 2c51 00       		.sleb128 0
 11383 2c52 2D       		.uleb128 0x2d
 11384 2c53 02       		.uleb128 0x2
 11385 2c54 90       		.byte	0x90
 11386 2c55 41       		.uleb128 0x41
 11387 2c56 03       		.uleb128 0x3
 11388 2c57 F5       		.byte	0xf5
 11389 2c58 50       		.uleb128 0x50
 11390 2c59 25       		.uleb128 0x25
 11391 2c5a 2D       		.uleb128 0x2d
 11392 2c5b 01       		.uleb128 0x1
 11393 2c5c 50       		.byte	0x50
 11394 2c5d 02       		.uleb128 0x2
 11395 2c5e 74       		.byte	0x74
 11396 2c5f 00       		.sleb128 0
 11397 2c60 00       		.byte	0
 11398 2c61 2E       		.uleb128 0x2e
 11399 2c62 50100000 		.4byte	.LVL279
 11400 2c66 BF400000 		.4byte	0x40bf
 11401 2c6a 7B2C0000 		.4byte	0x2c7b
 11402 2c6e 2D       		.uleb128 0x2d
 11403 2c6f 01       		.uleb128 0x1
 11404 2c70 52       		.byte	0x52
 11405 2c71 02       		.uleb128 0x2
 11406 2c72 76       		.byte	0x76
 11407 2c73 00       		.sleb128 0
 11408 2c74 2D       		.uleb128 0x2d
 11409 2c75 01       		.uleb128 0x1
 11410 2c76 50       		.byte	0x50
 11411 2c77 02       		.uleb128 0x2
 11412 2c78 74       		.byte	0x74
 11413 2c79 00       		.sleb128 0
 11414 2c7a 00       		.byte	0
 11415 2c7b 2E       		.uleb128 0x2e
 11416 2c7c 68100000 		.4byte	.LVL280
 11417 2c80 BF400000 		.4byte	0x40bf
 11418 2c84 952C0000 		.4byte	0x2c95
 11419 2c88 2D       		.uleb128 0x2d
 11420 2c89 01       		.uleb128 0x1
 11421 2c8a 52       		.byte	0x52
 11422 2c8b 02       		.uleb128 0x2
 11423 2c8c 76       		.byte	0x76
 11424 2c8d 00       		.sleb128 0
 11425 2c8e 2D       		.uleb128 0x2d
 11426 2c8f 01       		.uleb128 0x1
 11427 2c90 50       		.byte	0x50
 11428 2c91 02       		.uleb128 0x2
 11429 2c92 74       		.byte	0x74
 11430 2c93 00       		.sleb128 0
 11431 2c94 00       		.byte	0
 11432 2c95 2E       		.uleb128 0x2e
 11433 2c96 80100000 		.4byte	.LVL281
 11434 2c9a BF400000 		.4byte	0x40bf
 11435 2c9e AF2C0000 		.4byte	0x2caf
ARM GAS  /tmp/ccy8OeyM.s 			page 202


 11436 2ca2 2D       		.uleb128 0x2d
 11437 2ca3 01       		.uleb128 0x1
 11438 2ca4 52       		.byte	0x52
 11439 2ca5 02       		.uleb128 0x2
 11440 2ca6 76       		.byte	0x76
 11441 2ca7 00       		.sleb128 0
 11442 2ca8 2D       		.uleb128 0x2d
 11443 2ca9 01       		.uleb128 0x1
 11444 2caa 50       		.byte	0x50
 11445 2cab 02       		.uleb128 0x2
 11446 2cac 74       		.byte	0x74
 11447 2cad 00       		.sleb128 0
 11448 2cae 00       		.byte	0
 11449 2caf 2E       		.uleb128 0x2e
 11450 2cb0 98100000 		.4byte	.LVL282
 11451 2cb4 BF400000 		.4byte	0x40bf
 11452 2cb8 C92C0000 		.4byte	0x2cc9
 11453 2cbc 2D       		.uleb128 0x2d
 11454 2cbd 01       		.uleb128 0x1
 11455 2cbe 52       		.byte	0x52
 11456 2cbf 02       		.uleb128 0x2
 11457 2cc0 76       		.byte	0x76
 11458 2cc1 00       		.sleb128 0
 11459 2cc2 2D       		.uleb128 0x2d
 11460 2cc3 01       		.uleb128 0x1
 11461 2cc4 50       		.byte	0x50
 11462 2cc5 02       		.uleb128 0x2
 11463 2cc6 74       		.byte	0x74
 11464 2cc7 00       		.sleb128 0
 11465 2cc8 00       		.byte	0
 11466 2cc9 2E       		.uleb128 0x2e
 11467 2cca B0100000 		.4byte	.LVL283
 11468 2cce BF400000 		.4byte	0x40bf
 11469 2cd2 E32C0000 		.4byte	0x2ce3
 11470 2cd6 2D       		.uleb128 0x2d
 11471 2cd7 01       		.uleb128 0x1
 11472 2cd8 52       		.byte	0x52
 11473 2cd9 02       		.uleb128 0x2
 11474 2cda 76       		.byte	0x76
 11475 2cdb 00       		.sleb128 0
 11476 2cdc 2D       		.uleb128 0x2d
 11477 2cdd 01       		.uleb128 0x1
 11478 2cde 50       		.byte	0x50
 11479 2cdf 02       		.uleb128 0x2
 11480 2ce0 74       		.byte	0x74
 11481 2ce1 00       		.sleb128 0
 11482 2ce2 00       		.byte	0
 11483 2ce3 2E       		.uleb128 0x2e
 11484 2ce4 C8100000 		.4byte	.LVL284
 11485 2ce8 BF400000 		.4byte	0x40bf
 11486 2cec FD2C0000 		.4byte	0x2cfd
 11487 2cf0 2D       		.uleb128 0x2d
 11488 2cf1 01       		.uleb128 0x1
 11489 2cf2 52       		.byte	0x52
 11490 2cf3 02       		.uleb128 0x2
 11491 2cf4 76       		.byte	0x76
 11492 2cf5 00       		.sleb128 0
ARM GAS  /tmp/ccy8OeyM.s 			page 203


 11493 2cf6 2D       		.uleb128 0x2d
 11494 2cf7 01       		.uleb128 0x1
 11495 2cf8 50       		.byte	0x50
 11496 2cf9 02       		.uleb128 0x2
 11497 2cfa 74       		.byte	0x74
 11498 2cfb 00       		.sleb128 0
 11499 2cfc 00       		.byte	0
 11500 2cfd 2E       		.uleb128 0x2e
 11501 2cfe E0100000 		.4byte	.LVL285
 11502 2d02 BF400000 		.4byte	0x40bf
 11503 2d06 172D0000 		.4byte	0x2d17
 11504 2d0a 2D       		.uleb128 0x2d
 11505 2d0b 01       		.uleb128 0x1
 11506 2d0c 52       		.byte	0x52
 11507 2d0d 02       		.uleb128 0x2
 11508 2d0e 76       		.byte	0x76
 11509 2d0f 00       		.sleb128 0
 11510 2d10 2D       		.uleb128 0x2d
 11511 2d11 01       		.uleb128 0x1
 11512 2d12 50       		.byte	0x50
 11513 2d13 02       		.uleb128 0x2
 11514 2d14 74       		.byte	0x74
 11515 2d15 00       		.sleb128 0
 11516 2d16 00       		.byte	0
 11517 2d17 2E       		.uleb128 0x2e
 11518 2d18 F8100000 		.4byte	.LVL286
 11519 2d1c BF400000 		.4byte	0x40bf
 11520 2d20 312D0000 		.4byte	0x2d31
 11521 2d24 2D       		.uleb128 0x2d
 11522 2d25 01       		.uleb128 0x1
 11523 2d26 52       		.byte	0x52
 11524 2d27 02       		.uleb128 0x2
 11525 2d28 76       		.byte	0x76
 11526 2d29 00       		.sleb128 0
 11527 2d2a 2D       		.uleb128 0x2d
 11528 2d2b 01       		.uleb128 0x1
 11529 2d2c 50       		.byte	0x50
 11530 2d2d 02       		.uleb128 0x2
 11531 2d2e 74       		.byte	0x74
 11532 2d2f 00       		.sleb128 0
 11533 2d30 00       		.byte	0
 11534 2d31 2E       		.uleb128 0x2e
 11535 2d32 08110000 		.4byte	.LVL287
 11536 2d36 C3410000 		.4byte	0x41c3
 11537 2d3a 572D0000 		.4byte	0x2d57
 11538 2d3e 2D       		.uleb128 0x2d
 11539 2d3f 01       		.uleb128 0x1
 11540 2d40 51       		.byte	0x51
 11541 2d41 02       		.uleb128 0x2
 11542 2d42 76       		.byte	0x76
 11543 2d43 00       		.sleb128 0
 11544 2d44 2D       		.uleb128 0x2d
 11545 2d45 02       		.uleb128 0x2
 11546 2d46 90       		.byte	0x90
 11547 2d47 41       		.uleb128 0x41
 11548 2d48 07       		.uleb128 0x7
 11549 2d49 F4       		.byte	0xf4
ARM GAS  /tmp/ccy8OeyM.s 			page 204


 11550 2d4a 25       		.uleb128 0x25
 11551 2d4b 04       		.byte	0x4
 11552 2d4c 0050C347 		.4byte	0x47c35000
 11553 2d50 2D       		.uleb128 0x2d
 11554 2d51 01       		.uleb128 0x1
 11555 2d52 50       		.byte	0x50
 11556 2d53 02       		.uleb128 0x2
 11557 2d54 74       		.byte	0x74
 11558 2d55 00       		.sleb128 0
 11559 2d56 00       		.byte	0
 11560 2d57 2E       		.uleb128 0x2e
 11561 2d58 20110000 		.4byte	.LVL288
 11562 2d5c BF400000 		.4byte	0x40bf
 11563 2d60 712D0000 		.4byte	0x2d71
 11564 2d64 2D       		.uleb128 0x2d
 11565 2d65 01       		.uleb128 0x1
 11566 2d66 52       		.byte	0x52
 11567 2d67 02       		.uleb128 0x2
 11568 2d68 76       		.byte	0x76
 11569 2d69 00       		.sleb128 0
 11570 2d6a 2D       		.uleb128 0x2d
 11571 2d6b 01       		.uleb128 0x1
 11572 2d6c 50       		.byte	0x50
 11573 2d6d 02       		.uleb128 0x2
 11574 2d6e 74       		.byte	0x74
 11575 2d6f 00       		.sleb128 0
 11576 2d70 00       		.byte	0
 11577 2d71 2E       		.uleb128 0x2e
 11578 2d72 38110000 		.4byte	.LVL289
 11579 2d76 BF400000 		.4byte	0x40bf
 11580 2d7a 962D0000 		.4byte	0x2d96
 11581 2d7e 2D       		.uleb128 0x2d
 11582 2d7f 01       		.uleb128 0x1
 11583 2d80 52       		.byte	0x52
 11584 2d81 02       		.uleb128 0x2
 11585 2d82 76       		.byte	0x76
 11586 2d83 00       		.sleb128 0
 11587 2d84 2D       		.uleb128 0x2d
 11588 2d85 01       		.uleb128 0x1
 11589 2d86 51       		.byte	0x51
 11590 2d87 07       		.uleb128 0x7
 11591 2d88 F5       		.byte	0xf5
 11592 2d89 50       		.uleb128 0x50
 11593 2d8a 25       		.uleb128 0x25
 11594 2d8b F7       		.byte	0xf7
 11595 2d8c 2C       		.uleb128 0x2c
 11596 2d8d F7       		.byte	0xf7
 11597 2d8e 00       		.uleb128 0
 11598 2d8f 2D       		.uleb128 0x2d
 11599 2d90 01       		.uleb128 0x1
 11600 2d91 50       		.byte	0x50
 11601 2d92 02       		.uleb128 0x2
 11602 2d93 74       		.byte	0x74
 11603 2d94 00       		.sleb128 0
 11604 2d95 00       		.byte	0
 11605 2d96 2E       		.uleb128 0x2e
 11606 2d97 50110000 		.4byte	.LVL290
ARM GAS  /tmp/ccy8OeyM.s 			page 205


 11607 2d9b BF400000 		.4byte	0x40bf
 11608 2d9f B02D0000 		.4byte	0x2db0
 11609 2da3 2D       		.uleb128 0x2d
 11610 2da4 01       		.uleb128 0x1
 11611 2da5 52       		.byte	0x52
 11612 2da6 02       		.uleb128 0x2
 11613 2da7 76       		.byte	0x76
 11614 2da8 00       		.sleb128 0
 11615 2da9 2D       		.uleb128 0x2d
 11616 2daa 01       		.uleb128 0x1
 11617 2dab 50       		.byte	0x50
 11618 2dac 02       		.uleb128 0x2
 11619 2dad 74       		.byte	0x74
 11620 2dae 00       		.sleb128 0
 11621 2daf 00       		.byte	0
 11622 2db0 2E       		.uleb128 0x2e
 11623 2db1 68110000 		.4byte	.LVL291
 11624 2db5 BF400000 		.4byte	0x40bf
 11625 2db9 CA2D0000 		.4byte	0x2dca
 11626 2dbd 2D       		.uleb128 0x2d
 11627 2dbe 01       		.uleb128 0x1
 11628 2dbf 52       		.byte	0x52
 11629 2dc0 02       		.uleb128 0x2
 11630 2dc1 76       		.byte	0x76
 11631 2dc2 00       		.sleb128 0
 11632 2dc3 2D       		.uleb128 0x2d
 11633 2dc4 01       		.uleb128 0x1
 11634 2dc5 50       		.byte	0x50
 11635 2dc6 02       		.uleb128 0x2
 11636 2dc7 74       		.byte	0x74
 11637 2dc8 00       		.sleb128 0
 11638 2dc9 00       		.byte	0
 11639 2dca 2E       		.uleb128 0x2e
 11640 2dcb 74110000 		.4byte	.LVL292
 11641 2dcf BF400000 		.4byte	0x40bf
 11642 2dd3 E42D0000 		.4byte	0x2de4
 11643 2dd7 2D       		.uleb128 0x2d
 11644 2dd8 01       		.uleb128 0x1
 11645 2dd9 52       		.byte	0x52
 11646 2dda 02       		.uleb128 0x2
 11647 2ddb 76       		.byte	0x76
 11648 2ddc 00       		.sleb128 0
 11649 2ddd 2D       		.uleb128 0x2d
 11650 2dde 01       		.uleb128 0x1
 11651 2ddf 50       		.byte	0x50
 11652 2de0 02       		.uleb128 0x2
 11653 2de1 74       		.byte	0x74
 11654 2de2 00       		.sleb128 0
 11655 2de3 00       		.byte	0
 11656 2de4 2E       		.uleb128 0x2e
 11657 2de5 84110000 		.4byte	.LVL293
 11658 2de9 C3410000 		.4byte	0x41c3
 11659 2ded 062E0000 		.4byte	0x2e06
 11660 2df1 2D       		.uleb128 0x2d
 11661 2df2 01       		.uleb128 0x1
 11662 2df3 51       		.byte	0x51
 11663 2df4 02       		.uleb128 0x2
ARM GAS  /tmp/ccy8OeyM.s 			page 206


 11664 2df5 76       		.byte	0x76
 11665 2df6 00       		.sleb128 0
 11666 2df7 2D       		.uleb128 0x2d
 11667 2df8 02       		.uleb128 0x2
 11668 2df9 90       		.byte	0x90
 11669 2dfa 41       		.uleb128 0x41
 11670 2dfb 03       		.uleb128 0x3
 11671 2dfc F5       		.byte	0xf5
 11672 2dfd 51       		.uleb128 0x51
 11673 2dfe 25       		.uleb128 0x25
 11674 2dff 2D       		.uleb128 0x2d
 11675 2e00 01       		.uleb128 0x1
 11676 2e01 50       		.byte	0x50
 11677 2e02 02       		.uleb128 0x2
 11678 2e03 74       		.byte	0x74
 11679 2e04 00       		.sleb128 0
 11680 2e05 00       		.byte	0
 11681 2e06 2E       		.uleb128 0x2e
 11682 2e07 94110000 		.4byte	.LVL294
 11683 2e0b C3410000 		.4byte	0x41c3
 11684 2e0f 282E0000 		.4byte	0x2e28
 11685 2e13 2D       		.uleb128 0x2d
 11686 2e14 01       		.uleb128 0x1
 11687 2e15 51       		.byte	0x51
 11688 2e16 02       		.uleb128 0x2
 11689 2e17 76       		.byte	0x76
 11690 2e18 00       		.sleb128 0
 11691 2e19 2D       		.uleb128 0x2d
 11692 2e1a 02       		.uleb128 0x2
 11693 2e1b 90       		.byte	0x90
 11694 2e1c 41       		.uleb128 0x41
 11695 2e1d 03       		.uleb128 0x3
 11696 2e1e F5       		.byte	0xf5
 11697 2e1f 51       		.uleb128 0x51
 11698 2e20 25       		.uleb128 0x25
 11699 2e21 2D       		.uleb128 0x2d
 11700 2e22 01       		.uleb128 0x1
 11701 2e23 50       		.byte	0x50
 11702 2e24 02       		.uleb128 0x2
 11703 2e25 74       		.byte	0x74
 11704 2e26 00       		.sleb128 0
 11705 2e27 00       		.byte	0
 11706 2e28 2E       		.uleb128 0x2e
 11707 2e29 A4110000 		.4byte	.LVL295
 11708 2e2d C3410000 		.4byte	0x41c3
 11709 2e31 4A2E0000 		.4byte	0x2e4a
 11710 2e35 2D       		.uleb128 0x2d
 11711 2e36 01       		.uleb128 0x1
 11712 2e37 51       		.byte	0x51
 11713 2e38 02       		.uleb128 0x2
 11714 2e39 76       		.byte	0x76
 11715 2e3a 00       		.sleb128 0
 11716 2e3b 2D       		.uleb128 0x2d
 11717 2e3c 02       		.uleb128 0x2
 11718 2e3d 90       		.byte	0x90
 11719 2e3e 41       		.uleb128 0x41
 11720 2e3f 03       		.uleb128 0x3
ARM GAS  /tmp/ccy8OeyM.s 			page 207


 11721 2e40 F5       		.byte	0xf5
 11722 2e41 51       		.uleb128 0x51
 11723 2e42 25       		.uleb128 0x25
 11724 2e43 2D       		.uleb128 0x2d
 11725 2e44 01       		.uleb128 0x1
 11726 2e45 50       		.byte	0x50
 11727 2e46 02       		.uleb128 0x2
 11728 2e47 74       		.byte	0x74
 11729 2e48 00       		.sleb128 0
 11730 2e49 00       		.byte	0
 11731 2e4a 2E       		.uleb128 0x2e
 11732 2e4b B0110000 		.4byte	.LVL296
 11733 2e4f 3D420000 		.4byte	0x423d
 11734 2e53 642E0000 		.4byte	0x2e64
 11735 2e57 2D       		.uleb128 0x2d
 11736 2e58 01       		.uleb128 0x1
 11737 2e59 52       		.byte	0x52
 11738 2e5a 02       		.uleb128 0x2
 11739 2e5b 76       		.byte	0x76
 11740 2e5c 00       		.sleb128 0
 11741 2e5d 2D       		.uleb128 0x2d
 11742 2e5e 01       		.uleb128 0x1
 11743 2e5f 50       		.byte	0x50
 11744 2e60 02       		.uleb128 0x2
 11745 2e61 74       		.byte	0x74
 11746 2e62 00       		.sleb128 0
 11747 2e63 00       		.byte	0
 11748 2e64 41       		.uleb128 0x41
 11749 2e65 D4110000 		.4byte	.LVL300
 11750 2e69 7D410000 		.4byte	0x417d
 11751 2e6d 2E       		.uleb128 0x2e
 11752 2e6e F0110000 		.4byte	.LVL302
 11753 2e72 09410000 		.4byte	0x4109
 11754 2e76 882E0000 		.4byte	0x2e88
 11755 2e7a 2D       		.uleb128 0x2d
 11756 2e7b 01       		.uleb128 0x1
 11757 2e7c 52       		.byte	0x52
 11758 2e7d 03       		.uleb128 0x3
 11759 2e7e 0A       		.byte	0xa
 11760 2e7f 3401     		.2byte	0x134
 11761 2e81 2D       		.uleb128 0x2d
 11762 2e82 01       		.uleb128 0x1
 11763 2e83 50       		.byte	0x50
 11764 2e84 02       		.uleb128 0x2
 11765 2e85 75       		.byte	0x75
 11766 2e86 00       		.sleb128 0
 11767 2e87 00       		.byte	0
 11768 2e88 2E       		.uleb128 0x2e
 11769 2e89 16120000 		.4byte	.LVL303
 11770 2e8d 2D410000 		.4byte	0x412d
 11771 2e91 AA2E0000 		.4byte	0x2eaa
 11772 2e95 2D       		.uleb128 0x2d
 11773 2e96 01       		.uleb128 0x1
 11774 2e97 51       		.byte	0x51
 11775 2e98 02       		.uleb128 0x2
 11776 2e99 76       		.byte	0x76
 11777 2e9a 00       		.sleb128 0
ARM GAS  /tmp/ccy8OeyM.s 			page 208


 11778 2e9b 2D       		.uleb128 0x2d
 11779 2e9c 02       		.uleb128 0x2
 11780 2e9d 90       		.byte	0x90
 11781 2e9e 40       		.uleb128 0x40
 11782 2e9f 03       		.uleb128 0x3
 11783 2ea0 F5       		.byte	0xf5
 11784 2ea1 50       		.uleb128 0x50
 11785 2ea2 25       		.uleb128 0x25
 11786 2ea3 2D       		.uleb128 0x2d
 11787 2ea4 01       		.uleb128 0x1
 11788 2ea5 50       		.byte	0x50
 11789 2ea6 02       		.uleb128 0x2
 11790 2ea7 74       		.byte	0x74
 11791 2ea8 00       		.sleb128 0
 11792 2ea9 00       		.byte	0
 11793 2eaa 2E       		.uleb128 0x2e
 11794 2eab 26120000 		.4byte	.LVL304
 11795 2eaf 2D410000 		.4byte	0x412d
 11796 2eb3 CC2E0000 		.4byte	0x2ecc
 11797 2eb7 2D       		.uleb128 0x2d
 11798 2eb8 01       		.uleb128 0x1
 11799 2eb9 51       		.byte	0x51
 11800 2eba 02       		.uleb128 0x2
 11801 2ebb 76       		.byte	0x76
 11802 2ebc 00       		.sleb128 0
 11803 2ebd 2D       		.uleb128 0x2d
 11804 2ebe 02       		.uleb128 0x2
 11805 2ebf 90       		.byte	0x90
 11806 2ec0 40       		.uleb128 0x40
 11807 2ec1 03       		.uleb128 0x3
 11808 2ec2 F5       		.byte	0xf5
 11809 2ec3 50       		.uleb128 0x50
 11810 2ec4 25       		.uleb128 0x25
 11811 2ec5 2D       		.uleb128 0x2d
 11812 2ec6 01       		.uleb128 0x1
 11813 2ec7 50       		.byte	0x50
 11814 2ec8 02       		.uleb128 0x2
 11815 2ec9 74       		.byte	0x74
 11816 2eca 00       		.sleb128 0
 11817 2ecb 00       		.byte	0
 11818 2ecc 2E       		.uleb128 0x2e
 11819 2ecd 36120000 		.4byte	.LVL305
 11820 2ed1 2D410000 		.4byte	0x412d
 11821 2ed5 EE2E0000 		.4byte	0x2eee
 11822 2ed9 2D       		.uleb128 0x2d
 11823 2eda 01       		.uleb128 0x1
 11824 2edb 51       		.byte	0x51
 11825 2edc 02       		.uleb128 0x2
 11826 2edd 76       		.byte	0x76
 11827 2ede 00       		.sleb128 0
 11828 2edf 2D       		.uleb128 0x2d
 11829 2ee0 02       		.uleb128 0x2
 11830 2ee1 90       		.byte	0x90
 11831 2ee2 40       		.uleb128 0x40
 11832 2ee3 03       		.uleb128 0x3
 11833 2ee4 F5       		.byte	0xf5
 11834 2ee5 50       		.uleb128 0x50
ARM GAS  /tmp/ccy8OeyM.s 			page 209


 11835 2ee6 25       		.uleb128 0x25
 11836 2ee7 2D       		.uleb128 0x2d
 11837 2ee8 01       		.uleb128 0x1
 11838 2ee9 50       		.byte	0x50
 11839 2eea 02       		.uleb128 0x2
 11840 2eeb 74       		.byte	0x74
 11841 2eec 00       		.sleb128 0
 11842 2eed 00       		.byte	0
 11843 2eee 2E       		.uleb128 0x2e
 11844 2eef 46120000 		.4byte	.LVL306
 11845 2ef3 2D410000 		.4byte	0x412d
 11846 2ef7 102F0000 		.4byte	0x2f10
 11847 2efb 2D       		.uleb128 0x2d
 11848 2efc 01       		.uleb128 0x1
 11849 2efd 51       		.byte	0x51
 11850 2efe 02       		.uleb128 0x2
 11851 2eff 76       		.byte	0x76
 11852 2f00 00       		.sleb128 0
 11853 2f01 2D       		.uleb128 0x2d
 11854 2f02 02       		.uleb128 0x2
 11855 2f03 90       		.byte	0x90
 11856 2f04 40       		.uleb128 0x40
 11857 2f05 03       		.uleb128 0x3
 11858 2f06 F5       		.byte	0xf5
 11859 2f07 50       		.uleb128 0x50
 11860 2f08 25       		.uleb128 0x25
 11861 2f09 2D       		.uleb128 0x2d
 11862 2f0a 01       		.uleb128 0x1
 11863 2f0b 50       		.byte	0x50
 11864 2f0c 02       		.uleb128 0x2
 11865 2f0d 74       		.byte	0x74
 11866 2f0e 00       		.sleb128 0
 11867 2f0f 00       		.byte	0
 11868 2f10 2E       		.uleb128 0x2e
 11869 2f11 56120000 		.4byte	.LVL307
 11870 2f15 2D410000 		.4byte	0x412d
 11871 2f19 322F0000 		.4byte	0x2f32
 11872 2f1d 2D       		.uleb128 0x2d
 11873 2f1e 01       		.uleb128 0x1
 11874 2f1f 51       		.byte	0x51
 11875 2f20 02       		.uleb128 0x2
 11876 2f21 76       		.byte	0x76
 11877 2f22 00       		.sleb128 0
 11878 2f23 2D       		.uleb128 0x2d
 11879 2f24 02       		.uleb128 0x2
 11880 2f25 90       		.byte	0x90
 11881 2f26 40       		.uleb128 0x40
 11882 2f27 03       		.uleb128 0x3
 11883 2f28 F5       		.byte	0xf5
 11884 2f29 50       		.uleb128 0x50
 11885 2f2a 25       		.uleb128 0x25
 11886 2f2b 2D       		.uleb128 0x2d
 11887 2f2c 01       		.uleb128 0x1
 11888 2f2d 50       		.byte	0x50
 11889 2f2e 02       		.uleb128 0x2
 11890 2f2f 74       		.byte	0x74
 11891 2f30 00       		.sleb128 0
ARM GAS  /tmp/ccy8OeyM.s 			page 210


 11892 2f31 00       		.byte	0
 11893 2f32 2E       		.uleb128 0x2e
 11894 2f33 66120000 		.4byte	.LVL308
 11895 2f37 2D410000 		.4byte	0x412d
 11896 2f3b 542F0000 		.4byte	0x2f54
 11897 2f3f 2D       		.uleb128 0x2d
 11898 2f40 01       		.uleb128 0x1
 11899 2f41 51       		.byte	0x51
 11900 2f42 02       		.uleb128 0x2
 11901 2f43 76       		.byte	0x76
 11902 2f44 00       		.sleb128 0
 11903 2f45 2D       		.uleb128 0x2d
 11904 2f46 02       		.uleb128 0x2
 11905 2f47 90       		.byte	0x90
 11906 2f48 40       		.uleb128 0x40
 11907 2f49 03       		.uleb128 0x3
 11908 2f4a F5       		.byte	0xf5
 11909 2f4b 50       		.uleb128 0x50
 11910 2f4c 25       		.uleb128 0x25
 11911 2f4d 2D       		.uleb128 0x2d
 11912 2f4e 01       		.uleb128 0x1
 11913 2f4f 50       		.byte	0x50
 11914 2f50 02       		.uleb128 0x2
 11915 2f51 74       		.byte	0x74
 11916 2f52 00       		.sleb128 0
 11917 2f53 00       		.byte	0
 11918 2f54 2E       		.uleb128 0x2e
 11919 2f55 76120000 		.4byte	.LVL309
 11920 2f59 2D410000 		.4byte	0x412d
 11921 2f5d 762F0000 		.4byte	0x2f76
 11922 2f61 2D       		.uleb128 0x2d
 11923 2f62 01       		.uleb128 0x1
 11924 2f63 51       		.byte	0x51
 11925 2f64 02       		.uleb128 0x2
 11926 2f65 76       		.byte	0x76
 11927 2f66 00       		.sleb128 0
 11928 2f67 2D       		.uleb128 0x2d
 11929 2f68 02       		.uleb128 0x2
 11930 2f69 90       		.byte	0x90
 11931 2f6a 40       		.uleb128 0x40
 11932 2f6b 03       		.uleb128 0x3
 11933 2f6c F5       		.byte	0xf5
 11934 2f6d 50       		.uleb128 0x50
 11935 2f6e 25       		.uleb128 0x25
 11936 2f6f 2D       		.uleb128 0x2d
 11937 2f70 01       		.uleb128 0x1
 11938 2f71 50       		.byte	0x50
 11939 2f72 02       		.uleb128 0x2
 11940 2f73 74       		.byte	0x74
 11941 2f74 00       		.sleb128 0
 11942 2f75 00       		.byte	0
 11943 2f76 2E       		.uleb128 0x2e
 11944 2f77 86120000 		.4byte	.LVL310
 11945 2f7b 2D410000 		.4byte	0x412d
 11946 2f7f 982F0000 		.4byte	0x2f98
 11947 2f83 2D       		.uleb128 0x2d
 11948 2f84 01       		.uleb128 0x1
ARM GAS  /tmp/ccy8OeyM.s 			page 211


 11949 2f85 51       		.byte	0x51
 11950 2f86 02       		.uleb128 0x2
 11951 2f87 76       		.byte	0x76
 11952 2f88 00       		.sleb128 0
 11953 2f89 2D       		.uleb128 0x2d
 11954 2f8a 02       		.uleb128 0x2
 11955 2f8b 90       		.byte	0x90
 11956 2f8c 40       		.uleb128 0x40
 11957 2f8d 03       		.uleb128 0x3
 11958 2f8e F5       		.byte	0xf5
 11959 2f8f 50       		.uleb128 0x50
 11960 2f90 25       		.uleb128 0x25
 11961 2f91 2D       		.uleb128 0x2d
 11962 2f92 01       		.uleb128 0x1
 11963 2f93 50       		.byte	0x50
 11964 2f94 02       		.uleb128 0x2
 11965 2f95 74       		.byte	0x74
 11966 2f96 00       		.sleb128 0
 11967 2f97 00       		.byte	0
 11968 2f98 2E       		.uleb128 0x2e
 11969 2f99 96120000 		.4byte	.LVL311
 11970 2f9d 2D410000 		.4byte	0x412d
 11971 2fa1 BA2F0000 		.4byte	0x2fba
 11972 2fa5 2D       		.uleb128 0x2d
 11973 2fa6 01       		.uleb128 0x1
 11974 2fa7 51       		.byte	0x51
 11975 2fa8 02       		.uleb128 0x2
 11976 2fa9 76       		.byte	0x76
 11977 2faa 00       		.sleb128 0
 11978 2fab 2D       		.uleb128 0x2d
 11979 2fac 02       		.uleb128 0x2
 11980 2fad 90       		.byte	0x90
 11981 2fae 40       		.uleb128 0x40
 11982 2faf 03       		.uleb128 0x3
 11983 2fb0 F5       		.byte	0xf5
 11984 2fb1 50       		.uleb128 0x50
 11985 2fb2 25       		.uleb128 0x25
 11986 2fb3 2D       		.uleb128 0x2d
 11987 2fb4 01       		.uleb128 0x1
 11988 2fb5 50       		.byte	0x50
 11989 2fb6 02       		.uleb128 0x2
 11990 2fb7 74       		.byte	0x74
 11991 2fb8 00       		.sleb128 0
 11992 2fb9 00       		.byte	0
 11993 2fba 2E       		.uleb128 0x2e
 11994 2fbb A6120000 		.4byte	.LVL312
 11995 2fbf 2D410000 		.4byte	0x412d
 11996 2fc3 DC2F0000 		.4byte	0x2fdc
 11997 2fc7 2D       		.uleb128 0x2d
 11998 2fc8 01       		.uleb128 0x1
 11999 2fc9 51       		.byte	0x51
 12000 2fca 02       		.uleb128 0x2
 12001 2fcb 76       		.byte	0x76
 12002 2fcc 00       		.sleb128 0
 12003 2fcd 2D       		.uleb128 0x2d
 12004 2fce 02       		.uleb128 0x2
 12005 2fcf 90       		.byte	0x90
ARM GAS  /tmp/ccy8OeyM.s 			page 212


 12006 2fd0 40       		.uleb128 0x40
 12007 2fd1 03       		.uleb128 0x3
 12008 2fd2 F5       		.byte	0xf5
 12009 2fd3 50       		.uleb128 0x50
 12010 2fd4 25       		.uleb128 0x25
 12011 2fd5 2D       		.uleb128 0x2d
 12012 2fd6 01       		.uleb128 0x1
 12013 2fd7 50       		.byte	0x50
 12014 2fd8 02       		.uleb128 0x2
 12015 2fd9 74       		.byte	0x74
 12016 2fda 00       		.sleb128 0
 12017 2fdb 00       		.byte	0
 12018 2fdc 2E       		.uleb128 0x2e
 12019 2fdd B6120000 		.4byte	.LVL313
 12020 2fe1 2D410000 		.4byte	0x412d
 12021 2fe5 FE2F0000 		.4byte	0x2ffe
 12022 2fe9 2D       		.uleb128 0x2d
 12023 2fea 01       		.uleb128 0x1
 12024 2feb 51       		.byte	0x51
 12025 2fec 02       		.uleb128 0x2
 12026 2fed 76       		.byte	0x76
 12027 2fee 00       		.sleb128 0
 12028 2fef 2D       		.uleb128 0x2d
 12029 2ff0 02       		.uleb128 0x2
 12030 2ff1 90       		.byte	0x90
 12031 2ff2 40       		.uleb128 0x40
 12032 2ff3 03       		.uleb128 0x3
 12033 2ff4 F5       		.byte	0xf5
 12034 2ff5 50       		.uleb128 0x50
 12035 2ff6 25       		.uleb128 0x25
 12036 2ff7 2D       		.uleb128 0x2d
 12037 2ff8 01       		.uleb128 0x1
 12038 2ff9 50       		.byte	0x50
 12039 2ffa 02       		.uleb128 0x2
 12040 2ffb 74       		.byte	0x74
 12041 2ffc 00       		.sleb128 0
 12042 2ffd 00       		.byte	0
 12043 2ffe 2E       		.uleb128 0x2e
 12044 2fff C6120000 		.4byte	.LVL314
 12045 3003 2D410000 		.4byte	0x412d
 12046 3007 20300000 		.4byte	0x3020
 12047 300b 2D       		.uleb128 0x2d
 12048 300c 01       		.uleb128 0x1
 12049 300d 51       		.byte	0x51
 12050 300e 02       		.uleb128 0x2
 12051 300f 76       		.byte	0x76
 12052 3010 00       		.sleb128 0
 12053 3011 2D       		.uleb128 0x2d
 12054 3012 02       		.uleb128 0x2
 12055 3013 90       		.byte	0x90
 12056 3014 40       		.uleb128 0x40
 12057 3015 03       		.uleb128 0x3
 12058 3016 F5       		.byte	0xf5
 12059 3017 50       		.uleb128 0x50
 12060 3018 25       		.uleb128 0x25
 12061 3019 2D       		.uleb128 0x2d
 12062 301a 01       		.uleb128 0x1
ARM GAS  /tmp/ccy8OeyM.s 			page 213


 12063 301b 50       		.byte	0x50
 12064 301c 02       		.uleb128 0x2
 12065 301d 74       		.byte	0x74
 12066 301e 00       		.sleb128 0
 12067 301f 00       		.byte	0
 12068 3020 2E       		.uleb128 0x2e
 12069 3021 D6120000 		.4byte	.LVL315
 12070 3025 2D410000 		.4byte	0x412d
 12071 3029 42300000 		.4byte	0x3042
 12072 302d 2D       		.uleb128 0x2d
 12073 302e 01       		.uleb128 0x1
 12074 302f 51       		.byte	0x51
 12075 3030 02       		.uleb128 0x2
 12076 3031 76       		.byte	0x76
 12077 3032 00       		.sleb128 0
 12078 3033 2D       		.uleb128 0x2d
 12079 3034 02       		.uleb128 0x2
 12080 3035 90       		.byte	0x90
 12081 3036 40       		.uleb128 0x40
 12082 3037 03       		.uleb128 0x3
 12083 3038 F5       		.byte	0xf5
 12084 3039 50       		.uleb128 0x50
 12085 303a 25       		.uleb128 0x25
 12086 303b 2D       		.uleb128 0x2d
 12087 303c 01       		.uleb128 0x1
 12088 303d 50       		.byte	0x50
 12089 303e 02       		.uleb128 0x2
 12090 303f 74       		.byte	0x74
 12091 3040 00       		.sleb128 0
 12092 3041 00       		.byte	0
 12093 3042 2E       		.uleb128 0x2e
 12094 3043 08130000 		.4byte	.LVL316
 12095 3047 2D410000 		.4byte	0x412d
 12096 304b 64300000 		.4byte	0x3064
 12097 304f 2D       		.uleb128 0x2d
 12098 3050 01       		.uleb128 0x1
 12099 3051 51       		.byte	0x51
 12100 3052 02       		.uleb128 0x2
 12101 3053 76       		.byte	0x76
 12102 3054 00       		.sleb128 0
 12103 3055 2D       		.uleb128 0x2d
 12104 3056 02       		.uleb128 0x2
 12105 3057 90       		.byte	0x90
 12106 3058 40       		.uleb128 0x40
 12107 3059 03       		.uleb128 0x3
 12108 305a F5       		.byte	0xf5
 12109 305b 50       		.uleb128 0x50
 12110 305c 25       		.uleb128 0x25
 12111 305d 2D       		.uleb128 0x2d
 12112 305e 01       		.uleb128 0x1
 12113 305f 50       		.byte	0x50
 12114 3060 02       		.uleb128 0x2
 12115 3061 74       		.byte	0x74
 12116 3062 00       		.sleb128 0
 12117 3063 00       		.byte	0
 12118 3064 2E       		.uleb128 0x2e
 12119 3065 18130000 		.4byte	.LVL317
ARM GAS  /tmp/ccy8OeyM.s 			page 214


 12120 3069 2D410000 		.4byte	0x412d
 12121 306d 86300000 		.4byte	0x3086
 12122 3071 2D       		.uleb128 0x2d
 12123 3072 01       		.uleb128 0x1
 12124 3073 51       		.byte	0x51
 12125 3074 02       		.uleb128 0x2
 12126 3075 76       		.byte	0x76
 12127 3076 00       		.sleb128 0
 12128 3077 2D       		.uleb128 0x2d
 12129 3078 02       		.uleb128 0x2
 12130 3079 90       		.byte	0x90
 12131 307a 40       		.uleb128 0x40
 12132 307b 03       		.uleb128 0x3
 12133 307c F5       		.byte	0xf5
 12134 307d 50       		.uleb128 0x50
 12135 307e 25       		.uleb128 0x25
 12136 307f 2D       		.uleb128 0x2d
 12137 3080 01       		.uleb128 0x1
 12138 3081 50       		.byte	0x50
 12139 3082 02       		.uleb128 0x2
 12140 3083 74       		.byte	0x74
 12141 3084 00       		.sleb128 0
 12142 3085 00       		.byte	0
 12143 3086 2E       		.uleb128 0x2e
 12144 3087 28130000 		.4byte	.LVL318
 12145 308b 2D410000 		.4byte	0x412d
 12146 308f A8300000 		.4byte	0x30a8
 12147 3093 2D       		.uleb128 0x2d
 12148 3094 01       		.uleb128 0x1
 12149 3095 51       		.byte	0x51
 12150 3096 02       		.uleb128 0x2
 12151 3097 76       		.byte	0x76
 12152 3098 00       		.sleb128 0
 12153 3099 2D       		.uleb128 0x2d
 12154 309a 02       		.uleb128 0x2
 12155 309b 90       		.byte	0x90
 12156 309c 40       		.uleb128 0x40
 12157 309d 03       		.uleb128 0x3
 12158 309e F5       		.byte	0xf5
 12159 309f 50       		.uleb128 0x50
 12160 30a0 25       		.uleb128 0x25
 12161 30a1 2D       		.uleb128 0x2d
 12162 30a2 01       		.uleb128 0x1
 12163 30a3 50       		.byte	0x50
 12164 30a4 02       		.uleb128 0x2
 12165 30a5 74       		.byte	0x74
 12166 30a6 00       		.sleb128 0
 12167 30a7 00       		.byte	0
 12168 30a8 2E       		.uleb128 0x2e
 12169 30a9 38130000 		.4byte	.LVL319
 12170 30ad 2D410000 		.4byte	0x412d
 12171 30b1 CA300000 		.4byte	0x30ca
 12172 30b5 2D       		.uleb128 0x2d
 12173 30b6 01       		.uleb128 0x1
 12174 30b7 51       		.byte	0x51
 12175 30b8 02       		.uleb128 0x2
 12176 30b9 76       		.byte	0x76
ARM GAS  /tmp/ccy8OeyM.s 			page 215


 12177 30ba 00       		.sleb128 0
 12178 30bb 2D       		.uleb128 0x2d
 12179 30bc 02       		.uleb128 0x2
 12180 30bd 90       		.byte	0x90
 12181 30be 40       		.uleb128 0x40
 12182 30bf 03       		.uleb128 0x3
 12183 30c0 F5       		.byte	0xf5
 12184 30c1 50       		.uleb128 0x50
 12185 30c2 25       		.uleb128 0x25
 12186 30c3 2D       		.uleb128 0x2d
 12187 30c4 01       		.uleb128 0x1
 12188 30c5 50       		.byte	0x50
 12189 30c6 02       		.uleb128 0x2
 12190 30c7 74       		.byte	0x74
 12191 30c8 00       		.sleb128 0
 12192 30c9 00       		.byte	0
 12193 30ca 2E       		.uleb128 0x2e
 12194 30cb 48130000 		.4byte	.LVL320
 12195 30cf 2D410000 		.4byte	0x412d
 12196 30d3 EC300000 		.4byte	0x30ec
 12197 30d7 2D       		.uleb128 0x2d
 12198 30d8 01       		.uleb128 0x1
 12199 30d9 51       		.byte	0x51
 12200 30da 02       		.uleb128 0x2
 12201 30db 76       		.byte	0x76
 12202 30dc 00       		.sleb128 0
 12203 30dd 2D       		.uleb128 0x2d
 12204 30de 02       		.uleb128 0x2
 12205 30df 90       		.byte	0x90
 12206 30e0 40       		.uleb128 0x40
 12207 30e1 03       		.uleb128 0x3
 12208 30e2 F5       		.byte	0xf5
 12209 30e3 51       		.uleb128 0x51
 12210 30e4 25       		.uleb128 0x25
 12211 30e5 2D       		.uleb128 0x2d
 12212 30e6 01       		.uleb128 0x1
 12213 30e7 50       		.byte	0x50
 12214 30e8 02       		.uleb128 0x2
 12215 30e9 74       		.byte	0x74
 12216 30ea 00       		.sleb128 0
 12217 30eb 00       		.byte	0
 12218 30ec 2E       		.uleb128 0x2e
 12219 30ed 58130000 		.4byte	.LVL321
 12220 30f1 2D410000 		.4byte	0x412d
 12221 30f5 0E310000 		.4byte	0x310e
 12222 30f9 2D       		.uleb128 0x2d
 12223 30fa 01       		.uleb128 0x1
 12224 30fb 51       		.byte	0x51
 12225 30fc 02       		.uleb128 0x2
 12226 30fd 76       		.byte	0x76
 12227 30fe 00       		.sleb128 0
 12228 30ff 2D       		.uleb128 0x2d
 12229 3100 02       		.uleb128 0x2
 12230 3101 90       		.byte	0x90
 12231 3102 40       		.uleb128 0x40
 12232 3103 03       		.uleb128 0x3
 12233 3104 F5       		.byte	0xf5
ARM GAS  /tmp/ccy8OeyM.s 			page 216


 12234 3105 51       		.uleb128 0x51
 12235 3106 25       		.uleb128 0x25
 12236 3107 2D       		.uleb128 0x2d
 12237 3108 01       		.uleb128 0x1
 12238 3109 50       		.byte	0x50
 12239 310a 02       		.uleb128 0x2
 12240 310b 74       		.byte	0x74
 12241 310c 00       		.sleb128 0
 12242 310d 00       		.byte	0
 12243 310e 2E       		.uleb128 0x2e
 12244 310f 78130000 		.4byte	.LVL322
 12245 3113 AB420000 		.4byte	0x42ab
 12246 3117 28310000 		.4byte	0x3128
 12247 311b 2D       		.uleb128 0x2d
 12248 311c 01       		.uleb128 0x1
 12249 311d 51       		.byte	0x51
 12250 311e 02       		.uleb128 0x2
 12251 311f 76       		.byte	0x76
 12252 3120 00       		.sleb128 0
 12253 3121 2D       		.uleb128 0x2d
 12254 3122 01       		.uleb128 0x1
 12255 3123 50       		.byte	0x50
 12256 3124 02       		.uleb128 0x2
 12257 3125 74       		.byte	0x74
 12258 3126 00       		.sleb128 0
 12259 3127 00       		.byte	0
 12260 3128 2E       		.uleb128 0x2e
 12261 3129 90130000 		.4byte	.LVL323
 12262 312d AB420000 		.4byte	0x42ab
 12263 3131 42310000 		.4byte	0x3142
 12264 3135 2D       		.uleb128 0x2d
 12265 3136 01       		.uleb128 0x1
 12266 3137 51       		.byte	0x51
 12267 3138 02       		.uleb128 0x2
 12268 3139 76       		.byte	0x76
 12269 313a 00       		.sleb128 0
 12270 313b 2D       		.uleb128 0x2d
 12271 313c 01       		.uleb128 0x1
 12272 313d 50       		.byte	0x50
 12273 313e 02       		.uleb128 0x2
 12274 313f 74       		.byte	0x74
 12275 3140 00       		.sleb128 0
 12276 3141 00       		.byte	0
 12277 3142 2E       		.uleb128 0x2e
 12278 3143 A8130000 		.4byte	.LVL324
 12279 3147 AB420000 		.4byte	0x42ab
 12280 314b 5C310000 		.4byte	0x315c
 12281 314f 2D       		.uleb128 0x2d
 12282 3150 01       		.uleb128 0x1
 12283 3151 51       		.byte	0x51
 12284 3152 02       		.uleb128 0x2
 12285 3153 76       		.byte	0x76
 12286 3154 00       		.sleb128 0
 12287 3155 2D       		.uleb128 0x2d
 12288 3156 01       		.uleb128 0x1
 12289 3157 50       		.byte	0x50
 12290 3158 02       		.uleb128 0x2
ARM GAS  /tmp/ccy8OeyM.s 			page 217


 12291 3159 74       		.byte	0x74
 12292 315a 00       		.sleb128 0
 12293 315b 00       		.byte	0
 12294 315c 2E       		.uleb128 0x2e
 12295 315d C0130000 		.4byte	.LVL325
 12296 3161 AB420000 		.4byte	0x42ab
 12297 3165 76310000 		.4byte	0x3176
 12298 3169 2D       		.uleb128 0x2d
 12299 316a 01       		.uleb128 0x1
 12300 316b 51       		.byte	0x51
 12301 316c 02       		.uleb128 0x2
 12302 316d 76       		.byte	0x76
 12303 316e 00       		.sleb128 0
 12304 316f 2D       		.uleb128 0x2d
 12305 3170 01       		.uleb128 0x1
 12306 3171 50       		.byte	0x50
 12307 3172 02       		.uleb128 0x2
 12308 3173 74       		.byte	0x74
 12309 3174 00       		.sleb128 0
 12310 3175 00       		.byte	0
 12311 3176 2E       		.uleb128 0x2e
 12312 3177 D8130000 		.4byte	.LVL326
 12313 317b AB420000 		.4byte	0x42ab
 12314 317f 90310000 		.4byte	0x3190
 12315 3183 2D       		.uleb128 0x2d
 12316 3184 01       		.uleb128 0x1
 12317 3185 51       		.byte	0x51
 12318 3186 02       		.uleb128 0x2
 12319 3187 76       		.byte	0x76
 12320 3188 00       		.sleb128 0
 12321 3189 2D       		.uleb128 0x2d
 12322 318a 01       		.uleb128 0x1
 12323 318b 50       		.byte	0x50
 12324 318c 02       		.uleb128 0x2
 12325 318d 74       		.byte	0x74
 12326 318e 00       		.sleb128 0
 12327 318f 00       		.byte	0
 12328 3190 2E       		.uleb128 0x2e
 12329 3191 F0130000 		.4byte	.LVL327
 12330 3195 AB420000 		.4byte	0x42ab
 12331 3199 AA310000 		.4byte	0x31aa
 12332 319d 2D       		.uleb128 0x2d
 12333 319e 01       		.uleb128 0x1
 12334 319f 51       		.byte	0x51
 12335 31a0 02       		.uleb128 0x2
 12336 31a1 76       		.byte	0x76
 12337 31a2 00       		.sleb128 0
 12338 31a3 2D       		.uleb128 0x2d
 12339 31a4 01       		.uleb128 0x1
 12340 31a5 50       		.byte	0x50
 12341 31a6 02       		.uleb128 0x2
 12342 31a7 74       		.byte	0x74
 12343 31a8 00       		.sleb128 0
 12344 31a9 00       		.byte	0
 12345 31aa 2E       		.uleb128 0x2e
 12346 31ab 08140000 		.4byte	.LVL328
 12347 31af AB420000 		.4byte	0x42ab
ARM GAS  /tmp/ccy8OeyM.s 			page 218


 12348 31b3 C4310000 		.4byte	0x31c4
 12349 31b7 2D       		.uleb128 0x2d
 12350 31b8 01       		.uleb128 0x1
 12351 31b9 51       		.byte	0x51
 12352 31ba 02       		.uleb128 0x2
 12353 31bb 76       		.byte	0x76
 12354 31bc 00       		.sleb128 0
 12355 31bd 2D       		.uleb128 0x2d
 12356 31be 01       		.uleb128 0x1
 12357 31bf 50       		.byte	0x50
 12358 31c0 02       		.uleb128 0x2
 12359 31c1 74       		.byte	0x74
 12360 31c2 00       		.sleb128 0
 12361 31c3 00       		.byte	0
 12362 31c4 2E       		.uleb128 0x2e
 12363 31c5 32140000 		.4byte	.LVL329
 12364 31c9 AB420000 		.4byte	0x42ab
 12365 31cd DE310000 		.4byte	0x31de
 12366 31d1 2D       		.uleb128 0x2d
 12367 31d2 01       		.uleb128 0x1
 12368 31d3 51       		.byte	0x51
 12369 31d4 02       		.uleb128 0x2
 12370 31d5 76       		.byte	0x76
 12371 31d6 00       		.sleb128 0
 12372 31d7 2D       		.uleb128 0x2d
 12373 31d8 01       		.uleb128 0x1
 12374 31d9 50       		.byte	0x50
 12375 31da 02       		.uleb128 0x2
 12376 31db 74       		.byte	0x74
 12377 31dc 00       		.sleb128 0
 12378 31dd 00       		.byte	0
 12379 31de 2E       		.uleb128 0x2e
 12380 31df 4E140000 		.4byte	.LVL330
 12381 31e3 2D410000 		.4byte	0x412d
 12382 31e7 00320000 		.4byte	0x3200
 12383 31eb 2D       		.uleb128 0x2d
 12384 31ec 01       		.uleb128 0x1
 12385 31ed 51       		.byte	0x51
 12386 31ee 02       		.uleb128 0x2
 12387 31ef 76       		.byte	0x76
 12388 31f0 00       		.sleb128 0
 12389 31f1 2D       		.uleb128 0x2d
 12390 31f2 02       		.uleb128 0x2
 12391 31f3 90       		.byte	0x90
 12392 31f4 40       		.uleb128 0x40
 12393 31f5 03       		.uleb128 0x3
 12394 31f6 F5       		.byte	0xf5
 12395 31f7 52       		.uleb128 0x52
 12396 31f8 25       		.uleb128 0x25
 12397 31f9 2D       		.uleb128 0x2d
 12398 31fa 01       		.uleb128 0x1
 12399 31fb 50       		.byte	0x50
 12400 31fc 02       		.uleb128 0x2
 12401 31fd 74       		.byte	0x74
 12402 31fe 00       		.sleb128 0
 12403 31ff 00       		.byte	0
 12404 3200 2E       		.uleb128 0x2e
ARM GAS  /tmp/ccy8OeyM.s 			page 219


 12405 3201 5E140000 		.4byte	.LVL331
 12406 3205 2D410000 		.4byte	0x412d
 12407 3209 22320000 		.4byte	0x3222
 12408 320d 2D       		.uleb128 0x2d
 12409 320e 01       		.uleb128 0x1
 12410 320f 51       		.byte	0x51
 12411 3210 02       		.uleb128 0x2
 12412 3211 76       		.byte	0x76
 12413 3212 00       		.sleb128 0
 12414 3213 2D       		.uleb128 0x2d
 12415 3214 02       		.uleb128 0x2
 12416 3215 90       		.byte	0x90
 12417 3216 40       		.uleb128 0x40
 12418 3217 03       		.uleb128 0x3
 12419 3218 F5       		.byte	0xf5
 12420 3219 52       		.uleb128 0x52
 12421 321a 25       		.uleb128 0x25
 12422 321b 2D       		.uleb128 0x2d
 12423 321c 01       		.uleb128 0x1
 12424 321d 50       		.byte	0x50
 12425 321e 02       		.uleb128 0x2
 12426 321f 74       		.byte	0x74
 12427 3220 00       		.sleb128 0
 12428 3221 00       		.byte	0
 12429 3222 2E       		.uleb128 0x2e
 12430 3223 6E140000 		.4byte	.LVL332
 12431 3227 2D410000 		.4byte	0x412d
 12432 322b 44320000 		.4byte	0x3244
 12433 322f 2D       		.uleb128 0x2d
 12434 3230 01       		.uleb128 0x1
 12435 3231 51       		.byte	0x51
 12436 3232 02       		.uleb128 0x2
 12437 3233 76       		.byte	0x76
 12438 3234 00       		.sleb128 0
 12439 3235 2D       		.uleb128 0x2d
 12440 3236 02       		.uleb128 0x2
 12441 3237 90       		.byte	0x90
 12442 3238 40       		.uleb128 0x40
 12443 3239 03       		.uleb128 0x3
 12444 323a F5       		.byte	0xf5
 12445 323b 50       		.uleb128 0x50
 12446 323c 25       		.uleb128 0x25
 12447 323d 2D       		.uleb128 0x2d
 12448 323e 01       		.uleb128 0x1
 12449 323f 50       		.byte	0x50
 12450 3240 02       		.uleb128 0x2
 12451 3241 74       		.byte	0x74
 12452 3242 00       		.sleb128 0
 12453 3243 00       		.byte	0
 12454 3244 2E       		.uleb128 0x2e
 12455 3245 7E140000 		.4byte	.LVL333
 12456 3249 2D410000 		.4byte	0x412d
 12457 324d 66320000 		.4byte	0x3266
 12458 3251 2D       		.uleb128 0x2d
 12459 3252 01       		.uleb128 0x1
 12460 3253 51       		.byte	0x51
 12461 3254 02       		.uleb128 0x2
ARM GAS  /tmp/ccy8OeyM.s 			page 220


 12462 3255 76       		.byte	0x76
 12463 3256 00       		.sleb128 0
 12464 3257 2D       		.uleb128 0x2d
 12465 3258 02       		.uleb128 0x2
 12466 3259 90       		.byte	0x90
 12467 325a 40       		.uleb128 0x40
 12468 325b 03       		.uleb128 0x3
 12469 325c F5       		.byte	0xf5
 12470 325d 51       		.uleb128 0x51
 12471 325e 25       		.uleb128 0x25
 12472 325f 2D       		.uleb128 0x2d
 12473 3260 01       		.uleb128 0x1
 12474 3261 50       		.byte	0x50
 12475 3262 02       		.uleb128 0x2
 12476 3263 74       		.byte	0x74
 12477 3264 00       		.sleb128 0
 12478 3265 00       		.byte	0
 12479 3266 2E       		.uleb128 0x2e
 12480 3267 A0140000 		.4byte	.LVL334
 12481 326b 2D410000 		.4byte	0x412d
 12482 326f 88320000 		.4byte	0x3288
 12483 3273 2D       		.uleb128 0x2d
 12484 3274 01       		.uleb128 0x1
 12485 3275 51       		.byte	0x51
 12486 3276 02       		.uleb128 0x2
 12487 3277 76       		.byte	0x76
 12488 3278 00       		.sleb128 0
 12489 3279 2D       		.uleb128 0x2d
 12490 327a 02       		.uleb128 0x2
 12491 327b 90       		.byte	0x90
 12492 327c 40       		.uleb128 0x40
 12493 327d 03       		.uleb128 0x3
 12494 327e F5       		.byte	0xf5
 12495 327f 50       		.uleb128 0x50
 12496 3280 25       		.uleb128 0x25
 12497 3281 2D       		.uleb128 0x2d
 12498 3282 01       		.uleb128 0x1
 12499 3283 50       		.byte	0x50
 12500 3284 02       		.uleb128 0x2
 12501 3285 74       		.byte	0x74
 12502 3286 00       		.sleb128 0
 12503 3287 00       		.byte	0
 12504 3288 2E       		.uleb128 0x2e
 12505 3289 B0140000 		.4byte	.LVL335
 12506 328d 2D410000 		.4byte	0x412d
 12507 3291 AA320000 		.4byte	0x32aa
 12508 3295 2D       		.uleb128 0x2d
 12509 3296 01       		.uleb128 0x1
 12510 3297 51       		.byte	0x51
 12511 3298 02       		.uleb128 0x2
 12512 3299 76       		.byte	0x76
 12513 329a 00       		.sleb128 0
 12514 329b 2D       		.uleb128 0x2d
 12515 329c 02       		.uleb128 0x2
 12516 329d 90       		.byte	0x90
 12517 329e 40       		.uleb128 0x40
 12518 329f 03       		.uleb128 0x3
ARM GAS  /tmp/ccy8OeyM.s 			page 221


 12519 32a0 F5       		.byte	0xf5
 12520 32a1 50       		.uleb128 0x50
 12521 32a2 25       		.uleb128 0x25
 12522 32a3 2D       		.uleb128 0x2d
 12523 32a4 01       		.uleb128 0x1
 12524 32a5 50       		.byte	0x50
 12525 32a6 02       		.uleb128 0x2
 12526 32a7 74       		.byte	0x74
 12527 32a8 00       		.sleb128 0
 12528 32a9 00       		.byte	0
 12529 32aa 2E       		.uleb128 0x2e
 12530 32ab CC140000 		.4byte	.LVL336
 12531 32af 2D410000 		.4byte	0x412d
 12532 32b3 CC320000 		.4byte	0x32cc
 12533 32b7 2D       		.uleb128 0x2d
 12534 32b8 01       		.uleb128 0x1
 12535 32b9 51       		.byte	0x51
 12536 32ba 02       		.uleb128 0x2
 12537 32bb 76       		.byte	0x76
 12538 32bc 00       		.sleb128 0
 12539 32bd 2D       		.uleb128 0x2d
 12540 32be 02       		.uleb128 0x2
 12541 32bf 90       		.byte	0x90
 12542 32c0 40       		.uleb128 0x40
 12543 32c1 03       		.uleb128 0x3
 12544 32c2 F5       		.byte	0xf5
 12545 32c3 50       		.uleb128 0x50
 12546 32c4 25       		.uleb128 0x25
 12547 32c5 2D       		.uleb128 0x2d
 12548 32c6 01       		.uleb128 0x1
 12549 32c7 50       		.byte	0x50
 12550 32c8 02       		.uleb128 0x2
 12551 32c9 74       		.byte	0x74
 12552 32ca 00       		.sleb128 0
 12553 32cb 00       		.byte	0
 12554 32cc 2E       		.uleb128 0x2e
 12555 32cd DC140000 		.4byte	.LVL337
 12556 32d1 2D410000 		.4byte	0x412d
 12557 32d5 EE320000 		.4byte	0x32ee
 12558 32d9 2D       		.uleb128 0x2d
 12559 32da 01       		.uleb128 0x1
 12560 32db 51       		.byte	0x51
 12561 32dc 02       		.uleb128 0x2
 12562 32dd 76       		.byte	0x76
 12563 32de 00       		.sleb128 0
 12564 32df 2D       		.uleb128 0x2d
 12565 32e0 02       		.uleb128 0x2
 12566 32e1 90       		.byte	0x90
 12567 32e2 40       		.uleb128 0x40
 12568 32e3 03       		.uleb128 0x3
 12569 32e4 F5       		.byte	0xf5
 12570 32e5 50       		.uleb128 0x50
 12571 32e6 25       		.uleb128 0x25
 12572 32e7 2D       		.uleb128 0x2d
 12573 32e8 01       		.uleb128 0x1
 12574 32e9 50       		.byte	0x50
 12575 32ea 02       		.uleb128 0x2
ARM GAS  /tmp/ccy8OeyM.s 			page 222


 12576 32eb 74       		.byte	0x74
 12577 32ec 00       		.sleb128 0
 12578 32ed 00       		.byte	0
 12579 32ee 2E       		.uleb128 0x2e
 12580 32ef EC140000 		.4byte	.LVL338
 12581 32f3 2D410000 		.4byte	0x412d
 12582 32f7 14330000 		.4byte	0x3314
 12583 32fb 2D       		.uleb128 0x2d
 12584 32fc 01       		.uleb128 0x1
 12585 32fd 51       		.byte	0x51
 12586 32fe 02       		.uleb128 0x2
 12587 32ff 76       		.byte	0x76
 12588 3300 00       		.sleb128 0
 12589 3301 2D       		.uleb128 0x2d
 12590 3302 02       		.uleb128 0x2
 12591 3303 90       		.byte	0x90
 12592 3304 40       		.uleb128 0x40
 12593 3305 07       		.uleb128 0x7
 12594 3306 F4       		.byte	0xf4
 12595 3307 25       		.uleb128 0x25
 12596 3308 04       		.byte	0x4
 12597 3309 20BCBE4C 		.4byte	0x4cbebc20
 12598 330d 2D       		.uleb128 0x2d
 12599 330e 01       		.uleb128 0x1
 12600 330f 50       		.byte	0x50
 12601 3310 02       		.uleb128 0x2
 12602 3311 74       		.byte	0x74
 12603 3312 00       		.sleb128 0
 12604 3313 00       		.byte	0
 12605 3314 2E       		.uleb128 0x2e
 12606 3315 FC140000 		.4byte	.LVL339
 12607 3319 2D410000 		.4byte	0x412d
 12608 331d 36330000 		.4byte	0x3336
 12609 3321 2D       		.uleb128 0x2d
 12610 3322 01       		.uleb128 0x1
 12611 3323 51       		.byte	0x51
 12612 3324 02       		.uleb128 0x2
 12613 3325 76       		.byte	0x76
 12614 3326 00       		.sleb128 0
 12615 3327 2D       		.uleb128 0x2d
 12616 3328 02       		.uleb128 0x2
 12617 3329 90       		.byte	0x90
 12618 332a 40       		.uleb128 0x40
 12619 332b 03       		.uleb128 0x3
 12620 332c F5       		.byte	0xf5
 12621 332d 52       		.uleb128 0x52
 12622 332e 25       		.uleb128 0x25
 12623 332f 2D       		.uleb128 0x2d
 12624 3330 01       		.uleb128 0x1
 12625 3331 50       		.byte	0x50
 12626 3332 02       		.uleb128 0x2
 12627 3333 74       		.byte	0x74
 12628 3334 00       		.sleb128 0
 12629 3335 00       		.byte	0
 12630 3336 2E       		.uleb128 0x2e
 12631 3337 0C150000 		.4byte	.LVL340
 12632 333b 2D410000 		.4byte	0x412d
ARM GAS  /tmp/ccy8OeyM.s 			page 223


 12633 333f 58330000 		.4byte	0x3358
 12634 3343 2D       		.uleb128 0x2d
 12635 3344 01       		.uleb128 0x1
 12636 3345 51       		.byte	0x51
 12637 3346 02       		.uleb128 0x2
 12638 3347 76       		.byte	0x76
 12639 3348 00       		.sleb128 0
 12640 3349 2D       		.uleb128 0x2d
 12641 334a 02       		.uleb128 0x2
 12642 334b 90       		.byte	0x90
 12643 334c 40       		.uleb128 0x40
 12644 334d 03       		.uleb128 0x3
 12645 334e F5       		.byte	0xf5
 12646 334f 52       		.uleb128 0x52
 12647 3350 25       		.uleb128 0x25
 12648 3351 2D       		.uleb128 0x2d
 12649 3352 01       		.uleb128 0x1
 12650 3353 50       		.byte	0x50
 12651 3354 02       		.uleb128 0x2
 12652 3355 74       		.byte	0x74
 12653 3356 00       		.sleb128 0
 12654 3357 00       		.byte	0
 12655 3358 2E       		.uleb128 0x2e
 12656 3359 1C150000 		.4byte	.LVL341
 12657 335d 2D410000 		.4byte	0x412d
 12658 3361 7E330000 		.4byte	0x337e
 12659 3365 2D       		.uleb128 0x2d
 12660 3366 01       		.uleb128 0x1
 12661 3367 51       		.byte	0x51
 12662 3368 02       		.uleb128 0x2
 12663 3369 76       		.byte	0x76
 12664 336a 00       		.sleb128 0
 12665 336b 2D       		.uleb128 0x2d
 12666 336c 02       		.uleb128 0x2
 12667 336d 90       		.byte	0x90
 12668 336e 40       		.uleb128 0x40
 12669 336f 07       		.uleb128 0x7
 12670 3370 F4       		.byte	0xf4
 12671 3371 25       		.uleb128 0x25
 12672 3372 04       		.byte	0x4
 12673 3373 0000803F 		.4byte	0x3f800000
 12674 3377 2D       		.uleb128 0x2d
 12675 3378 01       		.uleb128 0x1
 12676 3379 50       		.byte	0x50
 12677 337a 02       		.uleb128 0x2
 12678 337b 74       		.byte	0x74
 12679 337c 00       		.sleb128 0
 12680 337d 00       		.byte	0
 12681 337e 2E       		.uleb128 0x2e
 12682 337f 2C150000 		.4byte	.LVL342
 12683 3383 2D410000 		.4byte	0x412d
 12684 3387 A0330000 		.4byte	0x33a0
 12685 338b 2D       		.uleb128 0x2d
 12686 338c 01       		.uleb128 0x1
 12687 338d 51       		.byte	0x51
 12688 338e 02       		.uleb128 0x2
 12689 338f 76       		.byte	0x76
ARM GAS  /tmp/ccy8OeyM.s 			page 224


 12690 3390 00       		.sleb128 0
 12691 3391 2D       		.uleb128 0x2d
 12692 3392 02       		.uleb128 0x2
 12693 3393 90       		.byte	0x90
 12694 3394 40       		.uleb128 0x40
 12695 3395 03       		.uleb128 0x3
 12696 3396 F5       		.byte	0xf5
 12697 3397 50       		.uleb128 0x50
 12698 3398 25       		.uleb128 0x25
 12699 3399 2D       		.uleb128 0x2d
 12700 339a 01       		.uleb128 0x1
 12701 339b 50       		.byte	0x50
 12702 339c 02       		.uleb128 0x2
 12703 339d 74       		.byte	0x74
 12704 339e 00       		.sleb128 0
 12705 339f 00       		.byte	0
 12706 33a0 2E       		.uleb128 0x2e
 12707 33a1 3C150000 		.4byte	.LVL343
 12708 33a5 2D410000 		.4byte	0x412d
 12709 33a9 C2330000 		.4byte	0x33c2
 12710 33ad 2D       		.uleb128 0x2d
 12711 33ae 01       		.uleb128 0x1
 12712 33af 51       		.byte	0x51
 12713 33b0 02       		.uleb128 0x2
 12714 33b1 76       		.byte	0x76
 12715 33b2 00       		.sleb128 0
 12716 33b3 2D       		.uleb128 0x2d
 12717 33b4 02       		.uleb128 0x2
 12718 33b5 90       		.byte	0x90
 12719 33b6 40       		.uleb128 0x40
 12720 33b7 03       		.uleb128 0x3
 12721 33b8 F5       		.byte	0xf5
 12722 33b9 50       		.uleb128 0x50
 12723 33ba 25       		.uleb128 0x25
 12724 33bb 2D       		.uleb128 0x2d
 12725 33bc 01       		.uleb128 0x1
 12726 33bd 50       		.byte	0x50
 12727 33be 02       		.uleb128 0x2
 12728 33bf 74       		.byte	0x74
 12729 33c0 00       		.sleb128 0
 12730 33c1 00       		.byte	0
 12731 33c2 2E       		.uleb128 0x2e
 12732 33c3 4C150000 		.4byte	.LVL344
 12733 33c7 2D410000 		.4byte	0x412d
 12734 33cb E4330000 		.4byte	0x33e4
 12735 33cf 2D       		.uleb128 0x2d
 12736 33d0 01       		.uleb128 0x1
 12737 33d1 51       		.byte	0x51
 12738 33d2 02       		.uleb128 0x2
 12739 33d3 76       		.byte	0x76
 12740 33d4 00       		.sleb128 0
 12741 33d5 2D       		.uleb128 0x2d
 12742 33d6 02       		.uleb128 0x2
 12743 33d7 90       		.byte	0x90
 12744 33d8 40       		.uleb128 0x40
 12745 33d9 03       		.uleb128 0x3
 12746 33da F5       		.byte	0xf5
ARM GAS  /tmp/ccy8OeyM.s 			page 225


 12747 33db 50       		.uleb128 0x50
 12748 33dc 25       		.uleb128 0x25
 12749 33dd 2D       		.uleb128 0x2d
 12750 33de 01       		.uleb128 0x1
 12751 33df 50       		.byte	0x50
 12752 33e0 02       		.uleb128 0x2
 12753 33e1 74       		.byte	0x74
 12754 33e2 00       		.sleb128 0
 12755 33e3 00       		.byte	0
 12756 33e4 2E       		.uleb128 0x2e
 12757 33e5 5C150000 		.4byte	.LVL345
 12758 33e9 2D410000 		.4byte	0x412d
 12759 33ed 06340000 		.4byte	0x3406
 12760 33f1 2D       		.uleb128 0x2d
 12761 33f2 01       		.uleb128 0x1
 12762 33f3 51       		.byte	0x51
 12763 33f4 02       		.uleb128 0x2
 12764 33f5 76       		.byte	0x76
 12765 33f6 00       		.sleb128 0
 12766 33f7 2D       		.uleb128 0x2d
 12767 33f8 02       		.uleb128 0x2
 12768 33f9 90       		.byte	0x90
 12769 33fa 40       		.uleb128 0x40
 12770 33fb 03       		.uleb128 0x3
 12771 33fc F5       		.byte	0xf5
 12772 33fd 50       		.uleb128 0x50
 12773 33fe 25       		.uleb128 0x25
 12774 33ff 2D       		.uleb128 0x2d
 12775 3400 01       		.uleb128 0x1
 12776 3401 50       		.byte	0x50
 12777 3402 02       		.uleb128 0x2
 12778 3403 74       		.byte	0x74
 12779 3404 00       		.sleb128 0
 12780 3405 00       		.byte	0
 12781 3406 2E       		.uleb128 0x2e
 12782 3407 6C150000 		.4byte	.LVL346
 12783 340b 2D410000 		.4byte	0x412d
 12784 340f 28340000 		.4byte	0x3428
 12785 3413 2D       		.uleb128 0x2d
 12786 3414 01       		.uleb128 0x1
 12787 3415 51       		.byte	0x51
 12788 3416 02       		.uleb128 0x2
 12789 3417 76       		.byte	0x76
 12790 3418 00       		.sleb128 0
 12791 3419 2D       		.uleb128 0x2d
 12792 341a 02       		.uleb128 0x2
 12793 341b 90       		.byte	0x90
 12794 341c 40       		.uleb128 0x40
 12795 341d 03       		.uleb128 0x3
 12796 341e F5       		.byte	0xf5
 12797 341f 50       		.uleb128 0x50
 12798 3420 25       		.uleb128 0x25
 12799 3421 2D       		.uleb128 0x2d
 12800 3422 01       		.uleb128 0x1
 12801 3423 50       		.byte	0x50
 12802 3424 02       		.uleb128 0x2
 12803 3425 74       		.byte	0x74
ARM GAS  /tmp/ccy8OeyM.s 			page 226


 12804 3426 00       		.sleb128 0
 12805 3427 00       		.byte	0
 12806 3428 2E       		.uleb128 0x2e
 12807 3429 7C150000 		.4byte	.LVL347
 12808 342d 2D410000 		.4byte	0x412d
 12809 3431 4A340000 		.4byte	0x344a
 12810 3435 2D       		.uleb128 0x2d
 12811 3436 01       		.uleb128 0x1
 12812 3437 51       		.byte	0x51
 12813 3438 02       		.uleb128 0x2
 12814 3439 76       		.byte	0x76
 12815 343a 00       		.sleb128 0
 12816 343b 2D       		.uleb128 0x2d
 12817 343c 02       		.uleb128 0x2
 12818 343d 90       		.byte	0x90
 12819 343e 40       		.uleb128 0x40
 12820 343f 03       		.uleb128 0x3
 12821 3440 F5       		.byte	0xf5
 12822 3441 50       		.uleb128 0x50
 12823 3442 25       		.uleb128 0x25
 12824 3443 2D       		.uleb128 0x2d
 12825 3444 01       		.uleb128 0x1
 12826 3445 50       		.byte	0x50
 12827 3446 02       		.uleb128 0x2
 12828 3447 74       		.byte	0x74
 12829 3448 00       		.sleb128 0
 12830 3449 00       		.byte	0
 12831 344a 2E       		.uleb128 0x2e
 12832 344b 8C150000 		.4byte	.LVL348
 12833 344f 2D410000 		.4byte	0x412d
 12834 3453 6C340000 		.4byte	0x346c
 12835 3457 2D       		.uleb128 0x2d
 12836 3458 01       		.uleb128 0x1
 12837 3459 51       		.byte	0x51
 12838 345a 02       		.uleb128 0x2
 12839 345b 76       		.byte	0x76
 12840 345c 00       		.sleb128 0
 12841 345d 2D       		.uleb128 0x2d
 12842 345e 02       		.uleb128 0x2
 12843 345f 90       		.byte	0x90
 12844 3460 40       		.uleb128 0x40
 12845 3461 03       		.uleb128 0x3
 12846 3462 F5       		.byte	0xf5
 12847 3463 50       		.uleb128 0x50
 12848 3464 25       		.uleb128 0x25
 12849 3465 2D       		.uleb128 0x2d
 12850 3466 01       		.uleb128 0x1
 12851 3467 50       		.byte	0x50
 12852 3468 02       		.uleb128 0x2
 12853 3469 74       		.byte	0x74
 12854 346a 00       		.sleb128 0
 12855 346b 00       		.byte	0
 12856 346c 2E       		.uleb128 0x2e
 12857 346d C2150000 		.4byte	.LVL349
 12858 3471 AB420000 		.4byte	0x42ab
 12859 3475 86340000 		.4byte	0x3486
 12860 3479 2D       		.uleb128 0x2d
ARM GAS  /tmp/ccy8OeyM.s 			page 227


 12861 347a 01       		.uleb128 0x1
 12862 347b 51       		.byte	0x51
 12863 347c 02       		.uleb128 0x2
 12864 347d 76       		.byte	0x76
 12865 347e 00       		.sleb128 0
 12866 347f 2D       		.uleb128 0x2d
 12867 3480 01       		.uleb128 0x1
 12868 3481 50       		.byte	0x50
 12869 3482 02       		.uleb128 0x2
 12870 3483 74       		.byte	0x74
 12871 3484 00       		.sleb128 0
 12872 3485 00       		.byte	0
 12873 3486 2E       		.uleb128 0x2e
 12874 3487 DA150000 		.4byte	.LVL350
 12875 348b AB420000 		.4byte	0x42ab
 12876 348f A0340000 		.4byte	0x34a0
 12877 3493 2D       		.uleb128 0x2d
 12878 3494 01       		.uleb128 0x1
 12879 3495 51       		.byte	0x51
 12880 3496 02       		.uleb128 0x2
 12881 3497 76       		.byte	0x76
 12882 3498 00       		.sleb128 0
 12883 3499 2D       		.uleb128 0x2d
 12884 349a 01       		.uleb128 0x1
 12885 349b 50       		.byte	0x50
 12886 349c 02       		.uleb128 0x2
 12887 349d 74       		.byte	0x74
 12888 349e 00       		.sleb128 0
 12889 349f 00       		.byte	0
 12890 34a0 2E       		.uleb128 0x2e
 12891 34a1 F2150000 		.4byte	.LVL351
 12892 34a5 AB420000 		.4byte	0x42ab
 12893 34a9 BA340000 		.4byte	0x34ba
 12894 34ad 2D       		.uleb128 0x2d
 12895 34ae 01       		.uleb128 0x1
 12896 34af 51       		.byte	0x51
 12897 34b0 02       		.uleb128 0x2
 12898 34b1 76       		.byte	0x76
 12899 34b2 00       		.sleb128 0
 12900 34b3 2D       		.uleb128 0x2d
 12901 34b4 01       		.uleb128 0x1
 12902 34b5 50       		.byte	0x50
 12903 34b6 02       		.uleb128 0x2
 12904 34b7 74       		.byte	0x74
 12905 34b8 00       		.sleb128 0
 12906 34b9 00       		.byte	0
 12907 34ba 2E       		.uleb128 0x2e
 12908 34bb 0A160000 		.4byte	.LVL352
 12909 34bf AB420000 		.4byte	0x42ab
 12910 34c3 D4340000 		.4byte	0x34d4
 12911 34c7 2D       		.uleb128 0x2d
 12912 34c8 01       		.uleb128 0x1
 12913 34c9 51       		.byte	0x51
 12914 34ca 02       		.uleb128 0x2
 12915 34cb 76       		.byte	0x76
 12916 34cc 00       		.sleb128 0
 12917 34cd 2D       		.uleb128 0x2d
ARM GAS  /tmp/ccy8OeyM.s 			page 228


 12918 34ce 01       		.uleb128 0x1
 12919 34cf 50       		.byte	0x50
 12920 34d0 02       		.uleb128 0x2
 12921 34d1 74       		.byte	0x74
 12922 34d2 00       		.sleb128 0
 12923 34d3 00       		.byte	0
 12924 34d4 2E       		.uleb128 0x2e
 12925 34d5 22160000 		.4byte	.LVL353
 12926 34d9 AB420000 		.4byte	0x42ab
 12927 34dd EE340000 		.4byte	0x34ee
 12928 34e1 2D       		.uleb128 0x2d
 12929 34e2 01       		.uleb128 0x1
 12930 34e3 51       		.byte	0x51
 12931 34e4 02       		.uleb128 0x2
 12932 34e5 76       		.byte	0x76
 12933 34e6 00       		.sleb128 0
 12934 34e7 2D       		.uleb128 0x2d
 12935 34e8 01       		.uleb128 0x1
 12936 34e9 50       		.byte	0x50
 12937 34ea 02       		.uleb128 0x2
 12938 34eb 74       		.byte	0x74
 12939 34ec 00       		.sleb128 0
 12940 34ed 00       		.byte	0
 12941 34ee 2E       		.uleb128 0x2e
 12942 34ef 3A160000 		.4byte	.LVL354
 12943 34f3 AB420000 		.4byte	0x42ab
 12944 34f7 08350000 		.4byte	0x3508
 12945 34fb 2D       		.uleb128 0x2d
 12946 34fc 01       		.uleb128 0x1
 12947 34fd 51       		.byte	0x51
 12948 34fe 02       		.uleb128 0x2
 12949 34ff 76       		.byte	0x76
 12950 3500 00       		.sleb128 0
 12951 3501 2D       		.uleb128 0x2d
 12952 3502 01       		.uleb128 0x1
 12953 3503 50       		.byte	0x50
 12954 3504 02       		.uleb128 0x2
 12955 3505 74       		.byte	0x74
 12956 3506 00       		.sleb128 0
 12957 3507 00       		.byte	0
 12958 3508 2E       		.uleb128 0x2e
 12959 3509 52160000 		.4byte	.LVL355
 12960 350d AB420000 		.4byte	0x42ab
 12961 3511 22350000 		.4byte	0x3522
 12962 3515 2D       		.uleb128 0x2d
 12963 3516 01       		.uleb128 0x1
 12964 3517 51       		.byte	0x51
 12965 3518 02       		.uleb128 0x2
 12966 3519 76       		.byte	0x76
 12967 351a 00       		.sleb128 0
 12968 351b 2D       		.uleb128 0x2d
 12969 351c 01       		.uleb128 0x1
 12970 351d 50       		.byte	0x50
 12971 351e 02       		.uleb128 0x2
 12972 351f 74       		.byte	0x74
 12973 3520 00       		.sleb128 0
 12974 3521 00       		.byte	0
ARM GAS  /tmp/ccy8OeyM.s 			page 229


 12975 3522 2E       		.uleb128 0x2e
 12976 3523 6A160000 		.4byte	.LVL356
 12977 3527 AB420000 		.4byte	0x42ab
 12978 352b 3C350000 		.4byte	0x353c
 12979 352f 2D       		.uleb128 0x2d
 12980 3530 01       		.uleb128 0x1
 12981 3531 51       		.byte	0x51
 12982 3532 02       		.uleb128 0x2
 12983 3533 76       		.byte	0x76
 12984 3534 00       		.sleb128 0
 12985 3535 2D       		.uleb128 0x2d
 12986 3536 01       		.uleb128 0x1
 12987 3537 50       		.byte	0x50
 12988 3538 02       		.uleb128 0x2
 12989 3539 74       		.byte	0x74
 12990 353a 00       		.sleb128 0
 12991 353b 00       		.byte	0
 12992 353c 2E       		.uleb128 0x2e
 12993 353d 82160000 		.4byte	.LVL357
 12994 3541 AB420000 		.4byte	0x42ab
 12995 3545 56350000 		.4byte	0x3556
 12996 3549 2D       		.uleb128 0x2d
 12997 354a 01       		.uleb128 0x1
 12998 354b 51       		.byte	0x51
 12999 354c 02       		.uleb128 0x2
 13000 354d 76       		.byte	0x76
 13001 354e 00       		.sleb128 0
 13002 354f 2D       		.uleb128 0x2d
 13003 3550 01       		.uleb128 0x1
 13004 3551 50       		.byte	0x50
 13005 3552 02       		.uleb128 0x2
 13006 3553 74       		.byte	0x74
 13007 3554 00       		.sleb128 0
 13008 3555 00       		.byte	0
 13009 3556 2E       		.uleb128 0x2e
 13010 3557 9A160000 		.4byte	.LVL358
 13011 355b AB420000 		.4byte	0x42ab
 13012 355f 70350000 		.4byte	0x3570
 13013 3563 2D       		.uleb128 0x2d
 13014 3564 01       		.uleb128 0x1
 13015 3565 51       		.byte	0x51
 13016 3566 02       		.uleb128 0x2
 13017 3567 76       		.byte	0x76
 13018 3568 00       		.sleb128 0
 13019 3569 2D       		.uleb128 0x2d
 13020 356a 01       		.uleb128 0x1
 13021 356b 50       		.byte	0x50
 13022 356c 02       		.uleb128 0x2
 13023 356d 74       		.byte	0x74
 13024 356e 00       		.sleb128 0
 13025 356f 00       		.byte	0
 13026 3570 2E       		.uleb128 0x2e
 13027 3571 B2160000 		.4byte	.LVL359
 13028 3575 AB420000 		.4byte	0x42ab
 13029 3579 8A350000 		.4byte	0x358a
 13030 357d 2D       		.uleb128 0x2d
 13031 357e 01       		.uleb128 0x1
ARM GAS  /tmp/ccy8OeyM.s 			page 230


 13032 357f 51       		.byte	0x51
 13033 3580 02       		.uleb128 0x2
 13034 3581 76       		.byte	0x76
 13035 3582 00       		.sleb128 0
 13036 3583 2D       		.uleb128 0x2d
 13037 3584 01       		.uleb128 0x1
 13038 3585 50       		.byte	0x50
 13039 3586 02       		.uleb128 0x2
 13040 3587 74       		.byte	0x74
 13041 3588 00       		.sleb128 0
 13042 3589 00       		.byte	0
 13043 358a 2E       		.uleb128 0x2e
 13044 358b CA160000 		.4byte	.LVL360
 13045 358f AB420000 		.4byte	0x42ab
 13046 3593 A4350000 		.4byte	0x35a4
 13047 3597 2D       		.uleb128 0x2d
 13048 3598 01       		.uleb128 0x1
 13049 3599 51       		.byte	0x51
 13050 359a 02       		.uleb128 0x2
 13051 359b 76       		.byte	0x76
 13052 359c 00       		.sleb128 0
 13053 359d 2D       		.uleb128 0x2d
 13054 359e 01       		.uleb128 0x1
 13055 359f 50       		.byte	0x50
 13056 35a0 02       		.uleb128 0x2
 13057 35a1 74       		.byte	0x74
 13058 35a2 00       		.sleb128 0
 13059 35a3 00       		.byte	0
 13060 35a4 2E       		.uleb128 0x2e
 13061 35a5 E6160000 		.4byte	.LVL361
 13062 35a9 2D410000 		.4byte	0x412d
 13063 35ad C6350000 		.4byte	0x35c6
 13064 35b1 2D       		.uleb128 0x2d
 13065 35b2 01       		.uleb128 0x1
 13066 35b3 51       		.byte	0x51
 13067 35b4 02       		.uleb128 0x2
 13068 35b5 76       		.byte	0x76
 13069 35b6 00       		.sleb128 0
 13070 35b7 2D       		.uleb128 0x2d
 13071 35b8 02       		.uleb128 0x2
 13072 35b9 90       		.byte	0x90
 13073 35ba 40       		.uleb128 0x40
 13074 35bb 03       		.uleb128 0x3
 13075 35bc F5       		.byte	0xf5
 13076 35bd 51       		.uleb128 0x51
 13077 35be 25       		.uleb128 0x25
 13078 35bf 2D       		.uleb128 0x2d
 13079 35c0 01       		.uleb128 0x1
 13080 35c1 50       		.byte	0x50
 13081 35c2 02       		.uleb128 0x2
 13082 35c3 74       		.byte	0x74
 13083 35c4 00       		.sleb128 0
 13084 35c5 00       		.byte	0
 13085 35c6 2E       		.uleb128 0x2e
 13086 35c7 F2160000 		.4byte	.LVL362
 13087 35cb AB420000 		.4byte	0x42ab
 13088 35cf E0350000 		.4byte	0x35e0
ARM GAS  /tmp/ccy8OeyM.s 			page 231


 13089 35d3 2D       		.uleb128 0x2d
 13090 35d4 01       		.uleb128 0x1
 13091 35d5 51       		.byte	0x51
 13092 35d6 02       		.uleb128 0x2
 13093 35d7 76       		.byte	0x76
 13094 35d8 00       		.sleb128 0
 13095 35d9 2D       		.uleb128 0x2d
 13096 35da 01       		.uleb128 0x1
 13097 35db 50       		.byte	0x50
 13098 35dc 02       		.uleb128 0x2
 13099 35dd 74       		.byte	0x74
 13100 35de 00       		.sleb128 0
 13101 35df 00       		.byte	0
 13102 35e0 2E       		.uleb128 0x2e
 13103 35e1 02170000 		.4byte	.LVL363
 13104 35e5 2D410000 		.4byte	0x412d
 13105 35e9 02360000 		.4byte	0x3602
 13106 35ed 2D       		.uleb128 0x2d
 13107 35ee 01       		.uleb128 0x1
 13108 35ef 51       		.byte	0x51
 13109 35f0 02       		.uleb128 0x2
 13110 35f1 76       		.byte	0x76
 13111 35f2 00       		.sleb128 0
 13112 35f3 2D       		.uleb128 0x2d
 13113 35f4 02       		.uleb128 0x2
 13114 35f5 90       		.byte	0x90
 13115 35f6 40       		.uleb128 0x40
 13116 35f7 03       		.uleb128 0x3
 13117 35f8 F5       		.byte	0xf5
 13118 35f9 51       		.uleb128 0x51
 13119 35fa 25       		.uleb128 0x25
 13120 35fb 2D       		.uleb128 0x2d
 13121 35fc 01       		.uleb128 0x1
 13122 35fd 50       		.byte	0x50
 13123 35fe 02       		.uleb128 0x2
 13124 35ff 74       		.byte	0x74
 13125 3600 00       		.sleb128 0
 13126 3601 00       		.byte	0
 13127 3602 2E       		.uleb128 0x2e
 13128 3603 12170000 		.4byte	.LVL364
 13129 3607 2D410000 		.4byte	0x412d
 13130 360b 24360000 		.4byte	0x3624
 13131 360f 2D       		.uleb128 0x2d
 13132 3610 01       		.uleb128 0x1
 13133 3611 51       		.byte	0x51
 13134 3612 02       		.uleb128 0x2
 13135 3613 76       		.byte	0x76
 13136 3614 00       		.sleb128 0
 13137 3615 2D       		.uleb128 0x2d
 13138 3616 02       		.uleb128 0x2
 13139 3617 90       		.byte	0x90
 13140 3618 40       		.uleb128 0x40
 13141 3619 03       		.uleb128 0x3
 13142 361a F5       		.byte	0xf5
 13143 361b 51       		.uleb128 0x51
 13144 361c 25       		.uleb128 0x25
 13145 361d 2D       		.uleb128 0x2d
ARM GAS  /tmp/ccy8OeyM.s 			page 232


 13146 361e 01       		.uleb128 0x1
 13147 361f 50       		.byte	0x50
 13148 3620 02       		.uleb128 0x2
 13149 3621 74       		.byte	0x74
 13150 3622 00       		.sleb128 0
 13151 3623 00       		.byte	0
 13152 3624 2E       		.uleb128 0x2e
 13153 3625 22170000 		.4byte	.LVL365
 13154 3629 2D410000 		.4byte	0x412d
 13155 362d 46360000 		.4byte	0x3646
 13156 3631 2D       		.uleb128 0x2d
 13157 3632 01       		.uleb128 0x1
 13158 3633 51       		.byte	0x51
 13159 3634 02       		.uleb128 0x2
 13160 3635 76       		.byte	0x76
 13161 3636 00       		.sleb128 0
 13162 3637 2D       		.uleb128 0x2d
 13163 3638 02       		.uleb128 0x2
 13164 3639 90       		.byte	0x90
 13165 363a 40       		.uleb128 0x40
 13166 363b 03       		.uleb128 0x3
 13167 363c F5       		.byte	0xf5
 13168 363d 51       		.uleb128 0x51
 13169 363e 25       		.uleb128 0x25
 13170 363f 2D       		.uleb128 0x2d
 13171 3640 01       		.uleb128 0x1
 13172 3641 50       		.byte	0x50
 13173 3642 02       		.uleb128 0x2
 13174 3643 74       		.byte	0x74
 13175 3644 00       		.sleb128 0
 13176 3645 00       		.byte	0
 13177 3646 2E       		.uleb128 0x2e
 13178 3647 2E170000 		.4byte	.LVL366
 13179 364b F4430000 		.4byte	0x43f4
 13180 364f 60360000 		.4byte	0x3660
 13181 3653 2D       		.uleb128 0x2d
 13182 3654 01       		.uleb128 0x1
 13183 3655 51       		.byte	0x51
 13184 3656 02       		.uleb128 0x2
 13185 3657 76       		.byte	0x76
 13186 3658 00       		.sleb128 0
 13187 3659 2D       		.uleb128 0x2d
 13188 365a 01       		.uleb128 0x1
 13189 365b 50       		.byte	0x50
 13190 365c 02       		.uleb128 0x2
 13191 365d 74       		.byte	0x74
 13192 365e 00       		.sleb128 0
 13193 365f 00       		.byte	0
 13194 3660 2E       		.uleb128 0x2e
 13195 3661 44170000 		.4byte	.LVL367
 13196 3665 0F450000 		.4byte	0x450f
 13197 3669 74360000 		.4byte	0x3674
 13198 366d 2D       		.uleb128 0x2d
 13199 366e 01       		.uleb128 0x1
 13200 366f 50       		.byte	0x50
 13201 3670 02       		.uleb128 0x2
 13202 3671 75       		.byte	0x75
ARM GAS  /tmp/ccy8OeyM.s 			page 233


 13203 3672 00       		.sleb128 0
 13204 3673 00       		.byte	0
 13205 3674 2E       		.uleb128 0x2e
 13206 3675 4A170000 		.4byte	.LVL368
 13207 3679 4C410000 		.4byte	0x414c
 13208 367d 88360000 		.4byte	0x3688
 13209 3681 2D       		.uleb128 0x2d
 13210 3682 01       		.uleb128 0x1
 13211 3683 50       		.byte	0x50
 13212 3684 02       		.uleb128 0x2
 13213 3685 75       		.byte	0x75
 13214 3686 00       		.sleb128 0
 13215 3687 00       		.byte	0
 13216 3688 2E       		.uleb128 0x2e
 13217 3689 6E170000 		.4byte	.LVL371
 13218 368d 2D410000 		.4byte	0x412d
 13219 3691 AF360000 		.4byte	0x36af
 13220 3695 2D       		.uleb128 0x2d
 13221 3696 01       		.uleb128 0x1
 13222 3697 51       		.byte	0x51
 13223 3698 03       		.uleb128 0x3
 13224 3699 91       		.byte	0x91
 13225 369a A07E     		.sleb128 -224
 13226 369c 2D       		.uleb128 0x2d
 13227 369d 02       		.uleb128 0x2
 13228 369e 90       		.byte	0x90
 13229 369f 40       		.uleb128 0x40
 13230 36a0 07       		.uleb128 0x7
 13231 36a1 F4       		.byte	0xf4
 13232 36a2 25       		.uleb128 0x25
 13233 36a3 04       		.byte	0x4
 13234 36a4 00007A44 		.4byte	0x447a0000
 13235 36a8 2D       		.uleb128 0x2d
 13236 36a9 01       		.uleb128 0x1
 13237 36aa 50       		.byte	0x50
 13238 36ab 02       		.uleb128 0x2
 13239 36ac 74       		.byte	0x74
 13240 36ad 00       		.sleb128 0
 13241 36ae 00       		.byte	0
 13242 36af 2E       		.uleb128 0x2e
 13243 36b0 80170000 		.4byte	.LVL372
 13244 36b4 2D410000 		.4byte	0x412d
 13245 36b8 D6360000 		.4byte	0x36d6
 13246 36bc 2D       		.uleb128 0x2d
 13247 36bd 01       		.uleb128 0x1
 13248 36be 51       		.byte	0x51
 13249 36bf 03       		.uleb128 0x3
 13250 36c0 91       		.byte	0x91
 13251 36c1 A07E     		.sleb128 -224
 13252 36c3 2D       		.uleb128 0x2d
 13253 36c4 02       		.uleb128 0x2
 13254 36c5 90       		.byte	0x90
 13255 36c6 40       		.uleb128 0x40
 13256 36c7 07       		.uleb128 0x7
 13257 36c8 F4       		.byte	0xf4
 13258 36c9 25       		.uleb128 0x25
 13259 36ca 04       		.byte	0x4
ARM GAS  /tmp/ccy8OeyM.s 			page 234


 13260 36cb 00007A44 		.4byte	0x447a0000
 13261 36cf 2D       		.uleb128 0x2d
 13262 36d0 01       		.uleb128 0x1
 13263 36d1 50       		.byte	0x50
 13264 36d2 02       		.uleb128 0x2
 13265 36d3 74       		.byte	0x74
 13266 36d4 00       		.sleb128 0
 13267 36d5 00       		.byte	0
 13268 36d6 2E       		.uleb128 0x2e
 13269 36d7 92170000 		.4byte	.LVL373
 13270 36db 2D410000 		.4byte	0x412d
 13271 36df FD360000 		.4byte	0x36fd
 13272 36e3 2D       		.uleb128 0x2d
 13273 36e4 01       		.uleb128 0x1
 13274 36e5 51       		.byte	0x51
 13275 36e6 03       		.uleb128 0x3
 13276 36e7 91       		.byte	0x91
 13277 36e8 A07E     		.sleb128 -224
 13278 36ea 2D       		.uleb128 0x2d
 13279 36eb 02       		.uleb128 0x2
 13280 36ec 90       		.byte	0x90
 13281 36ed 40       		.uleb128 0x40
 13282 36ee 07       		.uleb128 0x7
 13283 36ef F4       		.byte	0xf4
 13284 36f0 25       		.uleb128 0x25
 13285 36f1 04       		.byte	0x4
 13286 36f2 00007A44 		.4byte	0x447a0000
 13287 36f6 2D       		.uleb128 0x2d
 13288 36f7 01       		.uleb128 0x1
 13289 36f8 50       		.byte	0x50
 13290 36f9 02       		.uleb128 0x2
 13291 36fa 74       		.byte	0x74
 13292 36fb 00       		.sleb128 0
 13293 36fc 00       		.byte	0
 13294 36fd 2E       		.uleb128 0x2e
 13295 36fe A2170000 		.4byte	.LVL374
 13296 3702 24450000 		.4byte	0x4524
 13297 3706 10370000 		.4byte	0x3710
 13298 370a 2D       		.uleb128 0x2d
 13299 370b 01       		.uleb128 0x1
 13300 370c 51       		.byte	0x51
 13301 370d 01       		.uleb128 0x1
 13302 370e 31       		.byte	0x31
 13303 370f 00       		.byte	0
 13304 3710 2E       		.uleb128 0x2e
 13305 3711 BC170000 		.4byte	.LVL377
 13306 3715 3A450000 		.4byte	0x453a
 13307 3719 2B370000 		.4byte	0x372b
 13308 371d 2D       		.uleb128 0x2d
 13309 371e 01       		.uleb128 0x1
 13310 371f 51       		.byte	0x51
 13311 3720 03       		.uleb128 0x3
 13312 3721 91       		.byte	0x91
 13313 3722 A07E     		.sleb128 -224
 13314 3724 2D       		.uleb128 0x2d
 13315 3725 01       		.uleb128 0x1
 13316 3726 50       		.byte	0x50
ARM GAS  /tmp/ccy8OeyM.s 			page 235


 13317 3727 02       		.uleb128 0x2
 13318 3728 74       		.byte	0x74
 13319 3729 00       		.sleb128 0
 13320 372a 00       		.byte	0
 13321 372b 2E       		.uleb128 0x2e
 13322 372c CC170000 		.4byte	.LVL380
 13323 3730 54450000 		.4byte	0x4554
 13324 3734 3F370000 		.4byte	0x373f
 13325 3738 2D       		.uleb128 0x2d
 13326 3739 01       		.uleb128 0x1
 13327 373a 50       		.byte	0x50
 13328 373b 02       		.uleb128 0x2
 13329 373c 75       		.byte	0x75
 13330 373d 00       		.sleb128 0
 13331 373e 00       		.byte	0
 13332 373f 41       		.uleb128 0x41
 13333 3740 F0170000 		.4byte	.LVL382
 13334 3744 6F450000 		.4byte	0x456f
 13335 3748 2E       		.uleb128 0x2e
 13336 3749 FA170000 		.4byte	.LVL383
 13337 374d 09410000 		.4byte	0x4109
 13338 3751 63370000 		.4byte	0x3763
 13339 3755 2D       		.uleb128 0x2d
 13340 3756 01       		.uleb128 0x1
 13341 3757 52       		.byte	0x52
 13342 3758 02       		.uleb128 0x2
 13343 3759 08       		.byte	0x8
 13344 375a A0       		.byte	0xa0
 13345 375b 2D       		.uleb128 0x2d
 13346 375c 01       		.uleb128 0x1
 13347 375d 50       		.byte	0x50
 13348 375e 03       		.uleb128 0x3
 13349 375f 91       		.byte	0x91
 13350 3760 A87E     		.sleb128 -216
 13351 3762 00       		.byte	0
 13352 3763 2E       		.uleb128 0x2e
 13353 3764 0C180000 		.4byte	.LVL385
 13354 3768 F4430000 		.4byte	0x43f4
 13355 376c 7E370000 		.4byte	0x377e
 13356 3770 2D       		.uleb128 0x2d
 13357 3771 01       		.uleb128 0x1
 13358 3772 51       		.byte	0x51
 13359 3773 03       		.uleb128 0x3
 13360 3774 91       		.byte	0x91
 13361 3775 A07E     		.sleb128 -224
 13362 3777 2D       		.uleb128 0x2d
 13363 3778 01       		.uleb128 0x1
 13364 3779 50       		.byte	0x50
 13365 377a 02       		.uleb128 0x2
 13366 377b 74       		.byte	0x74
 13367 377c 00       		.sleb128 0
 13368 377d 00       		.byte	0
 13369 377e 2E       		.uleb128 0x2e
 13370 377f 16180000 		.4byte	.LVL386
 13371 3783 AB420000 		.4byte	0x42ab
 13372 3787 99370000 		.4byte	0x3799
 13373 378b 2D       		.uleb128 0x2d
ARM GAS  /tmp/ccy8OeyM.s 			page 236


 13374 378c 01       		.uleb128 0x1
 13375 378d 51       		.byte	0x51
 13376 378e 03       		.uleb128 0x3
 13377 378f 91       		.byte	0x91
 13378 3790 A07E     		.sleb128 -224
 13379 3792 2D       		.uleb128 0x2d
 13380 3793 01       		.uleb128 0x1
 13381 3794 50       		.byte	0x50
 13382 3795 02       		.uleb128 0x2
 13383 3796 74       		.byte	0x74
 13384 3797 00       		.sleb128 0
 13385 3798 00       		.byte	0
 13386 3799 2E       		.uleb128 0x2e
 13387 379a 44180000 		.4byte	.LVL387
 13388 379e 3A450000 		.4byte	0x453a
 13389 37a2 B4370000 		.4byte	0x37b4
 13390 37a6 2D       		.uleb128 0x2d
 13391 37a7 01       		.uleb128 0x1
 13392 37a8 51       		.byte	0x51
 13393 37a9 03       		.uleb128 0x3
 13394 37aa 91       		.byte	0x91
 13395 37ab A07E     		.sleb128 -224
 13396 37ad 2D       		.uleb128 0x2d
 13397 37ae 01       		.uleb128 0x1
 13398 37af 50       		.byte	0x50
 13399 37b0 02       		.uleb128 0x2
 13400 37b1 74       		.byte	0x74
 13401 37b2 00       		.sleb128 0
 13402 37b3 00       		.byte	0
 13403 37b4 2E       		.uleb128 0x2e
 13404 37b5 62180000 		.4byte	.LVL388
 13405 37b9 AB420000 		.4byte	0x42ab
 13406 37bd CF370000 		.4byte	0x37cf
 13407 37c1 2D       		.uleb128 0x2d
 13408 37c2 01       		.uleb128 0x1
 13409 37c3 51       		.byte	0x51
 13410 37c4 03       		.uleb128 0x3
 13411 37c5 91       		.byte	0x91
 13412 37c6 A07E     		.sleb128 -224
 13413 37c8 2D       		.uleb128 0x2d
 13414 37c9 01       		.uleb128 0x1
 13415 37ca 50       		.byte	0x50
 13416 37cb 02       		.uleb128 0x2
 13417 37cc 74       		.byte	0x74
 13418 37cd 00       		.sleb128 0
 13419 37ce 00       		.byte	0
 13420 37cf 2E       		.uleb128 0x2e
 13421 37d0 7A180000 		.4byte	.LVL389
 13422 37d4 AB420000 		.4byte	0x42ab
 13423 37d8 EA370000 		.4byte	0x37ea
 13424 37dc 2D       		.uleb128 0x2d
 13425 37dd 01       		.uleb128 0x1
 13426 37de 51       		.byte	0x51
 13427 37df 03       		.uleb128 0x3
 13428 37e0 91       		.byte	0x91
 13429 37e1 A07E     		.sleb128 -224
 13430 37e3 2D       		.uleb128 0x2d
ARM GAS  /tmp/ccy8OeyM.s 			page 237


 13431 37e4 01       		.uleb128 0x1
 13432 37e5 50       		.byte	0x50
 13433 37e6 02       		.uleb128 0x2
 13434 37e7 74       		.byte	0x74
 13435 37e8 00       		.sleb128 0
 13436 37e9 00       		.byte	0
 13437 37ea 2E       		.uleb128 0x2e
 13438 37eb 92180000 		.4byte	.LVL390
 13439 37ef AB420000 		.4byte	0x42ab
 13440 37f3 05380000 		.4byte	0x3805
 13441 37f7 2D       		.uleb128 0x2d
 13442 37f8 01       		.uleb128 0x1
 13443 37f9 51       		.byte	0x51
 13444 37fa 03       		.uleb128 0x3
 13445 37fb 91       		.byte	0x91
 13446 37fc A07E     		.sleb128 -224
 13447 37fe 2D       		.uleb128 0x2d
 13448 37ff 01       		.uleb128 0x1
 13449 3800 50       		.byte	0x50
 13450 3801 02       		.uleb128 0x2
 13451 3802 74       		.byte	0x74
 13452 3803 00       		.sleb128 0
 13453 3804 00       		.byte	0
 13454 3805 2E       		.uleb128 0x2e
 13455 3806 AA180000 		.4byte	.LVL391
 13456 380a AB420000 		.4byte	0x42ab
 13457 380e 20380000 		.4byte	0x3820
 13458 3812 2D       		.uleb128 0x2d
 13459 3813 01       		.uleb128 0x1
 13460 3814 51       		.byte	0x51
 13461 3815 03       		.uleb128 0x3
 13462 3816 91       		.byte	0x91
 13463 3817 A07E     		.sleb128 -224
 13464 3819 2D       		.uleb128 0x2d
 13465 381a 01       		.uleb128 0x1
 13466 381b 50       		.byte	0x50
 13467 381c 02       		.uleb128 0x2
 13468 381d 74       		.byte	0x74
 13469 381e 00       		.sleb128 0
 13470 381f 00       		.byte	0
 13471 3820 2E       		.uleb128 0x2e
 13472 3821 E2180000 		.4byte	.LVL392
 13473 3825 AB420000 		.4byte	0x42ab
 13474 3829 3B380000 		.4byte	0x383b
 13475 382d 2D       		.uleb128 0x2d
 13476 382e 01       		.uleb128 0x1
 13477 382f 51       		.byte	0x51
 13478 3830 03       		.uleb128 0x3
 13479 3831 91       		.byte	0x91
 13480 3832 A07E     		.sleb128 -224
 13481 3834 2D       		.uleb128 0x2d
 13482 3835 01       		.uleb128 0x1
 13483 3836 50       		.byte	0x50
 13484 3837 02       		.uleb128 0x2
 13485 3838 74       		.byte	0x74
 13486 3839 00       		.sleb128 0
 13487 383a 00       		.byte	0
ARM GAS  /tmp/ccy8OeyM.s 			page 238


 13488 383b 2E       		.uleb128 0x2e
 13489 383c FA180000 		.4byte	.LVL393
 13490 3840 AB420000 		.4byte	0x42ab
 13491 3844 56380000 		.4byte	0x3856
 13492 3848 2D       		.uleb128 0x2d
 13493 3849 01       		.uleb128 0x1
 13494 384a 51       		.byte	0x51
 13495 384b 03       		.uleb128 0x3
 13496 384c 91       		.byte	0x91
 13497 384d A07E     		.sleb128 -224
 13498 384f 2D       		.uleb128 0x2d
 13499 3850 01       		.uleb128 0x1
 13500 3851 50       		.byte	0x50
 13501 3852 02       		.uleb128 0x2
 13502 3853 74       		.byte	0x74
 13503 3854 00       		.sleb128 0
 13504 3855 00       		.byte	0
 13505 3856 2E       		.uleb128 0x2e
 13506 3857 32190000 		.4byte	.LVL394
 13507 385b AB420000 		.4byte	0x42ab
 13508 385f 71380000 		.4byte	0x3871
 13509 3863 2D       		.uleb128 0x2d
 13510 3864 01       		.uleb128 0x1
 13511 3865 51       		.byte	0x51
 13512 3866 03       		.uleb128 0x3
 13513 3867 91       		.byte	0x91
 13514 3868 A07E     		.sleb128 -224
 13515 386a 2D       		.uleb128 0x2d
 13516 386b 01       		.uleb128 0x1
 13517 386c 50       		.byte	0x50
 13518 386d 02       		.uleb128 0x2
 13519 386e 74       		.byte	0x74
 13520 386f 00       		.sleb128 0
 13521 3870 00       		.byte	0
 13522 3871 2E       		.uleb128 0x2e
 13523 3872 56190000 		.4byte	.LVL395
 13524 3876 AB420000 		.4byte	0x42ab
 13525 387a 8C380000 		.4byte	0x388c
 13526 387e 2D       		.uleb128 0x2d
 13527 387f 01       		.uleb128 0x1
 13528 3880 51       		.byte	0x51
 13529 3881 03       		.uleb128 0x3
 13530 3882 91       		.byte	0x91
 13531 3883 A07E     		.sleb128 -224
 13532 3885 2D       		.uleb128 0x2d
 13533 3886 01       		.uleb128 0x1
 13534 3887 50       		.byte	0x50
 13535 3888 02       		.uleb128 0x2
 13536 3889 74       		.byte	0x74
 13537 388a 00       		.sleb128 0
 13538 388b 00       		.byte	0
 13539 388c 2E       		.uleb128 0x2e
 13540 388d 6E190000 		.4byte	.LVL396
 13541 3891 AB420000 		.4byte	0x42ab
 13542 3895 A7380000 		.4byte	0x38a7
 13543 3899 2D       		.uleb128 0x2d
 13544 389a 01       		.uleb128 0x1
ARM GAS  /tmp/ccy8OeyM.s 			page 239


 13545 389b 51       		.byte	0x51
 13546 389c 03       		.uleb128 0x3
 13547 389d 91       		.byte	0x91
 13548 389e A07E     		.sleb128 -224
 13549 38a0 2D       		.uleb128 0x2d
 13550 38a1 01       		.uleb128 0x1
 13551 38a2 50       		.byte	0x50
 13552 38a3 02       		.uleb128 0x2
 13553 38a4 74       		.byte	0x74
 13554 38a5 00       		.sleb128 0
 13555 38a6 00       		.byte	0
 13556 38a7 2E       		.uleb128 0x2e
 13557 38a8 86190000 		.4byte	.LVL397
 13558 38ac AB420000 		.4byte	0x42ab
 13559 38b0 C2380000 		.4byte	0x38c2
 13560 38b4 2D       		.uleb128 0x2d
 13561 38b5 01       		.uleb128 0x1
 13562 38b6 51       		.byte	0x51
 13563 38b7 03       		.uleb128 0x3
 13564 38b8 91       		.byte	0x91
 13565 38b9 A07E     		.sleb128 -224
 13566 38bb 2D       		.uleb128 0x2d
 13567 38bc 01       		.uleb128 0x1
 13568 38bd 50       		.byte	0x50
 13569 38be 02       		.uleb128 0x2
 13570 38bf 74       		.byte	0x74
 13571 38c0 00       		.sleb128 0
 13572 38c1 00       		.byte	0
 13573 38c2 2E       		.uleb128 0x2e
 13574 38c3 F4190000 		.4byte	.LVL398
 13575 38c7 AB420000 		.4byte	0x42ab
 13576 38cb DD380000 		.4byte	0x38dd
 13577 38cf 2D       		.uleb128 0x2d
 13578 38d0 01       		.uleb128 0x1
 13579 38d1 51       		.byte	0x51
 13580 38d2 03       		.uleb128 0x3
 13581 38d3 91       		.byte	0x91
 13582 38d4 A07E     		.sleb128 -224
 13583 38d6 2D       		.uleb128 0x2d
 13584 38d7 01       		.uleb128 0x1
 13585 38d8 50       		.byte	0x50
 13586 38d9 02       		.uleb128 0x2
 13587 38da 74       		.byte	0x74
 13588 38db 00       		.sleb128 0
 13589 38dc 00       		.byte	0
 13590 38dd 2E       		.uleb128 0x2e
 13591 38de 0C1A0000 		.4byte	.LVL399
 13592 38e2 AB420000 		.4byte	0x42ab
 13593 38e6 F8380000 		.4byte	0x38f8
 13594 38ea 2D       		.uleb128 0x2d
 13595 38eb 01       		.uleb128 0x1
 13596 38ec 51       		.byte	0x51
 13597 38ed 03       		.uleb128 0x3
 13598 38ee 91       		.byte	0x91
 13599 38ef A07E     		.sleb128 -224
 13600 38f1 2D       		.uleb128 0x2d
 13601 38f2 01       		.uleb128 0x1
ARM GAS  /tmp/ccy8OeyM.s 			page 240


 13602 38f3 50       		.byte	0x50
 13603 38f4 02       		.uleb128 0x2
 13604 38f5 74       		.byte	0x74
 13605 38f6 00       		.sleb128 0
 13606 38f7 00       		.byte	0
 13607 38f8 2E       		.uleb128 0x2e
 13608 38f9 441A0000 		.4byte	.LVL400
 13609 38fd AB420000 		.4byte	0x42ab
 13610 3901 13390000 		.4byte	0x3913
 13611 3905 2D       		.uleb128 0x2d
 13612 3906 01       		.uleb128 0x1
 13613 3907 51       		.byte	0x51
 13614 3908 03       		.uleb128 0x3
 13615 3909 91       		.byte	0x91
 13616 390a A07E     		.sleb128 -224
 13617 390c 2D       		.uleb128 0x2d
 13618 390d 01       		.uleb128 0x1
 13619 390e 50       		.byte	0x50
 13620 390f 02       		.uleb128 0x2
 13621 3910 74       		.byte	0x74
 13622 3911 00       		.sleb128 0
 13623 3912 00       		.byte	0
 13624 3913 2E       		.uleb128 0x2e
 13625 3914 5C1A0000 		.4byte	.LVL401
 13626 3918 3A450000 		.4byte	0x453a
 13627 391c 2E390000 		.4byte	0x392e
 13628 3920 2D       		.uleb128 0x2d
 13629 3921 01       		.uleb128 0x1
 13630 3922 51       		.byte	0x51
 13631 3923 03       		.uleb128 0x3
 13632 3924 91       		.byte	0x91
 13633 3925 A07E     		.sleb128 -224
 13634 3927 2D       		.uleb128 0x2d
 13635 3928 01       		.uleb128 0x1
 13636 3929 50       		.byte	0x50
 13637 392a 02       		.uleb128 0x2
 13638 392b 74       		.byte	0x74
 13639 392c 00       		.sleb128 0
 13640 392d 00       		.byte	0
 13641 392e 2E       		.uleb128 0x2e
 13642 392f 661A0000 		.4byte	.LVL402
 13643 3933 F4430000 		.4byte	0x43f4
 13644 3937 49390000 		.4byte	0x3949
 13645 393b 2D       		.uleb128 0x2d
 13646 393c 01       		.uleb128 0x1
 13647 393d 51       		.byte	0x51
 13648 393e 03       		.uleb128 0x3
 13649 393f 91       		.byte	0x91
 13650 3940 A07E     		.sleb128 -224
 13651 3942 2D       		.uleb128 0x2d
 13652 3943 01       		.uleb128 0x1
 13653 3944 50       		.byte	0x50
 13654 3945 02       		.uleb128 0x2
 13655 3946 74       		.byte	0x74
 13656 3947 00       		.sleb128 0
 13657 3948 00       		.byte	0
 13658 3949 2E       		.uleb128 0x2e
ARM GAS  /tmp/ccy8OeyM.s 			page 241


 13659 394a 801A0000 		.4byte	.LVL403
 13660 394e 2D410000 		.4byte	0x412d
 13661 3952 6C390000 		.4byte	0x396c
 13662 3956 2D       		.uleb128 0x2d
 13663 3957 01       		.uleb128 0x1
 13664 3958 51       		.byte	0x51
 13665 3959 03       		.uleb128 0x3
 13666 395a 91       		.byte	0x91
 13667 395b A07E     		.sleb128 -224
 13668 395d 2D       		.uleb128 0x2d
 13669 395e 02       		.uleb128 0x2
 13670 395f 90       		.byte	0x90
 13671 3960 40       		.uleb128 0x40
 13672 3961 03       		.uleb128 0x3
 13673 3962 F5       		.byte	0xf5
 13674 3963 50       		.uleb128 0x50
 13675 3964 25       		.uleb128 0x25
 13676 3965 2D       		.uleb128 0x2d
 13677 3966 01       		.uleb128 0x1
 13678 3967 50       		.byte	0x50
 13679 3968 02       		.uleb128 0x2
 13680 3969 74       		.byte	0x74
 13681 396a 00       		.sleb128 0
 13682 396b 00       		.byte	0
 13683 396c 2E       		.uleb128 0x2e
 13684 396d 901A0000 		.4byte	.LVL404
 13685 3971 2D410000 		.4byte	0x412d
 13686 3975 8F390000 		.4byte	0x398f
 13687 3979 2D       		.uleb128 0x2d
 13688 397a 01       		.uleb128 0x1
 13689 397b 51       		.byte	0x51
 13690 397c 03       		.uleb128 0x3
 13691 397d 91       		.byte	0x91
 13692 397e A07E     		.sleb128 -224
 13693 3980 2D       		.uleb128 0x2d
 13694 3981 02       		.uleb128 0x2
 13695 3982 90       		.byte	0x90
 13696 3983 40       		.uleb128 0x40
 13697 3984 03       		.uleb128 0x3
 13698 3985 F5       		.byte	0xf5
 13699 3986 50       		.uleb128 0x50
 13700 3987 25       		.uleb128 0x25
 13701 3988 2D       		.uleb128 0x2d
 13702 3989 01       		.uleb128 0x1
 13703 398a 50       		.byte	0x50
 13704 398b 02       		.uleb128 0x2
 13705 398c 74       		.byte	0x74
 13706 398d 00       		.sleb128 0
 13707 398e 00       		.byte	0
 13708 398f 2E       		.uleb128 0x2e
 13709 3990 A01A0000 		.4byte	.LVL405
 13710 3994 2D410000 		.4byte	0x412d
 13711 3998 B2390000 		.4byte	0x39b2
 13712 399c 2D       		.uleb128 0x2d
 13713 399d 01       		.uleb128 0x1
 13714 399e 51       		.byte	0x51
 13715 399f 03       		.uleb128 0x3
ARM GAS  /tmp/ccy8OeyM.s 			page 242


 13716 39a0 91       		.byte	0x91
 13717 39a1 A07E     		.sleb128 -224
 13718 39a3 2D       		.uleb128 0x2d
 13719 39a4 02       		.uleb128 0x2
 13720 39a5 90       		.byte	0x90
 13721 39a6 40       		.uleb128 0x40
 13722 39a7 03       		.uleb128 0x3
 13723 39a8 F5       		.byte	0xf5
 13724 39a9 50       		.uleb128 0x50
 13725 39aa 25       		.uleb128 0x25
 13726 39ab 2D       		.uleb128 0x2d
 13727 39ac 01       		.uleb128 0x1
 13728 39ad 50       		.byte	0x50
 13729 39ae 02       		.uleb128 0x2
 13730 39af 74       		.byte	0x74
 13731 39b0 00       		.sleb128 0
 13732 39b1 00       		.byte	0
 13733 39b2 2E       		.uleb128 0x2e
 13734 39b3 B01A0000 		.4byte	.LVL406
 13735 39b7 2D410000 		.4byte	0x412d
 13736 39bb D5390000 		.4byte	0x39d5
 13737 39bf 2D       		.uleb128 0x2d
 13738 39c0 01       		.uleb128 0x1
 13739 39c1 51       		.byte	0x51
 13740 39c2 03       		.uleb128 0x3
 13741 39c3 91       		.byte	0x91
 13742 39c4 A07E     		.sleb128 -224
 13743 39c6 2D       		.uleb128 0x2d
 13744 39c7 02       		.uleb128 0x2
 13745 39c8 90       		.byte	0x90
 13746 39c9 40       		.uleb128 0x40
 13747 39ca 03       		.uleb128 0x3
 13748 39cb F5       		.byte	0xf5
 13749 39cc 50       		.uleb128 0x50
 13750 39cd 25       		.uleb128 0x25
 13751 39ce 2D       		.uleb128 0x2d
 13752 39cf 01       		.uleb128 0x1
 13753 39d0 50       		.byte	0x50
 13754 39d1 02       		.uleb128 0x2
 13755 39d2 74       		.byte	0x74
 13756 39d3 00       		.sleb128 0
 13757 39d4 00       		.byte	0
 13758 39d5 2E       		.uleb128 0x2e
 13759 39d6 C01A0000 		.4byte	.LVL407
 13760 39da 2D410000 		.4byte	0x412d
 13761 39de F8390000 		.4byte	0x39f8
 13762 39e2 2D       		.uleb128 0x2d
 13763 39e3 01       		.uleb128 0x1
 13764 39e4 51       		.byte	0x51
 13765 39e5 03       		.uleb128 0x3
 13766 39e6 91       		.byte	0x91
 13767 39e7 A07E     		.sleb128 -224
 13768 39e9 2D       		.uleb128 0x2d
 13769 39ea 02       		.uleb128 0x2
 13770 39eb 90       		.byte	0x90
 13771 39ec 40       		.uleb128 0x40
 13772 39ed 03       		.uleb128 0x3
ARM GAS  /tmp/ccy8OeyM.s 			page 243


 13773 39ee F5       		.byte	0xf5
 13774 39ef 50       		.uleb128 0x50
 13775 39f0 25       		.uleb128 0x25
 13776 39f1 2D       		.uleb128 0x2d
 13777 39f2 01       		.uleb128 0x1
 13778 39f3 50       		.byte	0x50
 13779 39f4 02       		.uleb128 0x2
 13780 39f5 74       		.byte	0x74
 13781 39f6 00       		.sleb128 0
 13782 39f7 00       		.byte	0
 13783 39f8 2E       		.uleb128 0x2e
 13784 39f9 D01A0000 		.4byte	.LVL408
 13785 39fd 2D410000 		.4byte	0x412d
 13786 3a01 1B3A0000 		.4byte	0x3a1b
 13787 3a05 2D       		.uleb128 0x2d
 13788 3a06 01       		.uleb128 0x1
 13789 3a07 51       		.byte	0x51
 13790 3a08 03       		.uleb128 0x3
 13791 3a09 91       		.byte	0x91
 13792 3a0a A07E     		.sleb128 -224
 13793 3a0c 2D       		.uleb128 0x2d
 13794 3a0d 02       		.uleb128 0x2
 13795 3a0e 90       		.byte	0x90
 13796 3a0f 40       		.uleb128 0x40
 13797 3a10 03       		.uleb128 0x3
 13798 3a11 F5       		.byte	0xf5
 13799 3a12 50       		.uleb128 0x50
 13800 3a13 25       		.uleb128 0x25
 13801 3a14 2D       		.uleb128 0x2d
 13802 3a15 01       		.uleb128 0x1
 13803 3a16 50       		.byte	0x50
 13804 3a17 02       		.uleb128 0x2
 13805 3a18 74       		.byte	0x74
 13806 3a19 00       		.sleb128 0
 13807 3a1a 00       		.byte	0
 13808 3a1b 2E       		.uleb128 0x2e
 13809 3a1c 001B0000 		.4byte	.LVL409
 13810 3a20 2D410000 		.4byte	0x412d
 13811 3a24 3E3A0000 		.4byte	0x3a3e
 13812 3a28 2D       		.uleb128 0x2d
 13813 3a29 01       		.uleb128 0x1
 13814 3a2a 51       		.byte	0x51
 13815 3a2b 03       		.uleb128 0x3
 13816 3a2c 91       		.byte	0x91
 13817 3a2d A07E     		.sleb128 -224
 13818 3a2f 2D       		.uleb128 0x2d
 13819 3a30 02       		.uleb128 0x2
 13820 3a31 90       		.byte	0x90
 13821 3a32 40       		.uleb128 0x40
 13822 3a33 03       		.uleb128 0x3
 13823 3a34 F5       		.byte	0xf5
 13824 3a35 50       		.uleb128 0x50
 13825 3a36 25       		.uleb128 0x25
 13826 3a37 2D       		.uleb128 0x2d
 13827 3a38 01       		.uleb128 0x1
 13828 3a39 50       		.byte	0x50
 13829 3a3a 02       		.uleb128 0x2
ARM GAS  /tmp/ccy8OeyM.s 			page 244


 13830 3a3b 74       		.byte	0x74
 13831 3a3c 00       		.sleb128 0
 13832 3a3d 00       		.byte	0
 13833 3a3e 2E       		.uleb128 0x2e
 13834 3a3f 681B0000 		.4byte	.LVL412
 13835 3a43 85450000 		.4byte	0x4585
 13836 3a47 533A0000 		.4byte	0x3a53
 13837 3a4b 2D       		.uleb128 0x2d
 13838 3a4c 01       		.uleb128 0x1
 13839 3a4d 50       		.byte	0x50
 13840 3a4e 03       		.uleb128 0x3
 13841 3a4f 91       		.byte	0x91
 13842 3a50 A87E     		.sleb128 -216
 13843 3a52 00       		.byte	0
 13844 3a53 2E       		.uleb128 0x2e
 13845 3a54 6E1B0000 		.4byte	.LVL413
 13846 3a58 9A450000 		.4byte	0x459a
 13847 3a5c 683A0000 		.4byte	0x3a68
 13848 3a60 2D       		.uleb128 0x2d
 13849 3a61 01       		.uleb128 0x1
 13850 3a62 50       		.byte	0x50
 13851 3a63 03       		.uleb128 0x3
 13852 3a64 91       		.byte	0x91
 13853 3a65 A87E     		.sleb128 -216
 13854 3a67 00       		.byte	0
 13855 3a68 41       		.uleb128 0x41
 13856 3a69 781B0000 		.4byte	.LVL414
 13857 3a6d AB450000 		.4byte	0x45ab
 13858 3a71 41       		.uleb128 0x41
 13859 3a72 A41B0000 		.4byte	.LVL419
 13860 3a76 6F450000 		.4byte	0x456f
 13861 3a7a 2E       		.uleb128 0x2e
 13862 3a7b AE1B0000 		.4byte	.LVL420
 13863 3a7f 09410000 		.4byte	0x4109
 13864 3a83 953A0000 		.4byte	0x3a95
 13865 3a87 2D       		.uleb128 0x2d
 13866 3a88 01       		.uleb128 0x1
 13867 3a89 52       		.byte	0x52
 13868 3a8a 02       		.uleb128 0x2
 13869 3a8b 08       		.byte	0x8
 13870 3a8c A0       		.byte	0xa0
 13871 3a8d 2D       		.uleb128 0x2d
 13872 3a8e 01       		.uleb128 0x1
 13873 3a8f 50       		.byte	0x50
 13874 3a90 03       		.uleb128 0x3
 13875 3a91 91       		.byte	0x91
 13876 3a92 A87E     		.sleb128 -216
 13877 3a94 00       		.byte	0
 13878 3a95 41       		.uleb128 0x41
 13879 3a96 B61B0000 		.4byte	.LVL422
 13880 3a9a C1450000 		.4byte	0x45c1
 13881 3a9e 41       		.uleb128 0x41
 13882 3a9f BE1B0000 		.4byte	.LVL424
 13883 3aa3 7D410000 		.4byte	0x417d
 13884 3aa7 2E       		.uleb128 0x2e
 13885 3aa8 CA1B0000 		.4byte	.LVL425
 13886 3aac 09410000 		.4byte	0x4109
ARM GAS  /tmp/ccy8OeyM.s 			page 245


 13887 3ab0 C53A0000 		.4byte	0x3ac5
 13888 3ab4 2D       		.uleb128 0x2d
 13889 3ab5 01       		.uleb128 0x1
 13890 3ab6 52       		.byte	0x52
 13891 3ab7 03       		.uleb128 0x3
 13892 3ab8 0A       		.byte	0xa
 13893 3ab9 3401     		.2byte	0x134
 13894 3abb 2D       		.uleb128 0x2d
 13895 3abc 01       		.uleb128 0x1
 13896 3abd 50       		.byte	0x50
 13897 3abe 05       		.uleb128 0x5
 13898 3abf 03       		.byte	0x3
 13899 3ac0 00000000 		.4byte	.LANCHOR11
 13900 3ac4 00       		.byte	0
 13901 3ac5 2E       		.uleb128 0x2e
 13902 3ac6 DA1B0000 		.4byte	.LVL427
 13903 3aca C8450000 		.4byte	0x45c8
 13904 3ace E73A0000 		.4byte	0x3ae7
 13905 3ad2 2D       		.uleb128 0x2d
 13906 3ad3 01       		.uleb128 0x1
 13907 3ad4 52       		.byte	0x52
 13908 3ad5 01       		.uleb128 0x1
 13909 3ad6 38       		.byte	0x38
 13910 3ad7 2D       		.uleb128 0x2d
 13911 3ad8 01       		.uleb128 0x1
 13912 3ad9 51       		.byte	0x51
 13913 3ada 02       		.uleb128 0x2
 13914 3adb 08       		.byte	0x8
 13915 3adc FF       		.byte	0xff
 13916 3add 2D       		.uleb128 0x2d
 13917 3ade 01       		.uleb128 0x1
 13918 3adf 50       		.byte	0x50
 13919 3ae0 05       		.uleb128 0x5
 13920 3ae1 03       		.byte	0x3
 13921 3ae2 00000000 		.4byte	.LANCHOR8
 13922 3ae6 00       		.byte	0
 13923 3ae7 2E       		.uleb128 0x2e
 13924 3ae8 001C0000 		.4byte	.LVL431
 13925 3aec C3410000 		.4byte	0x41c3
 13926 3af0 193B0000 		.4byte	0x3b19
 13927 3af4 2D       		.uleb128 0x2d
 13928 3af5 01       		.uleb128 0x1
 13929 3af6 51       		.byte	0x51
 13930 3af7 02       		.uleb128 0x2
 13931 3af8 75       		.byte	0x75
 13932 3af9 00       		.sleb128 0
 13933 3afa 2D       		.uleb128 0x2d
 13934 3afb 02       		.uleb128 0x2
 13935 3afc 90       		.byte	0x90
 13936 3afd 41       		.uleb128 0x41
 13937 3afe 07       		.uleb128 0x7
 13938 3aff F4       		.byte	0xf4
 13939 3b00 25       		.uleb128 0x25
 13940 3b01 04       		.byte	0x4
 13941 3b02 00247449 		.4byte	0x49742400
 13942 3b06 2D       		.uleb128 0x2d
 13943 3b07 02       		.uleb128 0x2
ARM GAS  /tmp/ccy8OeyM.s 			page 246


 13944 3b08 90       		.byte	0x90
 13945 3b09 40       		.uleb128 0x40
 13946 3b0a 07       		.uleb128 0x7
 13947 3b0b F4       		.byte	0xf4
 13948 3b0c 25       		.uleb128 0x25
 13949 3b0d 04       		.byte	0x4
 13950 3b0e 00407A44 		.4byte	0x447a4000
 13951 3b12 2D       		.uleb128 0x2d
 13952 3b13 01       		.uleb128 0x1
 13953 3b14 50       		.byte	0x50
 13954 3b15 02       		.uleb128 0x2
 13955 3b16 74       		.byte	0x74
 13956 3b17 00       		.sleb128 0
 13957 3b18 00       		.byte	0
 13958 3b19 2F       		.uleb128 0x2f
 13959 3b1a 101C0000 		.4byte	.LVL432
 13960 3b1e C3410000 		.4byte	0x41c3
 13961 3b22 2D       		.uleb128 0x2d
 13962 3b23 01       		.uleb128 0x1
 13963 3b24 51       		.byte	0x51
 13964 3b25 02       		.uleb128 0x2
 13965 3b26 75       		.byte	0x75
 13966 3b27 00       		.sleb128 0
 13967 3b28 2D       		.uleb128 0x2d
 13968 3b29 02       		.uleb128 0x2
 13969 3b2a 90       		.byte	0x90
 13970 3b2b 41       		.uleb128 0x41
 13971 3b2c 07       		.uleb128 0x7
 13972 3b2d F4       		.byte	0xf4
 13973 3b2e 25       		.uleb128 0x25
 13974 3b2f 04       		.byte	0x4
 13975 3b30 00247449 		.4byte	0x49742400
 13976 3b34 2D       		.uleb128 0x2d
 13977 3b35 02       		.uleb128 0x2
 13978 3b36 90       		.byte	0x90
 13979 3b37 40       		.uleb128 0x40
 13980 3b38 07       		.uleb128 0x7
 13981 3b39 F4       		.byte	0xf4
 13982 3b3a 25       		.uleb128 0x25
 13983 3b3b 04       		.byte	0x4
 13984 3b3c 00000000 		.4byte	0
 13985 3b40 2D       		.uleb128 0x2d
 13986 3b41 01       		.uleb128 0x1
 13987 3b42 50       		.byte	0x50
 13988 3b43 02       		.uleb128 0x2
 13989 3b44 74       		.byte	0x74
 13990 3b45 00       		.sleb128 0
 13991 3b46 00       		.byte	0
 13992 3b47 00       		.byte	0
 13993 3b48 42       		.uleb128 0x42
 13994 3b49 64000000 		.4byte	.LASF426
 13995 3b4d 01       		.byte	0x1
 13996 3b4e 1D03     		.2byte	0x31d
 13997 3b50 00000000 		.4byte	.LFB260
 13998 3b54 44000000 		.4byte	.LFE260-.LFB260
 13999 3b58 01       		.uleb128 0x1
 14000 3b59 9C       		.byte	0x9c
ARM GAS  /tmp/ccy8OeyM.s 			page 247


 14001 3b5a FC3B0000 		.4byte	0x3bfc
 14002 3b5e 43       		.uleb128 0x43
 14003 3b5f 13130000 		.4byte	.LASF427
 14004 3b63 01       		.byte	0x1
 14005 3b64 1D03     		.2byte	0x31d
 14006 3b66 B4130000 		.4byte	0x13b4
 14007 3b6a 02       		.uleb128 0x2
 14008 3b6b 91       		.byte	0x91
 14009 3b6c 70       		.sleb128 -16
 14010 3b6d 44       		.uleb128 0x44
 14011 3b6e 2A       		.uleb128 0x2a
 14012 3b6f 61726700 		.ascii	"arg\000"
 14013 3b73 01       		.byte	0x1
 14014 3b74 1E03     		.2byte	0x31e
 14015 3b76 EA130000 		.4byte	0x13ea
 14016 3b7a 02       		.uleb128 0x2
 14017 3b7b 91       		.byte	0x91
 14018 3b7c 64       		.sleb128 -28
 14019 3b7d 40       		.uleb128 0x40
 14020 3b7e 6C656E00 		.ascii	"len\000"
 14021 3b82 01       		.byte	0x1
 14022 3b83 2003     		.2byte	0x320
 14023 3b85 2C000000 		.4byte	0x2c
 14024 3b89 20090000 		.4byte	.LLST47
 14025 3b8d 3F       		.uleb128 0x3f
 14026 3b8e FA040000 		.4byte	.LASF428
 14027 3b92 01       		.byte	0x1
 14028 3b93 2103     		.2byte	0x321
 14029 3b95 FC3B0000 		.4byte	0x3bfc
 14030 3b99 05       		.uleb128 0x5
 14031 3b9a 03       		.byte	0x3
 14032 3b9b 00000000 		.4byte	print_buffer.11353
 14033 3b9f 27       		.uleb128 0x27
 14034 3ba0 19140000 		.4byte	0x1419
 14035 3ba4 20000000 		.4byte	.LBB159
 14036 3ba8 08020000 		.4byte	.Ldebug_ranges0+0x208
 14037 3bac 01       		.byte	0x1
 14038 3bad 2803     		.2byte	0x328
 14039 3baf D53B0000 		.4byte	0x3bd5
 14040 3bb3 2B       		.uleb128 0x2b
 14041 3bb4 30140000 		.4byte	0x1430
 14042 3bb8 33090000 		.4byte	.LLST48
 14043 3bbc 2B       		.uleb128 0x2b
 14044 3bbd 25140000 		.4byte	0x1425
 14045 3bc1 46090000 		.4byte	.LLST49
 14046 3bc5 3A       		.uleb128 0x3a
 14047 3bc6 32000000 		.4byte	.LVL440
 14048 3bca 2D       		.uleb128 0x2d
 14049 3bcb 01       		.uleb128 0x1
 14050 3bcc 50       		.byte	0x50
 14051 3bcd 05       		.uleb128 0x5
 14052 3bce 03       		.byte	0x3
 14053 3bcf 00000000 		.4byte	.LANCHOR15
 14054 3bd3 00       		.byte	0
 14055 3bd4 00       		.byte	0
 14056 3bd5 2F       		.uleb128 0x2f
 14057 3bd6 1C000000 		.4byte	.LVL436
ARM GAS  /tmp/ccy8OeyM.s 			page 248


 14058 3bda E7450000 		.4byte	0x45e7
 14059 3bde 2D       		.uleb128 0x2d
 14060 3bdf 01       		.uleb128 0x1
 14061 3be0 53       		.byte	0x53
 14062 3be1 02       		.uleb128 0x2
 14063 3be2 91       		.byte	0x91
 14064 3be3 54       		.sleb128 -44
 14065 3be4 2D       		.uleb128 0x2d
 14066 3be5 01       		.uleb128 0x1
 14067 3be6 52       		.byte	0x52
 14068 3be7 03       		.uleb128 0x3
 14069 3be8 91       		.byte	0x91
 14070 3be9 50       		.sleb128 -48
 14071 3bea 06       		.byte	0x6
 14072 3beb 2D       		.uleb128 0x2d
 14073 3bec 01       		.uleb128 0x1
 14074 3bed 51       		.byte	0x51
 14075 3bee 02       		.uleb128 0x2
 14076 3bef 08       		.byte	0x8
 14077 3bf0 FE       		.byte	0xfe
 14078 3bf1 2D       		.uleb128 0x2d
 14079 3bf2 01       		.uleb128 0x1
 14080 3bf3 50       		.byte	0x50
 14081 3bf4 05       		.uleb128 0x5
 14082 3bf5 03       		.byte	0x3
 14083 3bf6 01000000 		.4byte	.LANCHOR15+1
 14084 3bfa 00       		.byte	0
 14085 3bfb 00       		.byte	0
 14086 3bfc 15       		.uleb128 0x15
 14087 3bfd 25070000 		.4byte	0x725
 14088 3c01 0C3C0000 		.4byte	0x3c0c
 14089 3c05 16       		.uleb128 0x16
 14090 3c06 B8040000 		.4byte	0x4b8
 14091 3c0a FE       		.byte	0xfe
 14092 3c0b 00       		.byte	0
 14093 3c0c 42       		.uleb128 0x42
 14094 3c0d B11C0000 		.4byte	.LASF429
 14095 3c11 01       		.byte	0x1
 14096 3c12 2C03     		.2byte	0x32c
 14097 3c14 00000000 		.4byte	.LFB261
 14098 3c18 4C000000 		.4byte	.LFE261-.LFB261
 14099 3c1c 01       		.uleb128 0x1
 14100 3c1d 9C       		.byte	0x9c
 14101 3c1e B23C0000 		.4byte	0x3cb2
 14102 3c22 45       		.uleb128 0x45
 14103 3c23 B9190000 		.4byte	.LASF403
 14104 3c27 01       		.byte	0x1
 14105 3c28 2C03     		.2byte	0x32c
 14106 3c2a 68070000 		.4byte	0x768
 14107 3c2e 5E090000 		.4byte	.LLST50
 14108 3c32 26       		.uleb128 0x26
 14109 3c33 6C656E00 		.ascii	"len\000"
 14110 3c37 01       		.byte	0x1
 14111 3c38 2C03     		.2byte	0x32c
 14112 3c3a 2C000000 		.4byte	0x2c
 14113 3c3e 8A090000 		.4byte	.LLST51
 14114 3c42 46       		.uleb128 0x46
ARM GAS  /tmp/ccy8OeyM.s 			page 249


 14115 3c43 C53C0000 		.4byte	0x3cc5
 14116 3c47 8A090000 		.4byte	.LLST51
 14117 3c4b 3F       		.uleb128 0x3f
 14118 3c4c 4B160000 		.4byte	.LASF430
 14119 3c50 01       		.byte	0x1
 14120 3c51 2D03     		.2byte	0x32d
 14121 3c53 B23C0000 		.4byte	0x3cb2
 14122 3c57 02       		.uleb128 0x2
 14123 3c58 76       		.byte	0x76
 14124 3c59 00       		.sleb128 0
 14125 3c5a 3E       		.uleb128 0x3e
 14126 3c5b 75040000 		.4byte	.LASF431
 14127 3c5f 01       		.byte	0x1
 14128 3c60 2E03     		.2byte	0x32e
 14129 3c62 2C000000 		.4byte	0x2c
 14130 3c66 C4090000 		.4byte	.LLST53
 14131 3c6a 47       		.uleb128 0x47
 14132 3c6b 20020000 		.4byte	.Ldebug_ranges0+0x220
 14133 3c6f 823C0000 		.4byte	0x3c82
 14134 3c73 40       		.uleb128 0x40
 14135 3c74 6900     		.ascii	"i\000"
 14136 3c76 01       		.byte	0x1
 14137 3c77 3203     		.2byte	0x332
 14138 3c79 2C000000 		.4byte	0x2c
 14139 3c7d 080A0000 		.4byte	.LLST54
 14140 3c81 00       		.byte	0
 14141 3c82 48       		.uleb128 0x48
 14142 3c83 19140000 		.4byte	0x1419
 14143 3c87 34000000 		.4byte	.LBB165
 14144 3c8b 0A000000 		.4byte	.LBE165-.LBB165
 14145 3c8f 01       		.byte	0x1
 14146 3c90 3603     		.2byte	0x336
 14147 3c92 2B       		.uleb128 0x2b
 14148 3c93 30140000 		.4byte	0x1430
 14149 3c97 5C0A0000 		.4byte	.LLST55
 14150 3c9b 2B       		.uleb128 0x2b
 14151 3c9c 25140000 		.4byte	0x1425
 14152 3ca0 6F0A0000 		.4byte	.LLST56
 14153 3ca4 3A       		.uleb128 0x3a
 14154 3ca5 3E000000 		.4byte	.LVL448
 14155 3ca9 2D       		.uleb128 0x2d
 14156 3caa 01       		.uleb128 0x1
 14157 3cab 50       		.byte	0x50
 14158 3cac 02       		.uleb128 0x2
 14159 3cad 76       		.byte	0x76
 14160 3cae 00       		.sleb128 0
 14161 3caf 00       		.byte	0
 14162 3cb0 00       		.byte	0
 14163 3cb1 00       		.byte	0
 14164 3cb2 15       		.uleb128 0x15
 14165 3cb3 CA000000 		.4byte	0xca
 14166 3cb7 C53C0000 		.4byte	0x3cc5
 14167 3cbb 49       		.uleb128 0x49
 14168 3cbc B8040000 		.4byte	0x4b8
 14169 3cc0 423C0000 		.4byte	0x3c42
 14170 3cc4 00       		.byte	0
 14171 3cc5 14       		.uleb128 0x14
ARM GAS  /tmp/ccy8OeyM.s 			page 250


 14172 3cc6 B8040000 		.4byte	0x4b8
 14173 3cca 42       		.uleb128 0x42
 14174 3ccb 89170000 		.4byte	.LASF432
 14175 3ccf 01       		.byte	0x1
 14176 3cd0 3903     		.2byte	0x339
 14177 3cd2 00000000 		.4byte	.LFB262
 14178 3cd6 40000000 		.4byte	.LFE262-.LFB262
 14179 3cda 01       		.uleb128 0x1
 14180 3cdb 9C       		.byte	0x9c
 14181 3cdc 6F3D0000 		.4byte	0x3d6f
 14182 3ce0 45       		.uleb128 0x45
 14183 3ce1 A4150000 		.4byte	.LASF433
 14184 3ce5 01       		.byte	0x1
 14185 3ce6 3903     		.2byte	0x339
 14186 3ce8 25000000 		.4byte	0x25
 14187 3cec 820A0000 		.4byte	.LLST57
 14188 3cf0 3F       		.uleb128 0x3f
 14189 3cf1 4B160000 		.4byte	.LASF430
 14190 3cf5 01       		.byte	0x1
 14191 3cf6 3A03     		.2byte	0x33a
 14192 3cf8 6F3D0000 		.4byte	0x3d6f
 14193 3cfc 02       		.uleb128 0x2
 14194 3cfd 91       		.byte	0x91
 14195 3cfe 70       		.sleb128 -16
 14196 3cff 3F       		.uleb128 0x3f
 14197 3d00 75040000 		.4byte	.LASF431
 14198 3d04 01       		.byte	0x1
 14199 3d05 3B03     		.2byte	0x33b
 14200 3d07 EB000000 		.4byte	0xeb
 14201 3d0b 02       		.uleb128 0x2
 14202 3d0c 91       		.byte	0x91
 14203 3d0d 6C       		.sleb128 -20
 14204 3d0e 27       		.uleb128 0x27
 14205 3d0f 19140000 		.4byte	0x1419
 14206 3d13 28000000 		.4byte	.LBB168
 14207 3d17 40020000 		.4byte	.Ldebug_ranges0+0x240
 14208 3d1b 01       		.byte	0x1
 14209 3d1c 4003     		.2byte	0x340
 14210 3d1e 413D0000 		.4byte	0x3d41
 14211 3d22 2B       		.uleb128 0x2b
 14212 3d23 30140000 		.4byte	0x1430
 14213 3d27 A60A0000 		.4byte	.LLST58
 14214 3d2b 2B       		.uleb128 0x2b
 14215 3d2c 25140000 		.4byte	0x1425
 14216 3d30 B90A0000 		.4byte	.LLST59
 14217 3d34 3A       		.uleb128 0x3a
 14218 3d35 34000000 		.4byte	.LVL455
 14219 3d39 2D       		.uleb128 0x2d
 14220 3d3a 01       		.uleb128 0x1
 14221 3d3b 50       		.byte	0x50
 14222 3d3c 02       		.uleb128 0x2
 14223 3d3d 74       		.byte	0x74
 14224 3d3e 00       		.sleb128 0
 14225 3d3f 00       		.byte	0
 14226 3d40 00       		.byte	0
 14227 3d41 2F       		.uleb128 0x2f
 14228 3d42 28000000 		.4byte	.LVL453
ARM GAS  /tmp/ccy8OeyM.s 			page 251


 14229 3d46 BF400000 		.4byte	0x40bf
 14230 3d4a 2D       		.uleb128 0x2d
 14231 3d4b 01       		.uleb128 0x1
 14232 3d4c 52       		.byte	0x52
 14233 3d4d 02       		.uleb128 0x2
 14234 3d4e 91       		.byte	0x91
 14235 3d4f 6C       		.sleb128 -20
 14236 3d50 2D       		.uleb128 0x2d
 14237 3d51 01       		.uleb128 0x1
 14238 3d52 51       		.byte	0x51
 14239 3d53 13       		.uleb128 0x13
 14240 3d54 F3       		.byte	0xf3
 14241 3d55 03       		.uleb128 0x3
 14242 3d56 F5       		.byte	0xf5
 14243 3d57 40       		.uleb128 0x40
 14244 3d58 25       		.uleb128 0x25
 14245 3d59 F4       		.byte	0xf4
 14246 3d5a 25       		.uleb128 0x25
 14247 3d5b 04       		.byte	0x4
 14248 3d5c 0050C347 		.4byte	0x47c35000
 14249 3d60 1E       		.byte	0x1e
 14250 3d61 F7       		.byte	0xf7
 14251 3d62 25       		.uleb128 0x25
 14252 3d63 F7       		.byte	0xf7
 14253 3d64 2C       		.uleb128 0x2c
 14254 3d65 F7       		.byte	0xf7
 14255 3d66 00       		.uleb128 0
 14256 3d67 2D       		.uleb128 0x2d
 14257 3d68 01       		.uleb128 0x1
 14258 3d69 50       		.byte	0x50
 14259 3d6a 02       		.uleb128 0x2
 14260 3d6b 74       		.byte	0x74
 14261 3d6c 00       		.sleb128 0
 14262 3d6d 00       		.byte	0
 14263 3d6e 00       		.byte	0
 14264 3d6f 15       		.uleb128 0x15
 14265 3d70 CA000000 		.4byte	0xca
 14266 3d74 7F3D0000 		.4byte	0x3d7f
 14267 3d78 16       		.uleb128 0x16
 14268 3d79 B8040000 		.4byte	0x4b8
 14269 3d7d 04       		.byte	0x4
 14270 3d7e 00       		.byte	0
 14271 3d7f 42       		.uleb128 0x42
 14272 3d80 7E080000 		.4byte	.LASF434
 14273 3d84 01       		.byte	0x1
 14274 3d85 4303     		.2byte	0x343
 14275 3d87 00000000 		.4byte	.LFB263
 14276 3d8b 7C000000 		.4byte	.LFE263-.LFB263
 14277 3d8f 01       		.uleb128 0x1
 14278 3d90 9C       		.byte	0x9c
 14279 3d91 3B3E0000 		.4byte	0x3e3b
 14280 3d95 45       		.uleb128 0x45
 14281 3d96 8F010000 		.4byte	.LASF435
 14282 3d9a 01       		.byte	0x1
 14283 3d9b 4303     		.2byte	0x343
 14284 3d9d 3B3E0000 		.4byte	0x3e3b
 14285 3da1 DB0A0000 		.4byte	.LLST60
ARM GAS  /tmp/ccy8OeyM.s 			page 252


 14286 3da5 26       		.uleb128 0x26
 14287 3da6 6C656E00 		.ascii	"len\000"
 14288 3daa 01       		.byte	0x1
 14289 3dab 4303     		.2byte	0x343
 14290 3dad 2C000000 		.4byte	0x2c
 14291 3db1 070B0000 		.4byte	.LLST61
 14292 3db5 46       		.uleb128 0x46
 14293 3db6 543E0000 		.4byte	0x3e54
 14294 3dba 300B0000 		.4byte	.LLST62
 14295 3dbe 3E       		.uleb128 0x3e
 14296 3dbf 4B160000 		.4byte	.LASF430
 14297 3dc3 01       		.byte	0x1
 14298 3dc4 4803     		.2byte	0x348
 14299 3dc6 413E0000 		.4byte	0x3e41
 14300 3dca 6E0B0000 		.4byte	.LLST63
 14301 3dce 3F       		.uleb128 0x3f
 14302 3dcf 75040000 		.4byte	.LASF431
 14303 3dd3 01       		.byte	0x1
 14304 3dd4 4903     		.2byte	0x349
 14305 3dd6 EB000000 		.4byte	0xeb
 14306 3dda 02       		.uleb128 0x2
 14307 3ddb 91       		.byte	0x91
 14308 3ddc 54       		.sleb128 -44
 14309 3ddd 47       		.uleb128 0x47
 14310 3dde 58020000 		.4byte	.Ldebug_ranges0+0x258
 14311 3de2 0B3E0000 		.4byte	0x3e0b
 14312 3de6 40       		.uleb128 0x40
 14313 3de7 6900     		.ascii	"i\000"
 14314 3de9 01       		.byte	0x1
 14315 3dea 4D03     		.2byte	0x34d
 14316 3dec 2C000000 		.4byte	0x2c
 14317 3df0 820B0000 		.4byte	.LLST64
 14318 3df4 2F       		.uleb128 0x2f
 14319 3df5 52000000 		.4byte	.LVL465
 14320 3df9 BF400000 		.4byte	0x40bf
 14321 3dfd 2D       		.uleb128 0x2d
 14322 3dfe 01       		.uleb128 0x1
 14323 3dff 52       		.byte	0x52
 14324 3e00 02       		.uleb128 0x2
 14325 3e01 77       		.byte	0x77
 14326 3e02 24       		.sleb128 36
 14327 3e03 2D       		.uleb128 0x2d
 14328 3e04 01       		.uleb128 0x1
 14329 3e05 50       		.byte	0x50
 14330 3e06 02       		.uleb128 0x2
 14331 3e07 78       		.byte	0x78
 14332 3e08 00       		.sleb128 0
 14333 3e09 00       		.byte	0
 14334 3e0a 00       		.byte	0
 14335 3e0b 48       		.uleb128 0x48
 14336 3e0c 19140000 		.4byte	0x1419
 14337 3e10 58000000 		.4byte	.LBB174
 14338 3e14 0A000000 		.4byte	.LBE174-.LBB174
 14339 3e18 01       		.byte	0x1
 14340 3e19 5103     		.2byte	0x351
 14341 3e1b 2B       		.uleb128 0x2b
 14342 3e1c 30140000 		.4byte	0x1430
ARM GAS  /tmp/ccy8OeyM.s 			page 253


 14343 3e20 B90B0000 		.4byte	.LLST65
 14344 3e24 2B       		.uleb128 0x2b
 14345 3e25 25140000 		.4byte	0x1425
 14346 3e29 CC0B0000 		.4byte	.LLST66
 14347 3e2d 3A       		.uleb128 0x3a
 14348 3e2e 62000000 		.4byte	.LVL467
 14349 3e32 2D       		.uleb128 0x2d
 14350 3e33 01       		.uleb128 0x1
 14351 3e34 50       		.byte	0x50
 14352 3e35 02       		.uleb128 0x2
 14353 3e36 78       		.byte	0x78
 14354 3e37 00       		.sleb128 0
 14355 3e38 00       		.byte	0
 14356 3e39 00       		.byte	0
 14357 3e3a 00       		.byte	0
 14358 3e3b 0A       		.uleb128 0xa
 14359 3e3c 04       		.byte	0x4
 14360 3e3d 25000000 		.4byte	0x25
 14361 3e41 15       		.uleb128 0x15
 14362 3e42 CA000000 		.4byte	0xca
 14363 3e46 543E0000 		.4byte	0x3e54
 14364 3e4a 49       		.uleb128 0x49
 14365 3e4b B8040000 		.4byte	0x4b8
 14366 3e4f B53D0000 		.4byte	0x3db5
 14367 3e53 00       		.byte	0
 14368 3e54 14       		.uleb128 0x14
 14369 3e55 B8040000 		.4byte	0x4b8
 14370 3e59 4A       		.uleb128 0x4a
 14371 3e5a 1F080000 		.4byte	.LASF526
 14372 3e5e 01       		.byte	0x1
 14373 3e5f 5403     		.2byte	0x354
 14374 3e61 A2080000 		.4byte	0x8a2
 14375 3e65 00000000 		.4byte	.LFB264
 14376 3e69 0C000000 		.4byte	.LFE264-.LFB264
 14377 3e6d 01       		.uleb128 0x1
 14378 3e6e 9C       		.byte	0x9c
 14379 3e6f 42       		.uleb128 0x42
 14380 3e70 F3100000 		.4byte	.LASF436
 14381 3e74 01       		.byte	0x1
 14382 3e75 5803     		.2byte	0x358
 14383 3e77 00000000 		.4byte	.LFB265
 14384 3e7b 0C000000 		.4byte	.LFE265-.LFB265
 14385 3e7f 01       		.uleb128 0x1
 14386 3e80 9C       		.byte	0x9c
 14387 3e81 943E0000 		.4byte	0x3e94
 14388 3e85 43       		.uleb128 0x43
 14389 3e86 DE110000 		.4byte	.LASF406
 14390 3e8a 01       		.byte	0x1
 14391 3e8b 5803     		.2byte	0x358
 14392 3e8d C3150000 		.4byte	0x15c3
 14393 3e91 01       		.uleb128 0x1
 14394 3e92 50       		.byte	0x50
 14395 3e93 00       		.byte	0
 14396 3e94 42       		.uleb128 0x42
 14397 3e95 D5190000 		.4byte	.LASF437
 14398 3e99 01       		.byte	0x1
 14399 3e9a 5C03     		.2byte	0x35c
ARM GAS  /tmp/ccy8OeyM.s 			page 254


 14400 3e9c 00000000 		.4byte	.LFB266
 14401 3ea0 34000000 		.4byte	.LFE266-.LFB266
 14402 3ea4 01       		.uleb128 0x1
 14403 3ea5 9C       		.byte	0x9c
 14404 3ea6 3A3F0000 		.4byte	0x3f3a
 14405 3eaa 45       		.uleb128 0x45
 14406 3eab B9190000 		.4byte	.LASF403
 14407 3eaf 01       		.byte	0x1
 14408 3eb0 5C03     		.2byte	0x35c
 14409 3eb2 AE130000 		.4byte	0x13ae
 14410 3eb6 DF0B0000 		.4byte	.LLST67
 14411 3eba 26       		.uleb128 0x26
 14412 3ebb 6C656E00 		.ascii	"len\000"
 14413 3ebf 01       		.byte	0x1
 14414 3ec0 5C03     		.2byte	0x35c
 14415 3ec2 B8000000 		.4byte	0xb8
 14416 3ec6 160C0000 		.4byte	.LLST68
 14417 3eca 3E       		.uleb128 0x3e
 14418 3ecb 75040000 		.4byte	.LASF431
 14419 3ecf 01       		.byte	0x1
 14420 3ed0 5D03     		.2byte	0x35d
 14421 3ed2 EB000000 		.4byte	0xeb
 14422 3ed6 670C0000 		.4byte	.LLST69
 14423 3eda 27       		.uleb128 0x27
 14424 3edb 19140000 		.4byte	0x1419
 14425 3edf 18000000 		.4byte	.LBB176
 14426 3ee3 70020000 		.4byte	.Ldebug_ranges0+0x270
 14427 3ee7 01       		.byte	0x1
 14428 3ee8 6303     		.2byte	0x363
 14429 3eea 1C3F0000 		.4byte	0x3f1c
 14430 3eee 2B       		.uleb128 0x2b
 14431 3eef 30140000 		.4byte	0x1430
 14432 3ef3 A10C0000 		.4byte	.LLST70
 14433 3ef7 28       		.uleb128 0x28
 14434 3ef8 25140000 		.4byte	0x1425
 14435 3efc 06       		.uleb128 0x6
 14436 3efd 03       		.byte	0x3
 14437 3efe 00000000 		.4byte	send_buffer
 14438 3f02 9F       		.byte	0x9f
 14439 3f03 33       		.uleb128 0x33
 14440 3f04 28000000 		.4byte	.LVL477
 14441 3f08 2D       		.uleb128 0x2d
 14442 3f09 01       		.uleb128 0x1
 14443 3f0a 51       		.byte	0x51
 14444 3f0b 05       		.uleb128 0x5
 14445 3f0c F3       		.byte	0xf3
 14446 3f0d 01       		.uleb128 0x1
 14447 3f0e 51       		.byte	0x51
 14448 3f0f 23       		.byte	0x23
 14449 3f10 01       		.uleb128 0x1
 14450 3f11 2D       		.uleb128 0x2d
 14451 3f12 01       		.uleb128 0x1
 14452 3f13 50       		.byte	0x50
 14453 3f14 05       		.uleb128 0x5
 14454 3f15 03       		.byte	0x3
 14455 3f16 00000000 		.4byte	.LANCHOR8
 14456 3f1a 00       		.byte	0
ARM GAS  /tmp/ccy8OeyM.s 			page 255


 14457 3f1b 00       		.byte	0
 14458 3f1c 2F       		.uleb128 0x2f
 14459 3f1d 18000000 		.4byte	.LVL474
 14460 3f21 09410000 		.4byte	0x4109
 14461 3f25 2D       		.uleb128 0x2d
 14462 3f26 01       		.uleb128 0x1
 14463 3f27 52       		.byte	0x52
 14464 3f28 02       		.uleb128 0x2
 14465 3f29 74       		.byte	0x74
 14466 3f2a 00       		.sleb128 0
 14467 3f2b 2D       		.uleb128 0x2d
 14468 3f2c 01       		.uleb128 0x1
 14469 3f2d 51       		.byte	0x51
 14470 3f2e 03       		.uleb128 0x3
 14471 3f2f F3       		.byte	0xf3
 14472 3f30 01       		.uleb128 0x1
 14473 3f31 50       		.byte	0x50
 14474 3f32 2D       		.uleb128 0x2d
 14475 3f33 01       		.uleb128 0x1
 14476 3f34 50       		.byte	0x50
 14477 3f35 02       		.uleb128 0x2
 14478 3f36 75       		.byte	0x75
 14479 3f37 01       		.sleb128 1
 14480 3f38 00       		.byte	0
 14481 3f39 00       		.byte	0
 14482 3f3a 15       		.uleb128 0x15
 14483 3f3b CA040000 		.4byte	0x4ca
 14484 3f3f 4B3F0000 		.4byte	0x3f4b
 14485 3f43 4B       		.uleb128 0x4b
 14486 3f44 B8040000 		.4byte	0x4b8
 14487 3f48 3201     		.2byte	0x132
 14488 3f4a 00       		.byte	0
 14489 3f4b 39       		.uleb128 0x39
 14490 3f4c 39040000 		.4byte	.LASF438
 14491 3f50 01       		.byte	0x1
 14492 3f51 36       		.byte	0x36
 14493 3f52 3A3F0000 		.4byte	0x3f3a
 14494 3f56 05       		.uleb128 0x5
 14495 3f57 03       		.byte	0x3
 14496 3f58 00000000 		.4byte	detect_thread_wa
 14497 3f5c 39       		.uleb128 0x39
 14498 3f5d 27070000 		.4byte	.LASF439
 14499 3f61 01       		.byte	0x1
 14500 3f62 37       		.byte	0x37
 14501 3f63 A5020000 		.4byte	0x2a5
 14502 3f67 05       		.uleb128 0x5
 14503 3f68 03       		.byte	0x3
 14504 3f69 00000000 		.4byte	detect_tp
 14505 3f6d 15       		.uleb128 0x15
 14506 3f6e CA000000 		.4byte	0xca
 14507 3f72 7E3F0000 		.4byte	0x3f7e
 14508 3f76 4B       		.uleb128 0x4b
 14509 3f77 B8040000 		.4byte	0x4b8
 14510 3f7b FF03     		.2byte	0x3ff
 14511 3f7d 00       		.byte	0
 14512 3f7e 39       		.uleb128 0x39
 14513 3f7f 531C0000 		.4byte	.LASF440
ARM GAS  /tmp/ccy8OeyM.s 			page 256


 14514 3f83 01       		.byte	0x1
 14515 3f84 3A       		.byte	0x3a
 14516 3f85 6D3F0000 		.4byte	0x3f6d
 14517 3f89 05       		.uleb128 0x5
 14518 3f8a 03       		.byte	0x3
 14519 3f8b 00000000 		.4byte	send_buffer
 14520 3f8f 39       		.uleb128 0x39
 14521 3f90 C00E0000 		.4byte	.LASF441
 14522 3f94 01       		.byte	0x1
 14523 3f95 3B       		.byte	0x3b
 14524 3f96 25000000 		.4byte	0x25
 14525 3f9a 05       		.uleb128 0x5
 14526 3f9b 03       		.byte	0x3
 14527 3f9c 00000000 		.4byte	detect_cycle_int_limit
 14528 3fa0 39       		.uleb128 0x39
 14529 3fa1 190B0000 		.4byte	.LASF442
 14530 3fa5 01       		.byte	0x1
 14531 3fa6 3C       		.byte	0x3c
 14532 3fa7 25000000 		.4byte	0x25
 14533 3fab 05       		.uleb128 0x5
 14534 3fac 03       		.byte	0x3
 14535 3fad 00000000 		.4byte	detect_coupling_k
 14536 3fb1 39       		.uleb128 0x39
 14537 3fb2 7B070000 		.4byte	.LASF443
 14538 3fb6 01       		.byte	0x1
 14539 3fb7 3D       		.byte	0x3d
 14540 3fb8 25000000 		.4byte	0x25
 14541 3fbc 05       		.uleb128 0x5
 14542 3fbd 03       		.byte	0x3
 14543 3fbe 00000000 		.4byte	detect_current
 14544 3fc2 39       		.uleb128 0x39
 14545 3fc3 CC030000 		.4byte	.LASF444
 14546 3fc7 01       		.byte	0x1
 14547 3fc8 3E       		.byte	0x3e
 14548 3fc9 25000000 		.4byte	0x25
 14549 3fcd 05       		.uleb128 0x5
 14550 3fce 03       		.byte	0x3
 14551 3fcf 00000000 		.4byte	detect_min_rpm
 14552 3fd3 39       		.uleb128 0x39
 14553 3fd4 60100000 		.4byte	.LASF445
 14554 3fd8 01       		.byte	0x1
 14555 3fd9 3F       		.byte	0x3f
 14556 3fda 25000000 		.4byte	0x25
 14557 3fde 05       		.uleb128 0x5
 14558 3fdf 03       		.byte	0x3
 14559 3fe0 00000000 		.4byte	detect_low_duty
 14560 3fe4 39       		.uleb128 0x39
 14561 3fe5 2E020000 		.4byte	.LASF446
 14562 3fe9 01       		.byte	0x1
 14563 3fea 40       		.byte	0x40
 14564 3feb A50C0000 		.4byte	0xca5
 14565 3fef 05       		.uleb128 0x5
 14566 3ff0 03       		.byte	0x3
 14567 3ff1 00000000 		.4byte	detect_hall_table
 14568 3ff5 39       		.uleb128 0x39
 14569 3ff6 37110000 		.4byte	.LASF447
 14570 3ffa 01       		.byte	0x1
ARM GAS  /tmp/ccy8OeyM.s 			page 257


 14571 3ffb 41       		.byte	0x41
 14572 3ffc 2C000000 		.4byte	0x2c
 14573 4000 05       		.uleb128 0x5
 14574 4001 03       		.byte	0x3
 14575 4002 00000000 		.4byte	detect_hall_res
 14576 4006 39       		.uleb128 0x39
 14577 4007 6B010000 		.4byte	.LASF448
 14578 400b 01       		.byte	0x1
 14579 400c 42       		.byte	0x42
 14580 400d C3150000 		.4byte	0x15c3
 14581 4011 05       		.uleb128 0x5
 14582 4012 03       		.byte	0x3
 14583 4013 00000000 		.4byte	send_func
 14584 4017 39       		.uleb128 0x39
 14585 4018 10030000 		.4byte	.LASF449
 14586 401c 01       		.byte	0x1
 14587 401d 43       		.byte	0x43
 14588 401e C3150000 		.4byte	0x15c3
 14589 4022 05       		.uleb128 0x5
 14590 4023 03       		.byte	0x3
 14591 4024 00000000 		.4byte	appdata_func
 14592 4028 39       		.uleb128 0x39
 14593 4029 06180000 		.4byte	.LASF450
 14594 402d 01       		.byte	0x1
 14595 402e 44       		.byte	0x44
 14596 402f A2080000 		.4byte	0x8a2
 14597 4033 05       		.uleb128 0x5
 14598 4034 03       		.byte	0x3
 14599 4035 00000000 		.4byte	display_position_mode
 14600 4039 4C       		.uleb128 0x4c
 14601 403a 0D1B0000 		.4byte	.LASF451
 14602 403e 14       		.byte	0x14
 14603 403f A706     		.2byte	0x6a7
 14604 4041 17010000 		.4byte	0x117
 14605 4045 4D       		.uleb128 0x4d
 14606 4046 636800   		.ascii	"ch\000"
 14607 4049 09       		.byte	0x9
 14608 404a 0902     		.2byte	0x209
 14609 404c 51040000 		.4byte	0x451
 14610 4050 15       		.uleb128 0x15
 14611 4051 E0000000 		.4byte	0xe0
 14612 4055 5B400000 		.4byte	0x405b
 14613 4059 4E       		.uleb128 0x4e
 14614 405a 00       		.byte	0
 14615 405b 4F       		.uleb128 0x4f
 14616 405c 81120000 		.4byte	.LASF452
 14617 4060 15       		.byte	0x15
 14618 4061 52       		.byte	0x52
 14619 4062 66400000 		.4byte	0x4066
 14620 4066 05       		.uleb128 0x5
 14621 4067 50400000 		.4byte	0x4050
 14622 406b 50       		.uleb128 0x50
 14623 406c 8A210000 		.4byte	.LASF453
 14624 4070 16       		.byte	0x16
 14625 4071 8B       		.byte	0x8b
 14626 4072 69010000 		.4byte	0x169
 14627 4076 80400000 		.4byte	0x4080
ARM GAS  /tmp/ccy8OeyM.s 			page 258


 14628 407a 0D       		.uleb128 0xd
 14629 407b 69010000 		.4byte	0x169
 14630 407f 00       		.byte	0
 14631 4080 50       		.uleb128 0x50
 14632 4081 4A0F0000 		.4byte	.LASF454
 14633 4085 17       		.byte	0x17
 14634 4086 85       		.byte	0x85
 14635 4087 9E0C0000 		.4byte	0xc9e
 14636 408b B3400000 		.4byte	0x40b3
 14637 408f 0D       		.uleb128 0xd
 14638 4090 25000000 		.4byte	0x25
 14639 4094 0D       		.uleb128 0xd
 14640 4095 25000000 		.4byte	0x25
 14641 4099 0D       		.uleb128 0xd
 14642 409a 25000000 		.4byte	0x25
 14643 409e 0D       		.uleb128 0xd
 14644 409f 3B3E0000 		.4byte	0x3e3b
 14645 40a3 0D       		.uleb128 0xd
 14646 40a4 3B3E0000 		.4byte	0x3e3b
 14647 40a8 0D       		.uleb128 0xd
 14648 40a9 B3400000 		.4byte	0x40b3
 14649 40ad 0D       		.uleb128 0xd
 14650 40ae B9400000 		.4byte	0x40b9
 14651 40b2 00       		.byte	0
 14652 40b3 0A       		.uleb128 0xa
 14653 40b4 04       		.byte	0x4
 14654 40b5 BF000000 		.4byte	0xbf
 14655 40b9 0A       		.uleb128 0xa
 14656 40ba 04       		.byte	0x4
 14657 40bb 2C000000 		.4byte	0x2c
 14658 40bf 51       		.uleb128 0x51
 14659 40c0 29160000 		.4byte	.LASF456
 14660 40c4 18       		.byte	0x18
 14661 40c5 20       		.byte	0x20
 14662 40c6 DA400000 		.4byte	0x40da
 14663 40ca 0D       		.uleb128 0xd
 14664 40cb 68070000 		.4byte	0x768
 14665 40cf 0D       		.uleb128 0xd
 14666 40d0 EB000000 		.4byte	0xeb
 14667 40d4 0D       		.uleb128 0xd
 14668 40d5 DA400000 		.4byte	0x40da
 14669 40d9 00       		.byte	0
 14670 40da 0A       		.uleb128 0xa
 14671 40db 04       		.byte	0x4
 14672 40dc EB000000 		.4byte	0xeb
 14673 40e0 50       		.uleb128 0x50
 14674 40e1 BA060000 		.4byte	.LASF457
 14675 40e5 0F       		.byte	0xf
 14676 40e6 89       		.byte	0x89
 14677 40e7 A5020000 		.4byte	0x2a5
 14678 40eb 09410000 		.4byte	0x4109
 14679 40ef 0D       		.uleb128 0xd
 14680 40f0 82030000 		.4byte	0x382
 14681 40f4 0D       		.uleb128 0xd
 14682 40f5 0C010000 		.4byte	0x10c
 14683 40f9 0D       		.uleb128 0xd
 14684 40fa 53010000 		.4byte	0x153
ARM GAS  /tmp/ccy8OeyM.s 			page 259


 14685 40fe 0D       		.uleb128 0xd
 14686 40ff 4C070000 		.4byte	0x74c
 14687 4103 0D       		.uleb128 0xd
 14688 4104 82030000 		.4byte	0x382
 14689 4108 00       		.byte	0
 14690 4109 52       		.uleb128 0x52
 14691 410a 18050000 		.4byte	.LASF458
 14692 410e 82030000 		.4byte	0x382
 14693 4112 26410000 		.4byte	0x4126
 14694 4116 0D       		.uleb128 0xd
 14695 4117 82030000 		.4byte	0x382
 14696 411b 0D       		.uleb128 0xd
 14697 411c 26410000 		.4byte	0x4126
 14698 4120 0D       		.uleb128 0xd
 14699 4121 B8040000 		.4byte	0x4b8
 14700 4125 00       		.byte	0
 14701 4126 0A       		.uleb128 0xa
 14702 4127 04       		.byte	0x4
 14703 4128 2C410000 		.4byte	0x412c
 14704 412c 53       		.uleb128 0x53
 14705 412d 50       		.uleb128 0x50
 14706 412e 471F0000 		.4byte	.LASF459
 14707 4132 18       		.byte	0x18
 14708 4133 29       		.byte	0x29
 14709 4134 25000000 		.4byte	0x25
 14710 4138 4C410000 		.4byte	0x414c
 14711 413c 0D       		.uleb128 0xd
 14712 413d 6E070000 		.4byte	0x76e
 14713 4141 0D       		.uleb128 0xd
 14714 4142 25000000 		.4byte	0x25
 14715 4146 0D       		.uleb128 0xd
 14716 4147 DA400000 		.4byte	0x40da
 14717 414b 00       		.byte	0
 14718 414c 51       		.uleb128 0x51
 14719 414d 3B1D0000 		.4byte	.LASF460
 14720 4151 15       		.byte	0x15
 14721 4152 21       		.byte	0x21
 14722 4153 5D410000 		.4byte	0x415d
 14723 4157 0D       		.uleb128 0xd
 14724 4158 5D410000 		.4byte	0x415d
 14725 415c 00       		.byte	0
 14726 415d 0A       		.uleb128 0xa
 14727 415e 04       		.byte	0x4
 14728 415f C50C0000 		.4byte	0xcc5
 14729 4163 50       		.uleb128 0x50
 14730 4164 43080000 		.4byte	.LASF461
 14731 4168 19       		.byte	0x19
 14732 4169 46       		.byte	0x46
 14733 416a 9E0C0000 		.4byte	0xc9e
 14734 416e 7D410000 		.4byte	0x417d
 14735 4172 0D       		.uleb128 0xd
 14736 4173 25000000 		.4byte	0x25
 14737 4177 0D       		.uleb128 0xd
 14738 4178 68070000 		.4byte	0x768
 14739 417c 00       		.byte	0
 14740 417d 54       		.uleb128 0x54
 14741 417e EA1B0000 		.4byte	.LASF480
ARM GAS  /tmp/ccy8OeyM.s 			page 260


 14742 4182 15       		.byte	0x15
 14743 4183 20       		.byte	0x20
 14744 4184 88410000 		.4byte	0x4188
 14745 4188 0A       		.uleb128 0xa
 14746 4189 04       		.byte	0x4
 14747 418a 8E410000 		.4byte	0x418e
 14748 418e 14       		.uleb128 0x14
 14749 418f 93410000 		.4byte	0x4193
 14750 4193 05       		.uleb128 0x5
 14751 4194 C50C0000 		.4byte	0xcc5
 14752 4198 51       		.uleb128 0x51
 14753 4199 9F1E0000 		.4byte	.LASF462
 14754 419d 19       		.byte	0x19
 14755 419e 42       		.byte	0x42
 14756 419f BD410000 		.4byte	0x41bd
 14757 41a3 0D       		.uleb128 0xd
 14758 41a4 25000000 		.4byte	0x25
 14759 41a8 0D       		.uleb128 0xd
 14760 41a9 9E0C0000 		.4byte	0xc9e
 14761 41ad 0D       		.uleb128 0xd
 14762 41ae 3B3E0000 		.4byte	0x3e3b
 14763 41b2 0D       		.uleb128 0xd
 14764 41b3 3B3E0000 		.4byte	0x3e3b
 14765 41b7 0D       		.uleb128 0xd
 14766 41b8 BD410000 		.4byte	0x41bd
 14767 41bc 00       		.byte	0
 14768 41bd 0A       		.uleb128 0xa
 14769 41be 04       		.byte	0x4
 14770 41bf 9E0C0000 		.4byte	0xc9e
 14771 41c3 51       		.uleb128 0x51
 14772 41c4 5C0D0000 		.4byte	.LASF463
 14773 41c8 18       		.byte	0x18
 14774 41c9 23       		.byte	0x23
 14775 41ca E3410000 		.4byte	0x41e3
 14776 41ce 0D       		.uleb128 0xd
 14777 41cf 68070000 		.4byte	0x768
 14778 41d3 0D       		.uleb128 0xd
 14779 41d4 25000000 		.4byte	0x25
 14780 41d8 0D       		.uleb128 0xd
 14781 41d9 25000000 		.4byte	0x25
 14782 41dd 0D       		.uleb128 0xd
 14783 41de DA400000 		.4byte	0x40da
 14784 41e2 00       		.byte	0
 14785 41e3 50       		.uleb128 0x50
 14786 41e4 9A000000 		.4byte	.LASF464
 14787 41e8 17       		.byte	0x17
 14788 41e9 87       		.byte	0x87
 14789 41ea 9E0C0000 		.4byte	0xc9e
 14790 41ee 0C420000 		.4byte	0x420c
 14791 41f2 0D       		.uleb128 0xd
 14792 41f3 25000000 		.4byte	0x25
 14793 41f7 0D       		.uleb128 0xd
 14794 41f8 25000000 		.4byte	0x25
 14795 41fc 0D       		.uleb128 0xd
 14796 41fd 25000000 		.4byte	0x25
 14797 4201 0D       		.uleb128 0xd
 14798 4202 25000000 		.4byte	0x25
ARM GAS  /tmp/ccy8OeyM.s 			page 261


 14799 4206 0D       		.uleb128 0xd
 14800 4207 3B3E0000 		.4byte	0x3e3b
 14801 420b 00       		.byte	0
 14802 420c 50       		.uleb128 0x50
 14803 420d 1C180000 		.4byte	.LASF465
 14804 4211 19       		.byte	0x19
 14805 4212 45       		.byte	0x45
 14806 4213 9E0C0000 		.4byte	0xc9e
 14807 4217 26420000 		.4byte	0x4226
 14808 421b 0D       		.uleb128 0xd
 14809 421c 3B3E0000 		.4byte	0x3e3b
 14810 4220 0D       		.uleb128 0xd
 14811 4221 3B3E0000 		.4byte	0x3e3b
 14812 4225 00       		.byte	0
 14813 4226 51       		.uleb128 0x51
 14814 4227 3B050000 		.4byte	.LASF466
 14815 422b 17       		.byte	0x17
 14816 422c 7F       		.byte	0x7f
 14817 422d 37420000 		.4byte	0x4237
 14818 4231 0D       		.uleb128 0xd
 14819 4232 37420000 		.4byte	0x4237
 14820 4236 00       		.byte	0
 14821 4237 0A       		.uleb128 0xa
 14822 4238 04       		.byte	0x4
 14823 4239 04120000 		.4byte	0x1204
 14824 423d 51       		.uleb128 0x51
 14825 423e 050D0000 		.4byte	.LASF467
 14826 4242 18       		.byte	0x18
 14827 4243 21       		.byte	0x21
 14828 4244 58420000 		.4byte	0x4258
 14829 4248 0D       		.uleb128 0xd
 14830 4249 68070000 		.4byte	0x768
 14831 424d 0D       		.uleb128 0xd
 14832 424e F6000000 		.4byte	0xf6
 14833 4252 0D       		.uleb128 0xd
 14834 4253 DA400000 		.4byte	0x40da
 14835 4257 00       		.byte	0
 14836 4258 51       		.uleb128 0x51
 14837 4259 920B0000 		.4byte	.LASF468
 14838 425d 18       		.byte	0x18
 14839 425e 1F       		.byte	0x1f
 14840 425f 73420000 		.4byte	0x4273
 14841 4263 0D       		.uleb128 0xd
 14842 4264 68070000 		.4byte	0x768
 14843 4268 0D       		.uleb128 0xd
 14844 4269 E0000000 		.4byte	0xe0
 14845 426d 0D       		.uleb128 0xd
 14846 426e DA400000 		.4byte	0x40da
 14847 4272 00       		.byte	0
 14848 4273 55       		.uleb128 0x55
 14849 4274 19170000 		.4byte	.LASF469
 14850 4278 1A       		.byte	0x1a
 14851 4279 3C       		.byte	0x3c
 14852 427a 55       		.uleb128 0x55
 14853 427b BD0D0000 		.4byte	.LASF470
 14854 427f 1B       		.byte	0x1b
 14855 4280 23       		.byte	0x23
ARM GAS  /tmp/ccy8OeyM.s 			page 262


 14856 4281 50       		.uleb128 0x50
 14857 4282 94100000 		.4byte	.LASF471
 14858 4286 1C       		.byte	0x1c
 14859 4287 22       		.byte	0x22
 14860 4288 25000000 		.4byte	0x25
 14861 428c 96420000 		.4byte	0x4296
 14862 4290 0D       		.uleb128 0xd
 14863 4291 2C000000 		.4byte	0x2c
 14864 4295 00       		.byte	0
 14865 4296 50       		.uleb128 0x50
 14866 4297 1F050000 		.4byte	.LASF472
 14867 429b 1C       		.byte	0x1c
 14868 429c 24       		.byte	0x24
 14869 429d 25000000 		.4byte	0x25
 14870 42a1 AB420000 		.4byte	0x42ab
 14871 42a5 0D       		.uleb128 0xd
 14872 42a6 2C000000 		.4byte	0x2c
 14873 42aa 00       		.byte	0
 14874 42ab 50       		.uleb128 0x50
 14875 42ac D5100000 		.4byte	.LASF473
 14876 42b0 18       		.byte	0x18
 14877 42b1 26       		.byte	0x26
 14878 42b2 EB000000 		.4byte	0xeb
 14879 42b6 C5420000 		.4byte	0x42c5
 14880 42ba 0D       		.uleb128 0xd
 14881 42bb 6E070000 		.4byte	0x76e
 14882 42bf 0D       		.uleb128 0xd
 14883 42c0 DA400000 		.4byte	0x40da
 14884 42c4 00       		.byte	0
 14885 42c5 51       		.uleb128 0x51
 14886 42c6 5C060000 		.4byte	.LASF474
 14887 42ca 15       		.byte	0x15
 14888 42cb 2B       		.byte	0x2b
 14889 42cc D6420000 		.4byte	0x42d6
 14890 42d0 0D       		.uleb128 0xd
 14891 42d1 25000000 		.4byte	0x25
 14892 42d5 00       		.byte	0
 14893 42d6 51       		.uleb128 0x51
 14894 42d7 941B0000 		.4byte	.LASF475
 14895 42db 15       		.byte	0x15
 14896 42dc 2E       		.byte	0x2e
 14897 42dd E7420000 		.4byte	0x42e7
 14898 42e1 0D       		.uleb128 0xd
 14899 42e2 25000000 		.4byte	0x25
 14900 42e6 00       		.byte	0
 14901 42e7 51       		.uleb128 0x51
 14902 42e8 BF120000 		.4byte	.LASF476
 14903 42ec 15       		.byte	0x15
 14904 42ed 2D       		.byte	0x2d
 14905 42ee F8420000 		.4byte	0x42f8
 14906 42f2 0D       		.uleb128 0xd
 14907 42f3 25000000 		.4byte	0x25
 14908 42f7 00       		.byte	0
 14909 42f8 51       		.uleb128 0x51
 14910 42f9 CD1E0000 		.4byte	.LASF477
 14911 42fd 15       		.byte	0x15
 14912 42fe 29       		.byte	0x29
ARM GAS  /tmp/ccy8OeyM.s 			page 263


 14913 42ff 09430000 		.4byte	0x4309
 14914 4303 0D       		.uleb128 0xd
 14915 4304 25000000 		.4byte	0x25
 14916 4308 00       		.byte	0
 14917 4309 56       		.uleb128 0x56
 14918 430a D0190000 		.4byte	.LASF478
 14919 430e 1D       		.byte	0x1d
 14920 430f 5101     		.2byte	0x151
 14921 4311 25000000 		.4byte	0x25
 14922 4315 1F430000 		.4byte	0x431f
 14923 4319 0D       		.uleb128 0xd
 14924 431a 25000000 		.4byte	0x25
 14925 431e 00       		.byte	0
 14926 431f 51       		.uleb128 0x51
 14927 4320 BF100000 		.4byte	.LASF479
 14928 4324 18       		.byte	0x18
 14929 4325 22       		.byte	0x22
 14930 4326 3F430000 		.4byte	0x433f
 14931 432a 0D       		.uleb128 0xd
 14932 432b 68070000 		.4byte	0x768
 14933 432f 0D       		.uleb128 0xd
 14934 4330 25000000 		.4byte	0x25
 14935 4334 0D       		.uleb128 0xd
 14936 4335 25000000 		.4byte	0x25
 14937 4339 0D       		.uleb128 0xd
 14938 433a DA400000 		.4byte	0x40da
 14939 433e 00       		.byte	0
 14940 433f 54       		.uleb128 0x54
 14941 4340 B6080000 		.4byte	.LASF481
 14942 4344 15       		.byte	0x15
 14943 4345 42       		.byte	0x42
 14944 4346 25000000 		.4byte	0x25
 14945 434a 54       		.uleb128 0x54
 14946 434b 530B0000 		.4byte	.LASF482
 14947 434f 15       		.byte	0x15
 14948 4350 43       		.byte	0x43
 14949 4351 25000000 		.4byte	0x25
 14950 4355 54       		.uleb128 0x54
 14951 4356 700C0000 		.4byte	.LASF483
 14952 435a 15       		.byte	0x15
 14953 435b 32       		.byte	0x32
 14954 435c 25000000 		.4byte	0x25
 14955 4360 54       		.uleb128 0x54
 14956 4361 7D0B0000 		.4byte	.LASF484
 14957 4365 15       		.byte	0x15
 14958 4366 34       		.byte	0x34
 14959 4367 25000000 		.4byte	0x25
 14960 436b 50       		.uleb128 0x50
 14961 436c 5A1D0000 		.4byte	.LASF485
 14962 4370 15       		.byte	0x15
 14963 4371 35       		.byte	0x35
 14964 4372 25000000 		.4byte	0x25
 14965 4376 80430000 		.4byte	0x4380
 14966 437a 0D       		.uleb128 0xd
 14967 437b 9E0C0000 		.4byte	0xc9e
 14968 437f 00       		.byte	0
 14969 4380 50       		.uleb128 0x50
ARM GAS  /tmp/ccy8OeyM.s 			page 264


 14970 4381 06160000 		.4byte	.LASF486
 14971 4385 15       		.byte	0x15
 14972 4386 36       		.byte	0x36
 14973 4387 25000000 		.4byte	0x25
 14974 438b 95430000 		.4byte	0x4395
 14975 438f 0D       		.uleb128 0xd
 14976 4390 9E0C0000 		.4byte	0xc9e
 14977 4394 00       		.byte	0
 14978 4395 50       		.uleb128 0x50
 14979 4396 9A140000 		.4byte	.LASF487
 14980 439a 15       		.byte	0x15
 14981 439b 37       		.byte	0x37
 14982 439c 25000000 		.4byte	0x25
 14983 43a0 AA430000 		.4byte	0x43aa
 14984 43a4 0D       		.uleb128 0xd
 14985 43a5 9E0C0000 		.4byte	0xc9e
 14986 43a9 00       		.byte	0
 14987 43aa 50       		.uleb128 0x50
 14988 43ab D61F0000 		.4byte	.LASF488
 14989 43af 15       		.byte	0x15
 14990 43b0 38       		.byte	0x38
 14991 43b1 25000000 		.4byte	0x25
 14992 43b5 BF430000 		.4byte	0x43bf
 14993 43b9 0D       		.uleb128 0xd
 14994 43ba 9E0C0000 		.4byte	0xc9e
 14995 43be 00       		.byte	0
 14996 43bf 50       		.uleb128 0x50
 14997 43c0 E2140000 		.4byte	.LASF489
 14998 43c4 15       		.byte	0x15
 14999 43c5 3F       		.byte	0x3f
 15000 43c6 2C000000 		.4byte	0x2c
 15001 43ca D4430000 		.4byte	0x43d4
 15002 43ce 0D       		.uleb128 0xd
 15003 43cf 9E0C0000 		.4byte	0xc9e
 15004 43d3 00       		.byte	0
 15005 43d4 50       		.uleb128 0x50
 15006 43d5 63170000 		.4byte	.LASF490
 15007 43d9 15       		.byte	0x15
 15008 43da 40       		.byte	0x40
 15009 43db 2C000000 		.4byte	0x2c
 15010 43df E9430000 		.4byte	0x43e9
 15011 43e3 0D       		.uleb128 0xd
 15012 43e4 9E0C0000 		.4byte	0xc9e
 15013 43e8 00       		.byte	0
 15014 43e9 54       		.uleb128 0x54
 15015 43ea 790D0000 		.4byte	.LASF491
 15016 43ee 15       		.byte	0x15
 15017 43ef 26       		.byte	0x26
 15018 43f0 64080000 		.4byte	0x864
 15019 43f4 50       		.uleb128 0x50
 15020 43f5 BE190000 		.4byte	.LASF492
 15021 43f9 18       		.byte	0x18
 15022 43fa 27       		.byte	0x27
 15023 43fb F6000000 		.4byte	0xf6
 15024 43ff 0E440000 		.4byte	0x440e
 15025 4403 0D       		.uleb128 0xd
 15026 4404 6E070000 		.4byte	0x76e
ARM GAS  /tmp/ccy8OeyM.s 			page 265


 15027 4408 0D       		.uleb128 0xd
 15028 4409 DA400000 		.4byte	0x40da
 15029 440d 00       		.byte	0
 15030 440e 50       		.uleb128 0x50
 15031 440f 7B020000 		.4byte	.LASF493
 15032 4413 1E       		.byte	0x1e
 15033 4414 20       		.byte	0x20
 15034 4415 E0000000 		.4byte	0xe0
 15035 4419 2D440000 		.4byte	0x442d
 15036 441d 0D       		.uleb128 0xd
 15037 441e F6000000 		.4byte	0xf6
 15038 4422 0D       		.uleb128 0xd
 15039 4423 68070000 		.4byte	0x768
 15040 4427 0D       		.uleb128 0xd
 15041 4428 F6000000 		.4byte	0xf6
 15042 442c 00       		.byte	0
 15043 442d 50       		.uleb128 0x50
 15044 442e EB170000 		.4byte	.LASF494
 15045 4432 1E       		.byte	0x1e
 15046 4433 1F       		.byte	0x1f
 15047 4434 E0000000 		.4byte	0xe0
 15048 4438 42440000 		.4byte	0x4442
 15049 443c 0D       		.uleb128 0xd
 15050 443d F6000000 		.4byte	0xf6
 15051 4441 00       		.byte	0
 15052 4442 55       		.uleb128 0x55
 15053 4443 44140000 		.4byte	.LASF495
 15054 4447 1E       		.byte	0x1e
 15055 4448 21       		.byte	0x21
 15056 4449 50       		.uleb128 0x50
 15057 444a 16100000 		.4byte	.LASF496
 15058 444e 18       		.byte	0x18
 15059 444f 24       		.byte	0x24
 15060 4450 D5000000 		.4byte	0xd5
 15061 4454 63440000 		.4byte	0x4463
 15062 4458 0D       		.uleb128 0xd
 15063 4459 6E070000 		.4byte	0x76e
 15064 445d 0D       		.uleb128 0xd
 15065 445e DA400000 		.4byte	0x40da
 15066 4462 00       		.byte	0
 15067 4463 51       		.uleb128 0x51
 15068 4464 10090000 		.4byte	.LASF497
 15069 4468 1F       		.byte	0x1f
 15070 4469 31       		.byte	0x31
 15071 446a 74440000 		.4byte	0x4474
 15072 446e 0D       		.uleb128 0xd
 15073 446f 74440000 		.4byte	0x4474
 15074 4473 00       		.byte	0
 15075 4474 0A       		.uleb128 0xa
 15076 4475 04       		.byte	0x4
 15077 4476 63130000 		.4byte	0x1363
 15078 447a 51       		.uleb128 0x51
 15079 447b 4B020000 		.4byte	.LASF498
 15080 447f 20       		.byte	0x20
 15081 4480 25       		.byte	0x25
 15082 4481 9A440000 		.4byte	0x449a
 15083 4485 0D       		.uleb128 0xd
ARM GAS  /tmp/ccy8OeyM.s 			page 266


 15084 4486 CA000000 		.4byte	0xca
 15085 448a 0D       		.uleb128 0xd
 15086 448b 68070000 		.4byte	0x768
 15087 448f 0D       		.uleb128 0xd
 15088 4490 B8000000 		.4byte	0xb8
 15089 4494 0D       		.uleb128 0xd
 15090 4495 9E0C0000 		.4byte	0xc9e
 15091 4499 00       		.byte	0
 15092 449a 51       		.uleb128 0x51
 15093 449b 1D190000 		.4byte	.LASF499
 15094 449f 15       		.byte	0x15
 15095 44a0 2C       		.byte	0x2c
 15096 44a1 AB440000 		.4byte	0x44ab
 15097 44a5 0D       		.uleb128 0xd
 15098 44a6 25000000 		.4byte	0x25
 15099 44aa 00       		.byte	0
 15100 44ab 54       		.uleb128 0x54
 15101 44ac 011D0000 		.4byte	.LASF500
 15102 44b0 1F       		.byte	0x1f
 15103 44b1 30       		.byte	0x30
 15104 44b2 25000000 		.4byte	0x25
 15105 44b6 54       		.uleb128 0x54
 15106 44b7 1F040000 		.4byte	.LASF501
 15107 44bb 1F       		.byte	0x1f
 15108 44bc 28       		.byte	0x28
 15109 44bd 25000000 		.4byte	0x25
 15110 44c1 54       		.uleb128 0x54
 15111 44c2 56210000 		.4byte	.LASF502
 15112 44c6 1F       		.byte	0x1f
 15113 44c7 29       		.byte	0x29
 15114 44c8 25000000 		.4byte	0x25
 15115 44cc 54       		.uleb128 0x54
 15116 44cd 41060000 		.4byte	.LASF503
 15117 44d1 1F       		.byte	0x1f
 15118 44d2 2A       		.byte	0x2a
 15119 44d3 25000000 		.4byte	0x25
 15120 44d7 54       		.uleb128 0x54
 15121 44d8 A8110000 		.4byte	.LASF504
 15122 44dc 1F       		.byte	0x1f
 15123 44dd 2B       		.byte	0x2b
 15124 44de 25000000 		.4byte	0x25
 15125 44e2 54       		.uleb128 0x54
 15126 44e3 53190000 		.4byte	.LASF505
 15127 44e7 21       		.byte	0x21
 15128 44e8 22       		.byte	0x22
 15129 44e9 9E0C0000 		.4byte	0xc9e
 15130 44ed 51       		.uleb128 0x51
 15131 44ee A7100000 		.4byte	.LASF506
 15132 44f2 22       		.byte	0x22
 15133 44f3 1F       		.byte	0x1f
 15134 44f4 FE440000 		.4byte	0x44fe
 15135 44f8 0D       		.uleb128 0xd
 15136 44f9 B4130000 		.4byte	0x13b4
 15137 44fd 00       		.byte	0
 15138 44fe 51       		.uleb128 0x51
 15139 44ff 94130000 		.4byte	.LASF507
 15140 4503 17       		.byte	0x17
ARM GAS  /tmp/ccy8OeyM.s 			page 267


 15141 4504 80       		.byte	0x80
 15142 4505 0F450000 		.4byte	0x450f
 15143 4509 0D       		.uleb128 0xd
 15144 450a 5D410000 		.4byte	0x415d
 15145 450e 00       		.byte	0
 15146 450f 50       		.uleb128 0x50
 15147 4510 ED030000 		.4byte	.LASF508
 15148 4514 17       		.byte	0x17
 15149 4515 84       		.byte	0x84
 15150 4516 9E0C0000 		.4byte	0xc9e
 15151 451a 24450000 		.4byte	0x4524
 15152 451e 0D       		.uleb128 0xd
 15153 451f 5D410000 		.4byte	0x415d
 15154 4523 00       		.byte	0
 15155 4524 51       		.uleb128 0x51
 15156 4525 CC150000 		.4byte	.LASF509
 15157 4529 16       		.byte	0x16
 15158 452a 84       		.byte	0x84
 15159 452b 3A450000 		.4byte	0x453a
 15160 452f 0D       		.uleb128 0xd
 15161 4530 A5020000 		.4byte	0x2a5
 15162 4534 0D       		.uleb128 0xd
 15163 4535 69010000 		.4byte	0x169
 15164 4539 00       		.byte	0
 15165 453a 50       		.uleb128 0x50
 15166 453b 83180000 		.4byte	.LASF510
 15167 453f 18       		.byte	0x18
 15168 4540 25       		.byte	0x25
 15169 4541 E0000000 		.4byte	0xe0
 15170 4545 54450000 		.4byte	0x4554
 15171 4549 0D       		.uleb128 0xd
 15172 454a 6E070000 		.4byte	0x76e
 15173 454e 0D       		.uleb128 0xd
 15174 454f DA400000 		.4byte	0x40da
 15175 4553 00       		.byte	0
 15176 4554 51       		.uleb128 0x51
 15177 4555 66130000 		.4byte	.LASF511
 15178 4559 15       		.byte	0x15
 15179 455a 47       		.byte	0x47
 15180 455b 6F450000 		.4byte	0x456f
 15181 455f 0D       		.uleb128 0xd
 15182 4560 9E0C0000 		.4byte	0xc9e
 15183 4564 0D       		.uleb128 0xd
 15184 4565 E0000000 		.4byte	0xe0
 15185 4569 0D       		.uleb128 0xd
 15186 456a CA000000 		.4byte	0xca
 15187 456e 00       		.byte	0
 15188 456f 54       		.uleb128 0x54
 15189 4570 C71C0000 		.4byte	.LASF512
 15190 4574 1F       		.byte	0x1f
 15191 4575 20       		.byte	0x20
 15192 4576 7A450000 		.4byte	0x457a
 15193 457a 0A       		.uleb128 0xa
 15194 457b 04       		.byte	0x4
 15195 457c 80450000 		.4byte	0x4580
 15196 4580 14       		.uleb128 0x14
 15197 4581 04120000 		.4byte	0x1204
ARM GAS  /tmp/ccy8OeyM.s 			page 268


 15198 4585 50       		.uleb128 0x50
 15199 4586 C61A0000 		.4byte	.LASF513
 15200 458a 17       		.byte	0x17
 15201 458b 82       		.byte	0x82
 15202 458c 9E0C0000 		.4byte	0xc9e
 15203 4590 9A450000 		.4byte	0x459a
 15204 4594 0D       		.uleb128 0xd
 15205 4595 37420000 		.4byte	0x4237
 15206 4599 00       		.byte	0
 15207 459a 51       		.uleb128 0x51
 15208 459b 6C0A0000 		.4byte	.LASF514
 15209 459f 1F       		.byte	0x1f
 15210 45a0 21       		.byte	0x21
 15211 45a1 AB450000 		.4byte	0x45ab
 15212 45a5 0D       		.uleb128 0xd
 15213 45a6 37420000 		.4byte	0x4237
 15214 45aa 00       		.byte	0
 15215 45ab 51       		.uleb128 0x51
 15216 45ac EE1E0000 		.4byte	.LASF515
 15217 45b0 1B       		.byte	0x1b
 15218 45b1 22       		.byte	0x22
 15219 45b2 C1450000 		.4byte	0x45c1
 15220 45b6 0D       		.uleb128 0xd
 15221 45b7 7F010000 		.4byte	0x17f
 15222 45bb 0D       		.uleb128 0xd
 15223 45bc 25000000 		.4byte	0x25
 15224 45c0 00       		.byte	0
 15225 45c1 55       		.uleb128 0x55
 15226 45c2 3C180000 		.4byte	.LASF516
 15227 45c6 15       		.byte	0x15
 15228 45c7 30       		.byte	0x30
 15229 45c8 50       		.uleb128 0x50
 15230 45c9 1F0F0000 		.4byte	.LASF517
 15231 45cd 23       		.byte	0x23
 15232 45ce 19       		.byte	0x19
 15233 45cf 82030000 		.4byte	0x382
 15234 45d3 E7450000 		.4byte	0x45e7
 15235 45d7 0D       		.uleb128 0xd
 15236 45d8 82030000 		.4byte	0x382
 15237 45dc 0D       		.uleb128 0xd
 15238 45dd 2C000000 		.4byte	0x2c
 15239 45e1 0D       		.uleb128 0xd
 15240 45e2 0C010000 		.4byte	0x10c
 15241 45e6 00       		.byte	0
 15242 45e7 57       		.uleb128 0x57
 15243 45e8 EA050000 		.4byte	.LASF518
 15244 45ec 24       		.byte	0x24
 15245 45ed 2F01     		.2byte	0x12f
 15246 45ef 2C000000 		.4byte	0x2c
 15247 45f3 0D       		.uleb128 0xd
 15248 45f4 B4130000 		.4byte	0x13b4
 15249 45f8 0D       		.uleb128 0xd
 15250 45f9 0C010000 		.4byte	0x10c
 15251 45fd 0D       		.uleb128 0xd
 15252 45fe 1A070000 		.4byte	0x71a
 15253 4602 0D       		.uleb128 0xd
 15254 4603 C8130000 		.4byte	0x13c8
ARM GAS  /tmp/ccy8OeyM.s 			page 269


 15255 4607 00       		.byte	0
 15256 4608 00       		.byte	0
 15257              		.section	.debug_abbrev,"",%progbits
 15258              	.Ldebug_abbrev0:
 15259 0000 01       		.uleb128 0x1
 15260 0001 11       		.uleb128 0x11
 15261 0002 01       		.byte	0x1
 15262 0003 25       		.uleb128 0x25
 15263 0004 0E       		.uleb128 0xe
 15264 0005 13       		.uleb128 0x13
 15265 0006 0B       		.uleb128 0xb
 15266 0007 03       		.uleb128 0x3
 15267 0008 0E       		.uleb128 0xe
 15268 0009 1B       		.uleb128 0x1b
 15269 000a 0E       		.uleb128 0xe
 15270 000b 55       		.uleb128 0x55
 15271 000c 17       		.uleb128 0x17
 15272 000d 11       		.uleb128 0x11
 15273 000e 01       		.uleb128 0x1
 15274 000f 10       		.uleb128 0x10
 15275 0010 17       		.uleb128 0x17
 15276 0011 00       		.byte	0
 15277 0012 00       		.byte	0
 15278 0013 02       		.uleb128 0x2
 15279 0014 24       		.uleb128 0x24
 15280 0015 00       		.byte	0
 15281 0016 0B       		.uleb128 0xb
 15282 0017 0B       		.uleb128 0xb
 15283 0018 3E       		.uleb128 0x3e
 15284 0019 0B       		.uleb128 0xb
 15285 001a 03       		.uleb128 0x3
 15286 001b 0E       		.uleb128 0xe
 15287 001c 00       		.byte	0
 15288 001d 00       		.byte	0
 15289 001e 03       		.uleb128 0x3
 15290 001f 24       		.uleb128 0x24
 15291 0020 00       		.byte	0
 15292 0021 0B       		.uleb128 0xb
 15293 0022 0B       		.uleb128 0xb
 15294 0023 3E       		.uleb128 0x3e
 15295 0024 0B       		.uleb128 0xb
 15296 0025 03       		.uleb128 0x3
 15297 0026 08       		.uleb128 0x8
 15298 0027 00       		.byte	0
 15299 0028 00       		.byte	0
 15300 0029 04       		.uleb128 0x4
 15301 002a 16       		.uleb128 0x16
 15302 002b 00       		.byte	0
 15303 002c 03       		.uleb128 0x3
 15304 002d 0E       		.uleb128 0xe
 15305 002e 3A       		.uleb128 0x3a
 15306 002f 0B       		.uleb128 0xb
 15307 0030 3B       		.uleb128 0x3b
 15308 0031 0B       		.uleb128 0xb
 15309 0032 49       		.uleb128 0x49
 15310 0033 13       		.uleb128 0x13
 15311 0034 00       		.byte	0
ARM GAS  /tmp/ccy8OeyM.s 			page 270


 15312 0035 00       		.byte	0
 15313 0036 05       		.uleb128 0x5
 15314 0037 35       		.uleb128 0x35
 15315 0038 00       		.byte	0
 15316 0039 49       		.uleb128 0x49
 15317 003a 13       		.uleb128 0x13
 15318 003b 00       		.byte	0
 15319 003c 00       		.byte	0
 15320 003d 06       		.uleb128 0x6
 15321 003e 13       		.uleb128 0x13
 15322 003f 01       		.byte	0x1
 15323 0040 03       		.uleb128 0x3
 15324 0041 0E       		.uleb128 0xe
 15325 0042 0B       		.uleb128 0xb
 15326 0043 0B       		.uleb128 0xb
 15327 0044 3A       		.uleb128 0x3a
 15328 0045 0B       		.uleb128 0xb
 15329 0046 3B       		.uleb128 0x3b
 15330 0047 0B       		.uleb128 0xb
 15331 0048 01       		.uleb128 0x1
 15332 0049 13       		.uleb128 0x13
 15333 004a 00       		.byte	0
 15334 004b 00       		.byte	0
 15335 004c 07       		.uleb128 0x7
 15336 004d 0D       		.uleb128 0xd
 15337 004e 00       		.byte	0
 15338 004f 03       		.uleb128 0x3
 15339 0050 0E       		.uleb128 0xe
 15340 0051 3A       		.uleb128 0x3a
 15341 0052 0B       		.uleb128 0xb
 15342 0053 3B       		.uleb128 0x3b
 15343 0054 0B       		.uleb128 0xb
 15344 0055 49       		.uleb128 0x49
 15345 0056 13       		.uleb128 0x13
 15346 0057 38       		.uleb128 0x38
 15347 0058 0B       		.uleb128 0xb
 15348 0059 00       		.byte	0
 15349 005a 00       		.byte	0
 15350 005b 08       		.uleb128 0x8
 15351 005c 0D       		.uleb128 0xd
 15352 005d 00       		.byte	0
 15353 005e 03       		.uleb128 0x3
 15354 005f 08       		.uleb128 0x8
 15355 0060 3A       		.uleb128 0x3a
 15356 0061 0B       		.uleb128 0xb
 15357 0062 3B       		.uleb128 0x3b
 15358 0063 05       		.uleb128 0x5
 15359 0064 49       		.uleb128 0x49
 15360 0065 13       		.uleb128 0x13
 15361 0066 38       		.uleb128 0x38
 15362 0067 0B       		.uleb128 0xb
 15363 0068 00       		.byte	0
 15364 0069 00       		.byte	0
 15365 006a 09       		.uleb128 0x9
 15366 006b 0D       		.uleb128 0xd
 15367 006c 00       		.byte	0
 15368 006d 03       		.uleb128 0x3
ARM GAS  /tmp/ccy8OeyM.s 			page 271


 15369 006e 0E       		.uleb128 0xe
 15370 006f 3A       		.uleb128 0x3a
 15371 0070 0B       		.uleb128 0xb
 15372 0071 3B       		.uleb128 0x3b
 15373 0072 05       		.uleb128 0x5
 15374 0073 49       		.uleb128 0x49
 15375 0074 13       		.uleb128 0x13
 15376 0075 38       		.uleb128 0x38
 15377 0076 0B       		.uleb128 0xb
 15378 0077 00       		.byte	0
 15379 0078 00       		.byte	0
 15380 0079 0A       		.uleb128 0xa
 15381 007a 0F       		.uleb128 0xf
 15382 007b 00       		.byte	0
 15383 007c 0B       		.uleb128 0xb
 15384 007d 0B       		.uleb128 0xb
 15385 007e 49       		.uleb128 0x49
 15386 007f 13       		.uleb128 0x13
 15387 0080 00       		.byte	0
 15388 0081 00       		.byte	0
 15389 0082 0B       		.uleb128 0xb
 15390 0083 13       		.uleb128 0x13
 15391 0084 01       		.byte	0x1
 15392 0085 03       		.uleb128 0x3
 15393 0086 0E       		.uleb128 0xe
 15394 0087 0B       		.uleb128 0xb
 15395 0088 0B       		.uleb128 0xb
 15396 0089 3A       		.uleb128 0x3a
 15397 008a 0B       		.uleb128 0xb
 15398 008b 3B       		.uleb128 0x3b
 15399 008c 05       		.uleb128 0x5
 15400 008d 01       		.uleb128 0x1
 15401 008e 13       		.uleb128 0x13
 15402 008f 00       		.byte	0
 15403 0090 00       		.byte	0
 15404 0091 0C       		.uleb128 0xc
 15405 0092 15       		.uleb128 0x15
 15406 0093 01       		.byte	0x1
 15407 0094 27       		.uleb128 0x27
 15408 0095 19       		.uleb128 0x19
 15409 0096 01       		.uleb128 0x1
 15410 0097 13       		.uleb128 0x13
 15411 0098 00       		.byte	0
 15412 0099 00       		.byte	0
 15413 009a 0D       		.uleb128 0xd
 15414 009b 05       		.uleb128 0x5
 15415 009c 00       		.byte	0
 15416 009d 49       		.uleb128 0x49
 15417 009e 13       		.uleb128 0x13
 15418 009f 00       		.byte	0
 15419 00a0 00       		.byte	0
 15420 00a1 0E       		.uleb128 0xe
 15421 00a2 0F       		.uleb128 0xf
 15422 00a3 00       		.byte	0
 15423 00a4 0B       		.uleb128 0xb
 15424 00a5 0B       		.uleb128 0xb
 15425 00a6 00       		.byte	0
ARM GAS  /tmp/ccy8OeyM.s 			page 272


 15426 00a7 00       		.byte	0
 15427 00a8 0F       		.uleb128 0xf
 15428 00a9 13       		.uleb128 0x13
 15429 00aa 01       		.byte	0x1
 15430 00ab 03       		.uleb128 0x3
 15431 00ac 0E       		.uleb128 0xe
 15432 00ad 0B       		.uleb128 0xb
 15433 00ae 05       		.uleb128 0x5
 15434 00af 3A       		.uleb128 0x3a
 15435 00b0 0B       		.uleb128 0xb
 15436 00b1 3B       		.uleb128 0x3b
 15437 00b2 05       		.uleb128 0x5
 15438 00b3 01       		.uleb128 0x1
 15439 00b4 13       		.uleb128 0x13
 15440 00b5 00       		.byte	0
 15441 00b6 00       		.byte	0
 15442 00b7 10       		.uleb128 0x10
 15443 00b8 0D       		.uleb128 0xd
 15444 00b9 00       		.byte	0
 15445 00ba 03       		.uleb128 0x3
 15446 00bb 08       		.uleb128 0x8
 15447 00bc 3A       		.uleb128 0x3a
 15448 00bd 0B       		.uleb128 0xb
 15449 00be 3B       		.uleb128 0x3b
 15450 00bf 0B       		.uleb128 0xb
 15451 00c0 49       		.uleb128 0x49
 15452 00c1 13       		.uleb128 0x13
 15453 00c2 38       		.uleb128 0x38
 15454 00c3 0B       		.uleb128 0xb
 15455 00c4 00       		.byte	0
 15456 00c5 00       		.byte	0
 15457 00c6 11       		.uleb128 0x11
 15458 00c7 13       		.uleb128 0x13
 15459 00c8 01       		.byte	0x1
 15460 00c9 0B       		.uleb128 0xb
 15461 00ca 0B       		.uleb128 0xb
 15462 00cb 3A       		.uleb128 0x3a
 15463 00cc 0B       		.uleb128 0xb
 15464 00cd 3B       		.uleb128 0x3b
 15465 00ce 0B       		.uleb128 0xb
 15466 00cf 01       		.uleb128 0x1
 15467 00d0 13       		.uleb128 0x13
 15468 00d1 00       		.byte	0
 15469 00d2 00       		.byte	0
 15470 00d3 12       		.uleb128 0x12
 15471 00d4 17       		.uleb128 0x17
 15472 00d5 01       		.byte	0x1
 15473 00d6 0B       		.uleb128 0xb
 15474 00d7 0B       		.uleb128 0xb
 15475 00d8 3A       		.uleb128 0x3a
 15476 00d9 0B       		.uleb128 0xb
 15477 00da 3B       		.uleb128 0x3b
 15478 00db 0B       		.uleb128 0xb
 15479 00dc 01       		.uleb128 0x1
 15480 00dd 13       		.uleb128 0x13
 15481 00de 00       		.byte	0
 15482 00df 00       		.byte	0
ARM GAS  /tmp/ccy8OeyM.s 			page 273


 15483 00e0 13       		.uleb128 0x13
 15484 00e1 0D       		.uleb128 0xd
 15485 00e2 00       		.byte	0
 15486 00e3 03       		.uleb128 0x3
 15487 00e4 0E       		.uleb128 0xe
 15488 00e5 3A       		.uleb128 0x3a
 15489 00e6 0B       		.uleb128 0xb
 15490 00e7 3B       		.uleb128 0x3b
 15491 00e8 05       		.uleb128 0x5
 15492 00e9 49       		.uleb128 0x49
 15493 00ea 13       		.uleb128 0x13
 15494 00eb 00       		.byte	0
 15495 00ec 00       		.byte	0
 15496 00ed 14       		.uleb128 0x14
 15497 00ee 26       		.uleb128 0x26
 15498 00ef 00       		.byte	0
 15499 00f0 49       		.uleb128 0x49
 15500 00f1 13       		.uleb128 0x13
 15501 00f2 00       		.byte	0
 15502 00f3 00       		.byte	0
 15503 00f4 15       		.uleb128 0x15
 15504 00f5 01       		.uleb128 0x1
 15505 00f6 01       		.byte	0x1
 15506 00f7 49       		.uleb128 0x49
 15507 00f8 13       		.uleb128 0x13
 15508 00f9 01       		.uleb128 0x1
 15509 00fa 13       		.uleb128 0x13
 15510 00fb 00       		.byte	0
 15511 00fc 00       		.byte	0
 15512 00fd 16       		.uleb128 0x16
 15513 00fe 21       		.uleb128 0x21
 15514 00ff 00       		.byte	0
 15515 0100 49       		.uleb128 0x49
 15516 0101 13       		.uleb128 0x13
 15517 0102 2F       		.uleb128 0x2f
 15518 0103 0B       		.uleb128 0xb
 15519 0104 00       		.byte	0
 15520 0105 00       		.byte	0
 15521 0106 17       		.uleb128 0x17
 15522 0107 04       		.uleb128 0x4
 15523 0108 01       		.byte	0x1
 15524 0109 0B       		.uleb128 0xb
 15525 010a 0B       		.uleb128 0xb
 15526 010b 3A       		.uleb128 0x3a
 15527 010c 0B       		.uleb128 0xb
 15528 010d 3B       		.uleb128 0x3b
 15529 010e 0B       		.uleb128 0xb
 15530 010f 01       		.uleb128 0x1
 15531 0110 13       		.uleb128 0x13
 15532 0111 00       		.byte	0
 15533 0112 00       		.byte	0
 15534 0113 18       		.uleb128 0x18
 15535 0114 28       		.uleb128 0x28
 15536 0115 00       		.byte	0
 15537 0116 03       		.uleb128 0x3
 15538 0117 0E       		.uleb128 0xe
 15539 0118 1C       		.uleb128 0x1c
ARM GAS  /tmp/ccy8OeyM.s 			page 274


 15540 0119 0D       		.uleb128 0xd
 15541 011a 00       		.byte	0
 15542 011b 00       		.byte	0
 15543 011c 19       		.uleb128 0x19
 15544 011d 13       		.uleb128 0x13
 15545 011e 01       		.byte	0x1
 15546 011f 0B       		.uleb128 0xb
 15547 0120 05       		.uleb128 0x5
 15548 0121 3A       		.uleb128 0x3a
 15549 0122 0B       		.uleb128 0xb
 15550 0123 3B       		.uleb128 0x3b
 15551 0124 0B       		.uleb128 0xb
 15552 0125 01       		.uleb128 0x1
 15553 0126 13       		.uleb128 0x13
 15554 0127 00       		.byte	0
 15555 0128 00       		.byte	0
 15556 0129 1A       		.uleb128 0x1a
 15557 012a 0D       		.uleb128 0xd
 15558 012b 00       		.byte	0
 15559 012c 03       		.uleb128 0x3
 15560 012d 0E       		.uleb128 0xe
 15561 012e 3A       		.uleb128 0x3a
 15562 012f 0B       		.uleb128 0xb
 15563 0130 3B       		.uleb128 0x3b
 15564 0131 0B       		.uleb128 0xb
 15565 0132 49       		.uleb128 0x49
 15566 0133 13       		.uleb128 0x13
 15567 0134 38       		.uleb128 0x38
 15568 0135 05       		.uleb128 0x5
 15569 0136 00       		.byte	0
 15570 0137 00       		.byte	0
 15571 0138 1B       		.uleb128 0x1b
 15572 0139 16       		.uleb128 0x16
 15573 013a 00       		.byte	0
 15574 013b 03       		.uleb128 0x3
 15575 013c 0E       		.uleb128 0xe
 15576 013d 3A       		.uleb128 0x3a
 15577 013e 0B       		.uleb128 0xb
 15578 013f 3B       		.uleb128 0x3b
 15579 0140 05       		.uleb128 0x5
 15580 0141 49       		.uleb128 0x49
 15581 0142 13       		.uleb128 0x13
 15582 0143 00       		.byte	0
 15583 0144 00       		.byte	0
 15584 0145 1C       		.uleb128 0x1c
 15585 0146 13       		.uleb128 0x13
 15586 0147 01       		.byte	0x1
 15587 0148 0B       		.uleb128 0xb
 15588 0149 0B       		.uleb128 0xb
 15589 014a 3A       		.uleb128 0x3a
 15590 014b 0B       		.uleb128 0xb
 15591 014c 3B       		.uleb128 0x3b
 15592 014d 05       		.uleb128 0x5
 15593 014e 01       		.uleb128 0x1
 15594 014f 13       		.uleb128 0x13
 15595 0150 00       		.byte	0
 15596 0151 00       		.byte	0
ARM GAS  /tmp/ccy8OeyM.s 			page 275


 15597 0152 1D       		.uleb128 0x1d
 15598 0153 04       		.uleb128 0x4
 15599 0154 01       		.byte	0x1
 15600 0155 0B       		.uleb128 0xb
 15601 0156 0B       		.uleb128 0xb
 15602 0157 3A       		.uleb128 0x3a
 15603 0158 0B       		.uleb128 0xb
 15604 0159 3B       		.uleb128 0x3b
 15605 015a 05       		.uleb128 0x5
 15606 015b 01       		.uleb128 0x1
 15607 015c 13       		.uleb128 0x13
 15608 015d 00       		.byte	0
 15609 015e 00       		.byte	0
 15610 015f 1E       		.uleb128 0x1e
 15611 0160 0D       		.uleb128 0xd
 15612 0161 00       		.byte	0
 15613 0162 03       		.uleb128 0x3
 15614 0163 0E       		.uleb128 0xe
 15615 0164 49       		.uleb128 0x49
 15616 0165 13       		.uleb128 0x13
 15617 0166 38       		.uleb128 0x38
 15618 0167 0B       		.uleb128 0xb
 15619 0168 34       		.uleb128 0x34
 15620 0169 19       		.uleb128 0x19
 15621 016a 00       		.byte	0
 15622 016b 00       		.byte	0
 15623 016c 1F       		.uleb128 0x1f
 15624 016d 2E       		.uleb128 0x2e
 15625 016e 01       		.byte	0x1
 15626 016f 03       		.uleb128 0x3
 15627 0170 0E       		.uleb128 0xe
 15628 0171 3A       		.uleb128 0x3a
 15629 0172 0B       		.uleb128 0xb
 15630 0173 3B       		.uleb128 0x3b
 15631 0174 0B       		.uleb128 0xb
 15632 0175 27       		.uleb128 0x27
 15633 0176 19       		.uleb128 0x19
 15634 0177 20       		.uleb128 0x20
 15635 0178 0B       		.uleb128 0xb
 15636 0179 01       		.uleb128 0x1
 15637 017a 13       		.uleb128 0x13
 15638 017b 00       		.byte	0
 15639 017c 00       		.byte	0
 15640 017d 20       		.uleb128 0x20
 15641 017e 05       		.uleb128 0x5
 15642 017f 00       		.byte	0
 15643 0180 03       		.uleb128 0x3
 15644 0181 0E       		.uleb128 0xe
 15645 0182 3A       		.uleb128 0x3a
 15646 0183 0B       		.uleb128 0xb
 15647 0184 3B       		.uleb128 0x3b
 15648 0185 0B       		.uleb128 0xb
 15649 0186 49       		.uleb128 0x49
 15650 0187 13       		.uleb128 0x13
 15651 0188 00       		.byte	0
 15652 0189 00       		.byte	0
 15653 018a 21       		.uleb128 0x21
ARM GAS  /tmp/ccy8OeyM.s 			page 276


 15654 018b 2E       		.uleb128 0x2e
 15655 018c 00       		.byte	0
 15656 018d 03       		.uleb128 0x3
 15657 018e 0E       		.uleb128 0xe
 15658 018f 3A       		.uleb128 0x3a
 15659 0190 0B       		.uleb128 0xb
 15660 0191 3B       		.uleb128 0x3b
 15661 0192 0B       		.uleb128 0xb
 15662 0193 27       		.uleb128 0x27
 15663 0194 19       		.uleb128 0x19
 15664 0195 49       		.uleb128 0x49
 15665 0196 13       		.uleb128 0x13
 15666 0197 20       		.uleb128 0x20
 15667 0198 0B       		.uleb128 0xb
 15668 0199 00       		.byte	0
 15669 019a 00       		.byte	0
 15670 019b 22       		.uleb128 0x22
 15671 019c 2E       		.uleb128 0x2e
 15672 019d 01       		.byte	0x1
 15673 019e 3F       		.uleb128 0x3f
 15674 019f 19       		.uleb128 0x19
 15675 01a0 03       		.uleb128 0x3
 15676 01a1 0E       		.uleb128 0xe
 15677 01a2 3A       		.uleb128 0x3a
 15678 01a3 0B       		.uleb128 0xb
 15679 01a4 3B       		.uleb128 0x3b
 15680 01a5 0B       		.uleb128 0xb
 15681 01a6 27       		.uleb128 0x27
 15682 01a7 19       		.uleb128 0x19
 15683 01a8 20       		.uleb128 0x20
 15684 01a9 0B       		.uleb128 0xb
 15685 01aa 01       		.uleb128 0x1
 15686 01ab 13       		.uleb128 0x13
 15687 01ac 00       		.byte	0
 15688 01ad 00       		.byte	0
 15689 01ae 23       		.uleb128 0x23
 15690 01af 05       		.uleb128 0x5
 15691 01b0 00       		.byte	0
 15692 01b1 03       		.uleb128 0x3
 15693 01b2 08       		.uleb128 0x8
 15694 01b3 3A       		.uleb128 0x3a
 15695 01b4 0B       		.uleb128 0xb
 15696 01b5 3B       		.uleb128 0x3b
 15697 01b6 0B       		.uleb128 0xb
 15698 01b7 49       		.uleb128 0x49
 15699 01b8 13       		.uleb128 0x13
 15700 01b9 00       		.byte	0
 15701 01ba 00       		.byte	0
 15702 01bb 24       		.uleb128 0x24
 15703 01bc 2E       		.uleb128 0x2e
 15704 01bd 00       		.byte	0
 15705 01be 03       		.uleb128 0x3
 15706 01bf 0E       		.uleb128 0xe
 15707 01c0 3A       		.uleb128 0x3a
 15708 01c1 0B       		.uleb128 0xb
 15709 01c2 3B       		.uleb128 0x3b
 15710 01c3 05       		.uleb128 0x5
ARM GAS  /tmp/ccy8OeyM.s 			page 277


 15711 01c4 27       		.uleb128 0x27
 15712 01c5 19       		.uleb128 0x19
 15713 01c6 20       		.uleb128 0x20
 15714 01c7 0B       		.uleb128 0xb
 15715 01c8 00       		.byte	0
 15716 01c9 00       		.byte	0
 15717 01ca 25       		.uleb128 0x25
 15718 01cb 2E       		.uleb128 0x2e
 15719 01cc 01       		.byte	0x1
 15720 01cd 03       		.uleb128 0x3
 15721 01ce 0E       		.uleb128 0xe
 15722 01cf 3A       		.uleb128 0x3a
 15723 01d0 0B       		.uleb128 0xb
 15724 01d1 3B       		.uleb128 0x3b
 15725 01d2 05       		.uleb128 0x5
 15726 01d3 27       		.uleb128 0x27
 15727 01d4 19       		.uleb128 0x19
 15728 01d5 11       		.uleb128 0x11
 15729 01d6 01       		.uleb128 0x1
 15730 01d7 12       		.uleb128 0x12
 15731 01d8 06       		.uleb128 0x6
 15732 01d9 40       		.uleb128 0x40
 15733 01da 18       		.uleb128 0x18
 15734 01db 9742     		.uleb128 0x2117
 15735 01dd 19       		.uleb128 0x19
 15736 01de 01       		.uleb128 0x1
 15737 01df 13       		.uleb128 0x13
 15738 01e0 00       		.byte	0
 15739 01e1 00       		.byte	0
 15740 01e2 26       		.uleb128 0x26
 15741 01e3 05       		.uleb128 0x5
 15742 01e4 00       		.byte	0
 15743 01e5 03       		.uleb128 0x3
 15744 01e6 08       		.uleb128 0x8
 15745 01e7 3A       		.uleb128 0x3a
 15746 01e8 0B       		.uleb128 0xb
 15747 01e9 3B       		.uleb128 0x3b
 15748 01ea 05       		.uleb128 0x5
 15749 01eb 49       		.uleb128 0x49
 15750 01ec 13       		.uleb128 0x13
 15751 01ed 02       		.uleb128 0x2
 15752 01ee 17       		.uleb128 0x17
 15753 01ef 00       		.byte	0
 15754 01f0 00       		.byte	0
 15755 01f1 27       		.uleb128 0x27
 15756 01f2 1D       		.uleb128 0x1d
 15757 01f3 01       		.byte	0x1
 15758 01f4 31       		.uleb128 0x31
 15759 01f5 13       		.uleb128 0x13
 15760 01f6 52       		.uleb128 0x52
 15761 01f7 01       		.uleb128 0x1
 15762 01f8 55       		.uleb128 0x55
 15763 01f9 17       		.uleb128 0x17
 15764 01fa 58       		.uleb128 0x58
 15765 01fb 0B       		.uleb128 0xb
 15766 01fc 59       		.uleb128 0x59
 15767 01fd 05       		.uleb128 0x5
ARM GAS  /tmp/ccy8OeyM.s 			page 278


 15768 01fe 01       		.uleb128 0x1
 15769 01ff 13       		.uleb128 0x13
 15770 0200 00       		.byte	0
 15771 0201 00       		.byte	0
 15772 0202 28       		.uleb128 0x28
 15773 0203 05       		.uleb128 0x5
 15774 0204 00       		.byte	0
 15775 0205 31       		.uleb128 0x31
 15776 0206 13       		.uleb128 0x13
 15777 0207 02       		.uleb128 0x2
 15778 0208 18       		.uleb128 0x18
 15779 0209 00       		.byte	0
 15780 020a 00       		.byte	0
 15781 020b 29       		.uleb128 0x29
 15782 020c 0B       		.uleb128 0xb
 15783 020d 01       		.byte	0x1
 15784 020e 55       		.uleb128 0x55
 15785 020f 17       		.uleb128 0x17
 15786 0210 00       		.byte	0
 15787 0211 00       		.byte	0
 15788 0212 2A       		.uleb128 0x2a
 15789 0213 34       		.uleb128 0x34
 15790 0214 00       		.byte	0
 15791 0215 03       		.uleb128 0x3
 15792 0216 08       		.uleb128 0x8
 15793 0217 3A       		.uleb128 0x3a
 15794 0218 0B       		.uleb128 0xb
 15795 0219 3B       		.uleb128 0x3b
 15796 021a 05       		.uleb128 0x5
 15797 021b 49       		.uleb128 0x49
 15798 021c 13       		.uleb128 0x13
 15799 021d 02       		.uleb128 0x2
 15800 021e 18       		.uleb128 0x18
 15801 021f 00       		.byte	0
 15802 0220 00       		.byte	0
 15803 0221 2B       		.uleb128 0x2b
 15804 0222 05       		.uleb128 0x5
 15805 0223 00       		.byte	0
 15806 0224 31       		.uleb128 0x31
 15807 0225 13       		.uleb128 0x13
 15808 0226 02       		.uleb128 0x2
 15809 0227 17       		.uleb128 0x17
 15810 0228 00       		.byte	0
 15811 0229 00       		.byte	0
 15812 022a 2C       		.uleb128 0x2c
 15813 022b 898201   		.uleb128 0x4109
 15814 022e 01       		.byte	0x1
 15815 022f 11       		.uleb128 0x11
 15816 0230 01       		.uleb128 0x1
 15817 0231 9342     		.uleb128 0x2113
 15818 0233 18       		.uleb128 0x18
 15819 0234 00       		.byte	0
 15820 0235 00       		.byte	0
 15821 0236 2D       		.uleb128 0x2d
 15822 0237 8A8201   		.uleb128 0x410a
 15823 023a 00       		.byte	0
 15824 023b 02       		.uleb128 0x2
ARM GAS  /tmp/ccy8OeyM.s 			page 279


 15825 023c 18       		.uleb128 0x18
 15826 023d 9142     		.uleb128 0x2111
 15827 023f 18       		.uleb128 0x18
 15828 0240 00       		.byte	0
 15829 0241 00       		.byte	0
 15830 0242 2E       		.uleb128 0x2e
 15831 0243 898201   		.uleb128 0x4109
 15832 0246 01       		.byte	0x1
 15833 0247 11       		.uleb128 0x11
 15834 0248 01       		.uleb128 0x1
 15835 0249 31       		.uleb128 0x31
 15836 024a 13       		.uleb128 0x13
 15837 024b 01       		.uleb128 0x1
 15838 024c 13       		.uleb128 0x13
 15839 024d 00       		.byte	0
 15840 024e 00       		.byte	0
 15841 024f 2F       		.uleb128 0x2f
 15842 0250 898201   		.uleb128 0x4109
 15843 0253 01       		.byte	0x1
 15844 0254 11       		.uleb128 0x11
 15845 0255 01       		.uleb128 0x1
 15846 0256 31       		.uleb128 0x31
 15847 0257 13       		.uleb128 0x13
 15848 0258 00       		.byte	0
 15849 0259 00       		.byte	0
 15850 025a 30       		.uleb128 0x30
 15851 025b 2E       		.uleb128 0x2e
 15852 025c 01       		.byte	0x1
 15853 025d 3F       		.uleb128 0x3f
 15854 025e 19       		.uleb128 0x19
 15855 025f 03       		.uleb128 0x3
 15856 0260 0E       		.uleb128 0xe
 15857 0261 3A       		.uleb128 0x3a
 15858 0262 0B       		.uleb128 0xb
 15859 0263 3B       		.uleb128 0x3b
 15860 0264 0B       		.uleb128 0xb
 15861 0265 27       		.uleb128 0x27
 15862 0266 19       		.uleb128 0x19
 15863 0267 11       		.uleb128 0x11
 15864 0268 01       		.uleb128 0x1
 15865 0269 12       		.uleb128 0x12
 15866 026a 06       		.uleb128 0x6
 15867 026b 40       		.uleb128 0x40
 15868 026c 18       		.uleb128 0x18
 15869 026d 9742     		.uleb128 0x2117
 15870 026f 19       		.uleb128 0x19
 15871 0270 01       		.uleb128 0x1
 15872 0271 13       		.uleb128 0x13
 15873 0272 00       		.byte	0
 15874 0273 00       		.byte	0
 15875 0274 31       		.uleb128 0x31
 15876 0275 05       		.uleb128 0x5
 15877 0276 00       		.byte	0
 15878 0277 03       		.uleb128 0x3
 15879 0278 0E       		.uleb128 0xe
 15880 0279 3A       		.uleb128 0x3a
 15881 027a 0B       		.uleb128 0xb
ARM GAS  /tmp/ccy8OeyM.s 			page 280


 15882 027b 3B       		.uleb128 0x3b
 15883 027c 0B       		.uleb128 0xb
 15884 027d 49       		.uleb128 0x49
 15885 027e 13       		.uleb128 0x13
 15886 027f 02       		.uleb128 0x2
 15887 0280 18       		.uleb128 0x18
 15888 0281 00       		.byte	0
 15889 0282 00       		.byte	0
 15890 0283 32       		.uleb128 0x32
 15891 0284 2E       		.uleb128 0x2e
 15892 0285 01       		.byte	0x1
 15893 0286 31       		.uleb128 0x31
 15894 0287 13       		.uleb128 0x13
 15895 0288 11       		.uleb128 0x11
 15896 0289 01       		.uleb128 0x1
 15897 028a 12       		.uleb128 0x12
 15898 028b 06       		.uleb128 0x6
 15899 028c 40       		.uleb128 0x40
 15900 028d 18       		.uleb128 0x18
 15901 028e 9742     		.uleb128 0x2117
 15902 0290 19       		.uleb128 0x19
 15903 0291 01       		.uleb128 0x1
 15904 0292 13       		.uleb128 0x13
 15905 0293 00       		.byte	0
 15906 0294 00       		.byte	0
 15907 0295 33       		.uleb128 0x33
 15908 0296 898201   		.uleb128 0x4109
 15909 0299 01       		.byte	0x1
 15910 029a 11       		.uleb128 0x11
 15911 029b 01       		.uleb128 0x1
 15912 029c 9542     		.uleb128 0x2115
 15913 029e 19       		.uleb128 0x19
 15914 029f 00       		.byte	0
 15915 02a0 00       		.byte	0
 15916 02a1 34       		.uleb128 0x34
 15917 02a2 2E       		.uleb128 0x2e
 15918 02a3 01       		.byte	0x1
 15919 02a4 3F       		.uleb128 0x3f
 15920 02a5 19       		.uleb128 0x19
 15921 02a6 03       		.uleb128 0x3
 15922 02a7 0E       		.uleb128 0xe
 15923 02a8 3A       		.uleb128 0x3a
 15924 02a9 0B       		.uleb128 0xb
 15925 02aa 3B       		.uleb128 0x3b
 15926 02ab 0B       		.uleb128 0xb
 15927 02ac 27       		.uleb128 0x27
 15928 02ad 19       		.uleb128 0x19
 15929 02ae 11       		.uleb128 0x11
 15930 02af 01       		.uleb128 0x1
 15931 02b0 12       		.uleb128 0x12
 15932 02b1 06       		.uleb128 0x6
 15933 02b2 40       		.uleb128 0x40
 15934 02b3 18       		.uleb128 0x18
 15935 02b4 9642     		.uleb128 0x2116
 15936 02b6 19       		.uleb128 0x19
 15937 02b7 01       		.uleb128 0x1
 15938 02b8 13       		.uleb128 0x13
ARM GAS  /tmp/ccy8OeyM.s 			page 281


 15939 02b9 00       		.byte	0
 15940 02ba 00       		.byte	0
 15941 02bb 35       		.uleb128 0x35
 15942 02bc 05       		.uleb128 0x5
 15943 02bd 00       		.byte	0
 15944 02be 03       		.uleb128 0x3
 15945 02bf 0E       		.uleb128 0xe
 15946 02c0 3A       		.uleb128 0x3a
 15947 02c1 0B       		.uleb128 0xb
 15948 02c2 3B       		.uleb128 0x3b
 15949 02c3 0B       		.uleb128 0xb
 15950 02c4 49       		.uleb128 0x49
 15951 02c5 13       		.uleb128 0x13
 15952 02c6 02       		.uleb128 0x2
 15953 02c7 17       		.uleb128 0x17
 15954 02c8 00       		.byte	0
 15955 02c9 00       		.byte	0
 15956 02ca 36       		.uleb128 0x36
 15957 02cb 05       		.uleb128 0x5
 15958 02cc 00       		.byte	0
 15959 02cd 03       		.uleb128 0x3
 15960 02ce 08       		.uleb128 0x8
 15961 02cf 3A       		.uleb128 0x3a
 15962 02d0 0B       		.uleb128 0xb
 15963 02d1 3B       		.uleb128 0x3b
 15964 02d2 0B       		.uleb128 0xb
 15965 02d3 49       		.uleb128 0x49
 15966 02d4 13       		.uleb128 0x13
 15967 02d5 02       		.uleb128 0x2
 15968 02d6 17       		.uleb128 0x17
 15969 02d7 00       		.byte	0
 15970 02d8 00       		.byte	0
 15971 02d9 37       		.uleb128 0x37
 15972 02da 34       		.uleb128 0x34
 15973 02db 00       		.byte	0
 15974 02dc 03       		.uleb128 0x3
 15975 02dd 0E       		.uleb128 0xe
 15976 02de 3A       		.uleb128 0x3a
 15977 02df 0B       		.uleb128 0xb
 15978 02e0 3B       		.uleb128 0x3b
 15979 02e1 0B       		.uleb128 0xb
 15980 02e2 49       		.uleb128 0x49
 15981 02e3 13       		.uleb128 0x13
 15982 02e4 02       		.uleb128 0x2
 15983 02e5 17       		.uleb128 0x17
 15984 02e6 00       		.byte	0
 15985 02e7 00       		.byte	0
 15986 02e8 38       		.uleb128 0x38
 15987 02e9 34       		.uleb128 0x34
 15988 02ea 00       		.byte	0
 15989 02eb 03       		.uleb128 0x3
 15990 02ec 08       		.uleb128 0x8
 15991 02ed 3A       		.uleb128 0x3a
 15992 02ee 0B       		.uleb128 0xb
 15993 02ef 3B       		.uleb128 0x3b
 15994 02f0 0B       		.uleb128 0xb
 15995 02f1 49       		.uleb128 0x49
ARM GAS  /tmp/ccy8OeyM.s 			page 282


 15996 02f2 13       		.uleb128 0x13
 15997 02f3 02       		.uleb128 0x2
 15998 02f4 17       		.uleb128 0x17
 15999 02f5 00       		.byte	0
 16000 02f6 00       		.byte	0
 16001 02f7 39       		.uleb128 0x39
 16002 02f8 34       		.uleb128 0x34
 16003 02f9 00       		.byte	0
 16004 02fa 03       		.uleb128 0x3
 16005 02fb 0E       		.uleb128 0xe
 16006 02fc 3A       		.uleb128 0x3a
 16007 02fd 0B       		.uleb128 0xb
 16008 02fe 3B       		.uleb128 0x3b
 16009 02ff 0B       		.uleb128 0xb
 16010 0300 49       		.uleb128 0x49
 16011 0301 13       		.uleb128 0x13
 16012 0302 02       		.uleb128 0x2
 16013 0303 18       		.uleb128 0x18
 16014 0304 00       		.byte	0
 16015 0305 00       		.byte	0
 16016 0306 3A       		.uleb128 0x3a
 16017 0307 898201   		.uleb128 0x4109
 16018 030a 01       		.byte	0x1
 16019 030b 11       		.uleb128 0x11
 16020 030c 01       		.uleb128 0x1
 16021 030d 00       		.byte	0
 16022 030e 00       		.byte	0
 16023 030f 3B       		.uleb128 0x3b
 16024 0310 1D       		.uleb128 0x1d
 16025 0311 01       		.byte	0x1
 16026 0312 31       		.uleb128 0x31
 16027 0313 13       		.uleb128 0x13
 16028 0314 52       		.uleb128 0x52
 16029 0315 01       		.uleb128 0x1
 16030 0316 55       		.uleb128 0x55
 16031 0317 17       		.uleb128 0x17
 16032 0318 58       		.uleb128 0x58
 16033 0319 0B       		.uleb128 0xb
 16034 031a 59       		.uleb128 0x59
 16035 031b 0B       		.uleb128 0xb
 16036 031c 01       		.uleb128 0x1
 16037 031d 13       		.uleb128 0x13
 16038 031e 00       		.byte	0
 16039 031f 00       		.byte	0
 16040 0320 3C       		.uleb128 0x3c
 16041 0321 1D       		.uleb128 0x1d
 16042 0322 00       		.byte	0
 16043 0323 31       		.uleb128 0x31
 16044 0324 13       		.uleb128 0x13
 16045 0325 11       		.uleb128 0x11
 16046 0326 01       		.uleb128 0x1
 16047 0327 12       		.uleb128 0x12
 16048 0328 06       		.uleb128 0x6
 16049 0329 58       		.uleb128 0x58
 16050 032a 0B       		.uleb128 0xb
 16051 032b 59       		.uleb128 0x59
 16052 032c 05       		.uleb128 0x5
ARM GAS  /tmp/ccy8OeyM.s 			page 283


 16053 032d 00       		.byte	0
 16054 032e 00       		.byte	0
 16055 032f 3D       		.uleb128 0x3d
 16056 0330 0B       		.uleb128 0xb
 16057 0331 01       		.byte	0x1
 16058 0332 11       		.uleb128 0x11
 16059 0333 01       		.uleb128 0x1
 16060 0334 12       		.uleb128 0x12
 16061 0335 06       		.uleb128 0x6
 16062 0336 01       		.uleb128 0x1
 16063 0337 13       		.uleb128 0x13
 16064 0338 00       		.byte	0
 16065 0339 00       		.byte	0
 16066 033a 3E       		.uleb128 0x3e
 16067 033b 34       		.uleb128 0x34
 16068 033c 00       		.byte	0
 16069 033d 03       		.uleb128 0x3
 16070 033e 0E       		.uleb128 0xe
 16071 033f 3A       		.uleb128 0x3a
 16072 0340 0B       		.uleb128 0xb
 16073 0341 3B       		.uleb128 0x3b
 16074 0342 05       		.uleb128 0x5
 16075 0343 49       		.uleb128 0x49
 16076 0344 13       		.uleb128 0x13
 16077 0345 02       		.uleb128 0x2
 16078 0346 17       		.uleb128 0x17
 16079 0347 00       		.byte	0
 16080 0348 00       		.byte	0
 16081 0349 3F       		.uleb128 0x3f
 16082 034a 34       		.uleb128 0x34
 16083 034b 00       		.byte	0
 16084 034c 03       		.uleb128 0x3
 16085 034d 0E       		.uleb128 0xe
 16086 034e 3A       		.uleb128 0x3a
 16087 034f 0B       		.uleb128 0xb
 16088 0350 3B       		.uleb128 0x3b
 16089 0351 05       		.uleb128 0x5
 16090 0352 49       		.uleb128 0x49
 16091 0353 13       		.uleb128 0x13
 16092 0354 02       		.uleb128 0x2
 16093 0355 18       		.uleb128 0x18
 16094 0356 00       		.byte	0
 16095 0357 00       		.byte	0
 16096 0358 40       		.uleb128 0x40
 16097 0359 34       		.uleb128 0x34
 16098 035a 00       		.byte	0
 16099 035b 03       		.uleb128 0x3
 16100 035c 08       		.uleb128 0x8
 16101 035d 3A       		.uleb128 0x3a
 16102 035e 0B       		.uleb128 0xb
 16103 035f 3B       		.uleb128 0x3b
 16104 0360 05       		.uleb128 0x5
 16105 0361 49       		.uleb128 0x49
 16106 0362 13       		.uleb128 0x13
 16107 0363 02       		.uleb128 0x2
 16108 0364 17       		.uleb128 0x17
 16109 0365 00       		.byte	0
ARM GAS  /tmp/ccy8OeyM.s 			page 284


 16110 0366 00       		.byte	0
 16111 0367 41       		.uleb128 0x41
 16112 0368 898201   		.uleb128 0x4109
 16113 036b 00       		.byte	0
 16114 036c 11       		.uleb128 0x11
 16115 036d 01       		.uleb128 0x1
 16116 036e 31       		.uleb128 0x31
 16117 036f 13       		.uleb128 0x13
 16118 0370 00       		.byte	0
 16119 0371 00       		.byte	0
 16120 0372 42       		.uleb128 0x42
 16121 0373 2E       		.uleb128 0x2e
 16122 0374 01       		.byte	0x1
 16123 0375 3F       		.uleb128 0x3f
 16124 0376 19       		.uleb128 0x19
 16125 0377 03       		.uleb128 0x3
 16126 0378 0E       		.uleb128 0xe
 16127 0379 3A       		.uleb128 0x3a
 16128 037a 0B       		.uleb128 0xb
 16129 037b 3B       		.uleb128 0x3b
 16130 037c 05       		.uleb128 0x5
 16131 037d 27       		.uleb128 0x27
 16132 037e 19       		.uleb128 0x19
 16133 037f 11       		.uleb128 0x11
 16134 0380 01       		.uleb128 0x1
 16135 0381 12       		.uleb128 0x12
 16136 0382 06       		.uleb128 0x6
 16137 0383 40       		.uleb128 0x40
 16138 0384 18       		.uleb128 0x18
 16139 0385 9742     		.uleb128 0x2117
 16140 0387 19       		.uleb128 0x19
 16141 0388 01       		.uleb128 0x1
 16142 0389 13       		.uleb128 0x13
 16143 038a 00       		.byte	0
 16144 038b 00       		.byte	0
 16145 038c 43       		.uleb128 0x43
 16146 038d 05       		.uleb128 0x5
 16147 038e 00       		.byte	0
 16148 038f 03       		.uleb128 0x3
 16149 0390 0E       		.uleb128 0xe
 16150 0391 3A       		.uleb128 0x3a
 16151 0392 0B       		.uleb128 0xb
 16152 0393 3B       		.uleb128 0x3b
 16153 0394 05       		.uleb128 0x5
 16154 0395 49       		.uleb128 0x49
 16155 0396 13       		.uleb128 0x13
 16156 0397 02       		.uleb128 0x2
 16157 0398 18       		.uleb128 0x18
 16158 0399 00       		.byte	0
 16159 039a 00       		.byte	0
 16160 039b 44       		.uleb128 0x44
 16161 039c 18       		.uleb128 0x18
 16162 039d 00       		.byte	0
 16163 039e 00       		.byte	0
 16164 039f 00       		.byte	0
 16165 03a0 45       		.uleb128 0x45
 16166 03a1 05       		.uleb128 0x5
ARM GAS  /tmp/ccy8OeyM.s 			page 285


 16167 03a2 00       		.byte	0
 16168 03a3 03       		.uleb128 0x3
 16169 03a4 0E       		.uleb128 0xe
 16170 03a5 3A       		.uleb128 0x3a
 16171 03a6 0B       		.uleb128 0xb
 16172 03a7 3B       		.uleb128 0x3b
 16173 03a8 05       		.uleb128 0x5
 16174 03a9 49       		.uleb128 0x49
 16175 03aa 13       		.uleb128 0x13
 16176 03ab 02       		.uleb128 0x2
 16177 03ac 17       		.uleb128 0x17
 16178 03ad 00       		.byte	0
 16179 03ae 00       		.byte	0
 16180 03af 46       		.uleb128 0x46
 16181 03b0 34       		.uleb128 0x34
 16182 03b1 00       		.byte	0
 16183 03b2 34       		.uleb128 0x34
 16184 03b3 19       		.uleb128 0x19
 16185 03b4 49       		.uleb128 0x49
 16186 03b5 13       		.uleb128 0x13
 16187 03b6 02       		.uleb128 0x2
 16188 03b7 17       		.uleb128 0x17
 16189 03b8 00       		.byte	0
 16190 03b9 00       		.byte	0
 16191 03ba 47       		.uleb128 0x47
 16192 03bb 0B       		.uleb128 0xb
 16193 03bc 01       		.byte	0x1
 16194 03bd 55       		.uleb128 0x55
 16195 03be 17       		.uleb128 0x17
 16196 03bf 01       		.uleb128 0x1
 16197 03c0 13       		.uleb128 0x13
 16198 03c1 00       		.byte	0
 16199 03c2 00       		.byte	0
 16200 03c3 48       		.uleb128 0x48
 16201 03c4 1D       		.uleb128 0x1d
 16202 03c5 01       		.byte	0x1
 16203 03c6 31       		.uleb128 0x31
 16204 03c7 13       		.uleb128 0x13
 16205 03c8 11       		.uleb128 0x11
 16206 03c9 01       		.uleb128 0x1
 16207 03ca 12       		.uleb128 0x12
 16208 03cb 06       		.uleb128 0x6
 16209 03cc 58       		.uleb128 0x58
 16210 03cd 0B       		.uleb128 0xb
 16211 03ce 59       		.uleb128 0x59
 16212 03cf 05       		.uleb128 0x5
 16213 03d0 00       		.byte	0
 16214 03d1 00       		.byte	0
 16215 03d2 49       		.uleb128 0x49
 16216 03d3 21       		.uleb128 0x21
 16217 03d4 00       		.byte	0
 16218 03d5 49       		.uleb128 0x49
 16219 03d6 13       		.uleb128 0x13
 16220 03d7 2F       		.uleb128 0x2f
 16221 03d8 13       		.uleb128 0x13
 16222 03d9 00       		.byte	0
 16223 03da 00       		.byte	0
ARM GAS  /tmp/ccy8OeyM.s 			page 286


 16224 03db 4A       		.uleb128 0x4a
 16225 03dc 2E       		.uleb128 0x2e
 16226 03dd 00       		.byte	0
 16227 03de 3F       		.uleb128 0x3f
 16228 03df 19       		.uleb128 0x19
 16229 03e0 03       		.uleb128 0x3
 16230 03e1 0E       		.uleb128 0xe
 16231 03e2 3A       		.uleb128 0x3a
 16232 03e3 0B       		.uleb128 0xb
 16233 03e4 3B       		.uleb128 0x3b
 16234 03e5 05       		.uleb128 0x5
 16235 03e6 27       		.uleb128 0x27
 16236 03e7 19       		.uleb128 0x19
 16237 03e8 49       		.uleb128 0x49
 16238 03e9 13       		.uleb128 0x13
 16239 03ea 11       		.uleb128 0x11
 16240 03eb 01       		.uleb128 0x1
 16241 03ec 12       		.uleb128 0x12
 16242 03ed 06       		.uleb128 0x6
 16243 03ee 40       		.uleb128 0x40
 16244 03ef 18       		.uleb128 0x18
 16245 03f0 9742     		.uleb128 0x2117
 16246 03f2 19       		.uleb128 0x19
 16247 03f3 00       		.byte	0
 16248 03f4 00       		.byte	0
 16249 03f5 4B       		.uleb128 0x4b
 16250 03f6 21       		.uleb128 0x21
 16251 03f7 00       		.byte	0
 16252 03f8 49       		.uleb128 0x49
 16253 03f9 13       		.uleb128 0x13
 16254 03fa 2F       		.uleb128 0x2f
 16255 03fb 05       		.uleb128 0x5
 16256 03fc 00       		.byte	0
 16257 03fd 00       		.byte	0
 16258 03fe 4C       		.uleb128 0x4c
 16259 03ff 34       		.uleb128 0x34
 16260 0400 00       		.byte	0
 16261 0401 03       		.uleb128 0x3
 16262 0402 0E       		.uleb128 0xe
 16263 0403 3A       		.uleb128 0x3a
 16264 0404 0B       		.uleb128 0xb
 16265 0405 3B       		.uleb128 0x3b
 16266 0406 05       		.uleb128 0x5
 16267 0407 49       		.uleb128 0x49
 16268 0408 13       		.uleb128 0x13
 16269 0409 3F       		.uleb128 0x3f
 16270 040a 19       		.uleb128 0x19
 16271 040b 3C       		.uleb128 0x3c
 16272 040c 19       		.uleb128 0x19
 16273 040d 00       		.byte	0
 16274 040e 00       		.byte	0
 16275 040f 4D       		.uleb128 0x4d
 16276 0410 34       		.uleb128 0x34
 16277 0411 00       		.byte	0
 16278 0412 03       		.uleb128 0x3
 16279 0413 08       		.uleb128 0x8
 16280 0414 3A       		.uleb128 0x3a
ARM GAS  /tmp/ccy8OeyM.s 			page 287


 16281 0415 0B       		.uleb128 0xb
 16282 0416 3B       		.uleb128 0x3b
 16283 0417 05       		.uleb128 0x5
 16284 0418 49       		.uleb128 0x49
 16285 0419 13       		.uleb128 0x13
 16286 041a 3F       		.uleb128 0x3f
 16287 041b 19       		.uleb128 0x19
 16288 041c 3C       		.uleb128 0x3c
 16289 041d 19       		.uleb128 0x19
 16290 041e 00       		.byte	0
 16291 041f 00       		.byte	0
 16292 0420 4E       		.uleb128 0x4e
 16293 0421 21       		.uleb128 0x21
 16294 0422 00       		.byte	0
 16295 0423 00       		.byte	0
 16296 0424 00       		.byte	0
 16297 0425 4F       		.uleb128 0x4f
 16298 0426 34       		.uleb128 0x34
 16299 0427 00       		.byte	0
 16300 0428 03       		.uleb128 0x3
 16301 0429 0E       		.uleb128 0xe
 16302 042a 3A       		.uleb128 0x3a
 16303 042b 0B       		.uleb128 0xb
 16304 042c 3B       		.uleb128 0x3b
 16305 042d 0B       		.uleb128 0xb
 16306 042e 49       		.uleb128 0x49
 16307 042f 13       		.uleb128 0x13
 16308 0430 3F       		.uleb128 0x3f
 16309 0431 19       		.uleb128 0x19
 16310 0432 3C       		.uleb128 0x3c
 16311 0433 19       		.uleb128 0x19
 16312 0434 00       		.byte	0
 16313 0435 00       		.byte	0
 16314 0436 50       		.uleb128 0x50
 16315 0437 2E       		.uleb128 0x2e
 16316 0438 01       		.byte	0x1
 16317 0439 3F       		.uleb128 0x3f
 16318 043a 19       		.uleb128 0x19
 16319 043b 03       		.uleb128 0x3
 16320 043c 0E       		.uleb128 0xe
 16321 043d 3A       		.uleb128 0x3a
 16322 043e 0B       		.uleb128 0xb
 16323 043f 3B       		.uleb128 0x3b
 16324 0440 0B       		.uleb128 0xb
 16325 0441 27       		.uleb128 0x27
 16326 0442 19       		.uleb128 0x19
 16327 0443 49       		.uleb128 0x49
 16328 0444 13       		.uleb128 0x13
 16329 0445 3C       		.uleb128 0x3c
 16330 0446 19       		.uleb128 0x19
 16331 0447 01       		.uleb128 0x1
 16332 0448 13       		.uleb128 0x13
 16333 0449 00       		.byte	0
 16334 044a 00       		.byte	0
 16335 044b 51       		.uleb128 0x51
 16336 044c 2E       		.uleb128 0x2e
 16337 044d 01       		.byte	0x1
ARM GAS  /tmp/ccy8OeyM.s 			page 288


 16338 044e 3F       		.uleb128 0x3f
 16339 044f 19       		.uleb128 0x19
 16340 0450 03       		.uleb128 0x3
 16341 0451 0E       		.uleb128 0xe
 16342 0452 3A       		.uleb128 0x3a
 16343 0453 0B       		.uleb128 0xb
 16344 0454 3B       		.uleb128 0x3b
 16345 0455 0B       		.uleb128 0xb
 16346 0456 27       		.uleb128 0x27
 16347 0457 19       		.uleb128 0x19
 16348 0458 3C       		.uleb128 0x3c
 16349 0459 19       		.uleb128 0x19
 16350 045a 01       		.uleb128 0x1
 16351 045b 13       		.uleb128 0x13
 16352 045c 00       		.byte	0
 16353 045d 00       		.byte	0
 16354 045e 52       		.uleb128 0x52
 16355 045f 2E       		.uleb128 0x2e
 16356 0460 01       		.byte	0x1
 16357 0461 3F       		.uleb128 0x3f
 16358 0462 19       		.uleb128 0x19
 16359 0463 03       		.uleb128 0x3
 16360 0464 0E       		.uleb128 0xe
 16361 0465 27       		.uleb128 0x27
 16362 0466 19       		.uleb128 0x19
 16363 0467 49       		.uleb128 0x49
 16364 0468 13       		.uleb128 0x13
 16365 0469 34       		.uleb128 0x34
 16366 046a 19       		.uleb128 0x19
 16367 046b 3C       		.uleb128 0x3c
 16368 046c 19       		.uleb128 0x19
 16369 046d 01       		.uleb128 0x1
 16370 046e 13       		.uleb128 0x13
 16371 046f 00       		.byte	0
 16372 0470 00       		.byte	0
 16373 0471 53       		.uleb128 0x53
 16374 0472 26       		.uleb128 0x26
 16375 0473 00       		.byte	0
 16376 0474 00       		.byte	0
 16377 0475 00       		.byte	0
 16378 0476 54       		.uleb128 0x54
 16379 0477 2E       		.uleb128 0x2e
 16380 0478 00       		.byte	0
 16381 0479 3F       		.uleb128 0x3f
 16382 047a 19       		.uleb128 0x19
 16383 047b 03       		.uleb128 0x3
 16384 047c 0E       		.uleb128 0xe
 16385 047d 3A       		.uleb128 0x3a
 16386 047e 0B       		.uleb128 0xb
 16387 047f 3B       		.uleb128 0x3b
 16388 0480 0B       		.uleb128 0xb
 16389 0481 27       		.uleb128 0x27
 16390 0482 19       		.uleb128 0x19
 16391 0483 49       		.uleb128 0x49
 16392 0484 13       		.uleb128 0x13
 16393 0485 3C       		.uleb128 0x3c
 16394 0486 19       		.uleb128 0x19
ARM GAS  /tmp/ccy8OeyM.s 			page 289


 16395 0487 00       		.byte	0
 16396 0488 00       		.byte	0
 16397 0489 55       		.uleb128 0x55
 16398 048a 2E       		.uleb128 0x2e
 16399 048b 00       		.byte	0
 16400 048c 3F       		.uleb128 0x3f
 16401 048d 19       		.uleb128 0x19
 16402 048e 03       		.uleb128 0x3
 16403 048f 0E       		.uleb128 0xe
 16404 0490 3A       		.uleb128 0x3a
 16405 0491 0B       		.uleb128 0xb
 16406 0492 3B       		.uleb128 0x3b
 16407 0493 0B       		.uleb128 0xb
 16408 0494 27       		.uleb128 0x27
 16409 0495 19       		.uleb128 0x19
 16410 0496 3C       		.uleb128 0x3c
 16411 0497 19       		.uleb128 0x19
 16412 0498 00       		.byte	0
 16413 0499 00       		.byte	0
 16414 049a 56       		.uleb128 0x56
 16415 049b 2E       		.uleb128 0x2e
 16416 049c 01       		.byte	0x1
 16417 049d 3F       		.uleb128 0x3f
 16418 049e 19       		.uleb128 0x19
 16419 049f 03       		.uleb128 0x3
 16420 04a0 0E       		.uleb128 0xe
 16421 04a1 3A       		.uleb128 0x3a
 16422 04a2 0B       		.uleb128 0xb
 16423 04a3 3B       		.uleb128 0x3b
 16424 04a4 05       		.uleb128 0x5
 16425 04a5 27       		.uleb128 0x27
 16426 04a6 19       		.uleb128 0x19
 16427 04a7 49       		.uleb128 0x49
 16428 04a8 13       		.uleb128 0x13
 16429 04a9 3C       		.uleb128 0x3c
 16430 04aa 19       		.uleb128 0x19
 16431 04ab 01       		.uleb128 0x1
 16432 04ac 13       		.uleb128 0x13
 16433 04ad 00       		.byte	0
 16434 04ae 00       		.byte	0
 16435 04af 57       		.uleb128 0x57
 16436 04b0 2E       		.uleb128 0x2e
 16437 04b1 01       		.byte	0x1
 16438 04b2 3F       		.uleb128 0x3f
 16439 04b3 19       		.uleb128 0x19
 16440 04b4 03       		.uleb128 0x3
 16441 04b5 0E       		.uleb128 0xe
 16442 04b6 3A       		.uleb128 0x3a
 16443 04b7 0B       		.uleb128 0xb
 16444 04b8 3B       		.uleb128 0x3b
 16445 04b9 05       		.uleb128 0x5
 16446 04ba 27       		.uleb128 0x27
 16447 04bb 19       		.uleb128 0x19
 16448 04bc 49       		.uleb128 0x49
 16449 04bd 13       		.uleb128 0x13
 16450 04be 3C       		.uleb128 0x3c
 16451 04bf 19       		.uleb128 0x19
ARM GAS  /tmp/ccy8OeyM.s 			page 290


 16452 04c0 00       		.byte	0
 16453 04c1 00       		.byte	0
 16454 04c2 00       		.byte	0
 16455              		.section	.debug_loc,"",%progbits
 16456              	.Ldebug_loc0:
 16457              	.LLST0:
 16458 0000 00000000 		.4byte	.LVL0
 16459 0004 34000000 		.4byte	.LVL1
 16460 0008 0100     		.2byte	0x1
 16461 000a 50       		.byte	0x50
 16462 000b 34000000 		.4byte	.LVL1
 16463 000f 00010000 		.4byte	.LFE267
 16464 0013 0400     		.2byte	0x4
 16465 0015 F3       		.byte	0xf3
 16466 0016 01       		.uleb128 0x1
 16467 0017 50       		.byte	0x50
 16468 0018 9F       		.byte	0x9f
 16469 0019 00000000 		.4byte	0
 16470 001d 00000000 		.4byte	0
 16471              	.LLST1:
 16472 0021 B4000000 		.4byte	.LVL6
 16473 0025 B9000000 		.4byte	.LVL7-1
 16474 0029 0100     		.2byte	0x1
 16475 002b 51       		.byte	0x51
 16476 002c 00000000 		.4byte	0
 16477 0030 00000000 		.4byte	0
 16478              	.LLST2:
 16479 0034 B4000000 		.4byte	.LVL6
 16480 0038 BC000000 		.4byte	.LVL8
 16481 003c 0600     		.2byte	0x6
 16482 003e 03       		.byte	0x3
 16483 003f 00000000 		.4byte	send_buffer
 16484 0043 9F       		.byte	0x9f
 16485 0044 00000000 		.4byte	0
 16486 0048 00000000 		.4byte	0
 16487              	.LLST3:
 16488 004c 00000000 		.4byte	.LVL11
 16489 0050 07000000 		.4byte	.LVL12-1
 16490 0054 0100     		.2byte	0x1
 16491 0056 50       		.byte	0x50
 16492 0057 07000000 		.4byte	.LVL12-1
 16493 005b 08000000 		.4byte	.LVL12
 16494 005f 0400     		.2byte	0x4
 16495 0061 F3       		.byte	0xf3
 16496 0062 01       		.uleb128 0x1
 16497 0063 50       		.byte	0x50
 16498 0064 9F       		.byte	0x9f
 16499 0065 08000000 		.4byte	.LVL12
 16500 0069 10000000 		.4byte	.LFE258
 16501 006d 0100     		.2byte	0x1
 16502 006f 50       		.byte	0x50
 16503 0070 00000000 		.4byte	0
 16504 0074 00000000 		.4byte	0
 16505              	.LLST4:
 16506 0078 00000000 		.4byte	.LVL11
 16507 007c 07000000 		.4byte	.LVL12-1
 16508 0080 0100     		.2byte	0x1
ARM GAS  /tmp/ccy8OeyM.s 			page 291


 16509 0082 51       		.byte	0x51
 16510 0083 07000000 		.4byte	.LVL12-1
 16511 0087 08000000 		.4byte	.LVL12
 16512 008b 0400     		.2byte	0x4
 16513 008d F3       		.byte	0xf3
 16514 008e 01       		.uleb128 0x1
 16515 008f 51       		.byte	0x51
 16516 0090 9F       		.byte	0x9f
 16517 0091 08000000 		.4byte	.LVL12
 16518 0095 10000000 		.4byte	.LFE258
 16519 0099 0100     		.2byte	0x1
 16520 009b 51       		.byte	0x51
 16521 009c 00000000 		.4byte	0
 16522 00a0 00000000 		.4byte	0
 16523              	.LLST5:
 16524 00a4 00000000 		.4byte	.LVL13
 16525 00a8 12000000 		.4byte	.LVL14
 16526 00ac 0100     		.2byte	0x1
 16527 00ae 50       		.byte	0x50
 16528 00af 12000000 		.4byte	.LVL14
 16529 00b3 6E000000 		.4byte	.LVL16
 16530 00b7 0100     		.2byte	0x1
 16531 00b9 54       		.byte	0x54
 16532 00ba 6E000000 		.4byte	.LVL16
 16533 00be 70000000 		.4byte	.LVL17
 16534 00c2 0100     		.2byte	0x1
 16535 00c4 50       		.byte	0x50
 16536 00c5 70000000 		.4byte	.LVL17
 16537 00c9 80000000 		.4byte	.LVL19
 16538 00cd 0100     		.2byte	0x1
 16539 00cf 54       		.byte	0x54
 16540 00d0 80000000 		.4byte	.LVL19
 16541 00d4 28020000 		.4byte	.LVL34
 16542 00d8 0300     		.2byte	0x3
 16543 00da 77       		.byte	0x77
 16544 00db 01       		.sleb128 1
 16545 00dc 9F       		.byte	0x9f
 16546 00dd 28020000 		.4byte	.LVL34
 16547 00e1 98030000 		.4byte	.LVL50
 16548 00e5 0600     		.2byte	0x6
 16549 00e7 F3       		.byte	0xf3
 16550 00e8 01       		.uleb128 0x1
 16551 00e9 50       		.byte	0x50
 16552 00ea 23       		.byte	0x23
 16553 00eb 01       		.uleb128 0x1
 16554 00ec 9F       		.byte	0x9f
 16555 00ed 98030000 		.4byte	.LVL50
 16556 00f1 9E030000 		.4byte	.LVL52
 16557 00f5 0100     		.2byte	0x1
 16558 00f7 54       		.byte	0x54
 16559 00f8 9E030000 		.4byte	.LVL52
 16560 00fc E0030000 		.4byte	.LVL56
 16561 0100 0300     		.2byte	0x3
 16562 0102 77       		.byte	0x77
 16563 0103 01       		.sleb128 1
 16564 0104 9F       		.byte	0x9f
 16565 0105 E0030000 		.4byte	.LVL56
ARM GAS  /tmp/ccy8OeyM.s 			page 292


 16566 0109 E4030000 		.4byte	.LVL58
 16567 010d 0100     		.2byte	0x1
 16568 010f 54       		.byte	0x54
 16569 0110 E4030000 		.4byte	.LVL58
 16570 0114 EE030000 		.4byte	.LVL59
 16571 0118 0300     		.2byte	0x3
 16572 011a 70       		.byte	0x70
 16573 011b 01       		.sleb128 1
 16574 011c 9F       		.byte	0x9f
 16575 011d EE030000 		.4byte	.LVL59
 16576 0121 30040000 		.4byte	.LVL65
 16577 0125 0300     		.2byte	0x3
 16578 0127 77       		.byte	0x77
 16579 0128 01       		.sleb128 1
 16580 0129 9F       		.byte	0x9f
 16581 012a 30040000 		.4byte	.LVL65
 16582 012e 3E040000 		.4byte	.LVL67
 16583 0132 0600     		.2byte	0x6
 16584 0134 F3       		.byte	0xf3
 16585 0135 01       		.uleb128 0x1
 16586 0136 50       		.byte	0x50
 16587 0137 23       		.byte	0x23
 16588 0138 01       		.uleb128 0x1
 16589 0139 9F       		.byte	0x9f
 16590 013a 3E040000 		.4byte	.LVL67
 16591 013e CC040000 		.4byte	.LVL80
 16592 0142 0100     		.2byte	0x1
 16593 0144 54       		.byte	0x54
 16594 0145 CC040000 		.4byte	.LVL80
 16595 0149 01050000 		.4byte	.LVL82-1
 16596 014d 0300     		.2byte	0x3
 16597 014f 70       		.byte	0x70
 16598 0150 01       		.sleb128 1
 16599 0151 9F       		.byte	0x9f
 16600 0152 01050000 		.4byte	.LVL82-1
 16601 0156 90070000 		.4byte	.LVL119
 16602 015a 0300     		.2byte	0x3
 16603 015c 77       		.byte	0x77
 16604 015d 01       		.sleb128 1
 16605 015e 9F       		.byte	0x9f
 16606 015f 90070000 		.4byte	.LVL119
 16607 0163 AE070000 		.4byte	.LVL123
 16608 0167 0100     		.2byte	0x1
 16609 0169 54       		.byte	0x54
 16610 016a AE070000 		.4byte	.LVL123
 16611 016e C8070000 		.4byte	.LVL127
 16612 0172 0300     		.2byte	0x3
 16613 0174 77       		.byte	0x77
 16614 0175 01       		.sleb128 1
 16615 0176 9F       		.byte	0x9f
 16616 0177 C8070000 		.4byte	.LVL127
 16617 017b 02080000 		.4byte	.LVL135
 16618 017f 0100     		.2byte	0x1
 16619 0181 54       		.byte	0x54
 16620 0182 02080000 		.4byte	.LVL135
 16621 0186 14080000 		.4byte	.LVL138
 16622 018a 0300     		.2byte	0x3
ARM GAS  /tmp/ccy8OeyM.s 			page 293


 16623 018c 77       		.byte	0x77
 16624 018d 01       		.sleb128 1
 16625 018e 9F       		.byte	0x9f
 16626 018f 14080000 		.4byte	.LVL138
 16627 0193 18080000 		.4byte	.LVL140
 16628 0197 0600     		.2byte	0x6
 16629 0199 F3       		.byte	0xf3
 16630 019a 01       		.uleb128 0x1
 16631 019b 50       		.byte	0x50
 16632 019c 23       		.byte	0x23
 16633 019d 01       		.uleb128 0x1
 16634 019e 9F       		.byte	0x9f
 16635 019f 18080000 		.4byte	.LVL140
 16636 01a3 A6080000 		.4byte	.LVL152
 16637 01a7 0100     		.2byte	0x1
 16638 01a9 54       		.byte	0x54
 16639 01aa A6080000 		.4byte	.LVL152
 16640 01ae B3080000 		.4byte	.LVL153-1
 16641 01b2 0300     		.2byte	0x3
 16642 01b4 70       		.byte	0x70
 16643 01b5 01       		.sleb128 1
 16644 01b6 9F       		.byte	0x9f
 16645 01b7 B3080000 		.4byte	.LVL153-1
 16646 01bb BE080000 		.4byte	.LVL154
 16647 01bf 0300     		.2byte	0x3
 16648 01c1 77       		.byte	0x77
 16649 01c2 01       		.sleb128 1
 16650 01c3 9F       		.byte	0x9f
 16651 01c4 BE080000 		.4byte	.LVL154
 16652 01c8 C2080000 		.4byte	.LVL156
 16653 01cc 0100     		.2byte	0x1
 16654 01ce 54       		.byte	0x54
 16655 01cf C2080000 		.4byte	.LVL156
 16656 01d3 D3080000 		.4byte	.LVL157-1
 16657 01d7 0300     		.2byte	0x3
 16658 01d9 70       		.byte	0x70
 16659 01da 01       		.sleb128 1
 16660 01db 9F       		.byte	0x9f
 16661 01dc D3080000 		.4byte	.LVL157-1
 16662 01e0 22090000 		.4byte	.LVL164
 16663 01e4 0300     		.2byte	0x3
 16664 01e6 77       		.byte	0x77
 16665 01e7 01       		.sleb128 1
 16666 01e8 9F       		.byte	0x9f
 16667 01e9 22090000 		.4byte	.LVL164
 16668 01ed 8C090000 		.4byte	.LVL173
 16669 01f1 0100     		.2byte	0x1
 16670 01f3 54       		.byte	0x54
 16671 01f4 8C090000 		.4byte	.LVL173
 16672 01f8 C0090000 		.4byte	.LVL178
 16673 01fc 0300     		.2byte	0x3
 16674 01fe 77       		.byte	0x77
 16675 01ff 01       		.sleb128 1
 16676 0200 9F       		.byte	0x9f
 16677 0201 C0090000 		.4byte	.LVL178
 16678 0205 200A0000 		.4byte	.LVL187
 16679 0209 0100     		.2byte	0x1
ARM GAS  /tmp/ccy8OeyM.s 			page 294


 16680 020b 54       		.byte	0x54
 16681 020c 200A0000 		.4byte	.LVL187
 16682 0210 B40A0000 		.4byte	.LVL196
 16683 0214 0600     		.2byte	0x6
 16684 0216 F3       		.byte	0xf3
 16685 0217 01       		.uleb128 0x1
 16686 0218 50       		.byte	0x50
 16687 0219 23       		.byte	0x23
 16688 021a 01       		.uleb128 0x1
 16689 021b 9F       		.byte	0x9f
 16690 021c B40A0000 		.4byte	.LVL196
 16691 0220 1A0B0000 		.4byte	.LVL210
 16692 0224 0100     		.2byte	0x1
 16693 0226 54       		.byte	0x54
 16694 0227 1A0B0000 		.4byte	.LVL210
 16695 022b 3C0B0000 		.4byte	.LVL215
 16696 022f 0300     		.2byte	0x3
 16697 0231 77       		.byte	0x77
 16698 0232 01       		.sleb128 1
 16699 0233 9F       		.byte	0x9f
 16700 0234 3C0B0000 		.4byte	.LVL215
 16701 0238 420B0000 		.4byte	.LVL217
 16702 023c 0100     		.2byte	0x1
 16703 023e 54       		.byte	0x54
 16704 023f 420B0000 		.4byte	.LVL217
 16705 0243 BA0B0000 		.4byte	.LVL227
 16706 0247 0300     		.2byte	0x3
 16707 0249 77       		.byte	0x77
 16708 024a 01       		.sleb128 1
 16709 024b 9F       		.byte	0x9f
 16710 024c BA0B0000 		.4byte	.LVL227
 16711 0250 020C0000 		.4byte	.LVL231
 16712 0254 0100     		.2byte	0x1
 16713 0256 54       		.byte	0x54
 16714 0257 020C0000 		.4byte	.LVL231
 16715 025b 1E0C0000 		.4byte	.LVL232
 16716 025f 0300     		.2byte	0x3
 16717 0261 77       		.byte	0x77
 16718 0262 01       		.sleb128 1
 16719 0263 9F       		.byte	0x9f
 16720 0264 1E0C0000 		.4byte	.LVL232
 16721 0268 D0110000 		.4byte	.LVL299
 16722 026c 0600     		.2byte	0x6
 16723 026e F3       		.byte	0xf3
 16724 026f 01       		.uleb128 0x1
 16725 0270 50       		.byte	0x50
 16726 0271 23       		.byte	0x23
 16727 0272 01       		.uleb128 0x1
 16728 0273 9F       		.byte	0x9f
 16729 0274 D0110000 		.4byte	.LVL299
 16730 0278 321B0000 		.4byte	.LVL411
 16731 027c 0100     		.2byte	0x1
 16732 027e 54       		.byte	0x54
 16733 027f 321B0000 		.4byte	.LVL411
 16734 0283 901B0000 		.4byte	.LVL416
 16735 0287 0600     		.2byte	0x6
 16736 0289 F3       		.byte	0xf3
ARM GAS  /tmp/ccy8OeyM.s 			page 295


 16737 028a 01       		.uleb128 0x1
 16738 028b 50       		.byte	0x50
 16739 028c 23       		.byte	0x23
 16740 028d 01       		.uleb128 0x1
 16741 028e 9F       		.byte	0x9f
 16742 028f 901B0000 		.4byte	.LVL416
 16743 0293 981B0000 		.4byte	.LVL417
 16744 0297 0300     		.2byte	0x3
 16745 0299 77       		.byte	0x77
 16746 029a 01       		.sleb128 1
 16747 029b 9F       		.byte	0x9f
 16748 029c 981B0000 		.4byte	.LVL417
 16749 02a0 B21B0000 		.4byte	.LVL421
 16750 02a4 0100     		.2byte	0x1
 16751 02a6 54       		.byte	0x54
 16752 02a7 B21B0000 		.4byte	.LVL421
 16753 02ab BA1B0000 		.4byte	.LVL423
 16754 02af 0300     		.2byte	0x3
 16755 02b1 77       		.byte	0x77
 16756 02b2 01       		.sleb128 1
 16757 02b3 9F       		.byte	0x9f
 16758 02b4 BA1B0000 		.4byte	.LVL423
 16759 02b8 EC1B0000 		.4byte	.LVL430
 16760 02bc 0100     		.2byte	0x1
 16761 02be 54       		.byte	0x54
 16762 02bf EC1B0000 		.4byte	.LVL430
 16763 02c3 401C0000 		.4byte	.LFE259
 16764 02c7 0300     		.2byte	0x3
 16765 02c9 77       		.byte	0x77
 16766 02ca 01       		.sleb128 1
 16767 02cb 9F       		.byte	0x9f
 16768 02cc 00000000 		.4byte	0
 16769 02d0 00000000 		.4byte	0
 16770              	.LLST6:
 16771 02d4 00000000 		.4byte	.LVL13
 16772 02d8 1A000000 		.4byte	.LVL15
 16773 02dc 0100     		.2byte	0x1
 16774 02de 51       		.byte	0x51
 16775 02df 1A000000 		.4byte	.LVL15
 16776 02e3 6E000000 		.4byte	.LVL16
 16777 02e7 0100     		.2byte	0x1
 16778 02e9 55       		.byte	0x55
 16779 02ea 6E000000 		.4byte	.LVL16
 16780 02ee 70000000 		.4byte	.LVL17
 16781 02f2 0100     		.2byte	0x1
 16782 02f4 51       		.byte	0x51
 16783 02f5 70000000 		.4byte	.LVL17
 16784 02f9 84000000 		.4byte	.LVL20
 16785 02fd 0100     		.2byte	0x1
 16786 02ff 55       		.byte	0x55
 16787 0300 84000000 		.4byte	.LVL20
 16788 0304 98030000 		.4byte	.LVL50
 16789 0308 0600     		.2byte	0x6
 16790 030a F3       		.byte	0xf3
 16791 030b 01       		.uleb128 0x1
 16792 030c 51       		.byte	0x51
 16793 030d 31       		.byte	0x31
ARM GAS  /tmp/ccy8OeyM.s 			page 296


 16794 030e 1C       		.byte	0x1c
 16795 030f 9F       		.byte	0x9f
 16796 0310 98030000 		.4byte	.LVL50
 16797 0314 E2030000 		.4byte	.LVL57
 16798 0318 0100     		.2byte	0x1
 16799 031a 55       		.byte	0x55
 16800 031b E2030000 		.4byte	.LVL57
 16801 031f F7030000 		.4byte	.LVL60-1
 16802 0323 0300     		.2byte	0x3
 16803 0325 71       		.byte	0x71
 16804 0326 7F       		.sleb128 -1
 16805 0327 9F       		.byte	0x9f
 16806 0328 F7030000 		.4byte	.LVL60-1
 16807 032c 3E040000 		.4byte	.LVL67
 16808 0330 0600     		.2byte	0x6
 16809 0332 F3       		.byte	0xf3
 16810 0333 01       		.uleb128 0x1
 16811 0334 51       		.byte	0x51
 16812 0335 31       		.byte	0x31
 16813 0336 1C       		.byte	0x1c
 16814 0337 9F       		.byte	0x9f
 16815 0338 3E040000 		.4byte	.LVL67
 16816 033c E4040000 		.4byte	.LVL81
 16817 0340 0100     		.2byte	0x1
 16818 0342 55       		.byte	0x55
 16819 0343 E4040000 		.4byte	.LVL81
 16820 0347 01050000 		.4byte	.LVL82-1
 16821 034b 0300     		.2byte	0x3
 16822 034d 71       		.byte	0x71
 16823 034e 7F       		.sleb128 -1
 16824 034f 9F       		.byte	0x9f
 16825 0350 01050000 		.4byte	.LVL82-1
 16826 0354 90070000 		.4byte	.LVL119
 16827 0358 0600     		.2byte	0x6
 16828 035a F3       		.byte	0xf3
 16829 035b 01       		.uleb128 0x1
 16830 035c 51       		.byte	0x51
 16831 035d 31       		.byte	0x31
 16832 035e 1C       		.byte	0x1c
 16833 035f 9F       		.byte	0x9f
 16834 0360 90070000 		.4byte	.LVL119
 16835 0364 00080000 		.4byte	.LVL134
 16836 0368 0100     		.2byte	0x1
 16837 036a 55       		.byte	0x55
 16838 036b 00080000 		.4byte	.LVL134
 16839 036f 06080000 		.4byte	.LVL136
 16840 0373 0300     		.2byte	0x3
 16841 0375 71       		.byte	0x71
 16842 0376 7F       		.sleb128 -1
 16843 0377 9F       		.byte	0x9f
 16844 0378 06080000 		.4byte	.LVL136
 16845 037c 18080000 		.4byte	.LVL140
 16846 0380 0600     		.2byte	0x6
 16847 0382 F3       		.byte	0xf3
 16848 0383 01       		.uleb128 0x1
 16849 0384 51       		.byte	0x51
 16850 0385 31       		.byte	0x31
ARM GAS  /tmp/ccy8OeyM.s 			page 297


 16851 0386 1C       		.byte	0x1c
 16852 0387 9F       		.byte	0x9f
 16853 0388 18080000 		.4byte	.LVL140
 16854 038c 42080000 		.4byte	.LVL141
 16855 0390 0100     		.2byte	0x1
 16856 0392 55       		.byte	0x55
 16857 0393 42080000 		.4byte	.LVL141
 16858 0397 72080000 		.4byte	.LVL146
 16859 039b 0600     		.2byte	0x6
 16860 039d F3       		.byte	0xf3
 16861 039e 01       		.uleb128 0x1
 16862 039f 51       		.byte	0x51
 16863 03a0 31       		.byte	0x31
 16864 03a1 1C       		.byte	0x1c
 16865 03a2 9F       		.byte	0x9f
 16866 03a3 72080000 		.4byte	.LVL146
 16867 03a7 A4080000 		.4byte	.LVL151
 16868 03ab 0100     		.2byte	0x1
 16869 03ad 55       		.byte	0x55
 16870 03ae A4080000 		.4byte	.LVL151
 16871 03b2 B3080000 		.4byte	.LVL153-1
 16872 03b6 0300     		.2byte	0x3
 16873 03b8 71       		.byte	0x71
 16874 03b9 7F       		.sleb128 -1
 16875 03ba 9F       		.byte	0x9f
 16876 03bb B3080000 		.4byte	.LVL153-1
 16877 03bf BE080000 		.4byte	.LVL154
 16878 03c3 0600     		.2byte	0x6
 16879 03c5 F3       		.byte	0xf3
 16880 03c6 01       		.uleb128 0x1
 16881 03c7 51       		.byte	0x51
 16882 03c8 31       		.byte	0x31
 16883 03c9 1C       		.byte	0x1c
 16884 03ca 9F       		.byte	0x9f
 16885 03cb BE080000 		.4byte	.LVL154
 16886 03cf C0080000 		.4byte	.LVL155
 16887 03d3 0100     		.2byte	0x1
 16888 03d5 55       		.byte	0x55
 16889 03d6 C0080000 		.4byte	.LVL155
 16890 03da D3080000 		.4byte	.LVL157-1
 16891 03de 0300     		.2byte	0x3
 16892 03e0 71       		.byte	0x71
 16893 03e1 7F       		.sleb128 -1
 16894 03e2 9F       		.byte	0x9f
 16895 03e3 D3080000 		.4byte	.LVL157-1
 16896 03e7 22090000 		.4byte	.LVL164
 16897 03eb 0600     		.2byte	0x6
 16898 03ed F3       		.byte	0xf3
 16899 03ee 01       		.uleb128 0x1
 16900 03ef 51       		.byte	0x51
 16901 03f0 31       		.byte	0x31
 16902 03f1 1C       		.byte	0x1c
 16903 03f2 9F       		.byte	0x9f
 16904 03f3 22090000 		.4byte	.LVL164
 16905 03f7 2C090000 		.4byte	.LVL166
 16906 03fb 0100     		.2byte	0x1
 16907 03fd 55       		.byte	0x55
ARM GAS  /tmp/ccy8OeyM.s 			page 298


 16908 03fe 2C090000 		.4byte	.LVL166
 16909 0402 C0090000 		.4byte	.LVL178
 16910 0406 0600     		.2byte	0x6
 16911 0408 F3       		.byte	0xf3
 16912 0409 01       		.uleb128 0x1
 16913 040a 51       		.byte	0x51
 16914 040b 31       		.byte	0x31
 16915 040c 1C       		.byte	0x1c
 16916 040d 9F       		.byte	0x9f
 16917 040e C0090000 		.4byte	.LVL178
 16918 0412 D2090000 		.4byte	.LVL181
 16919 0416 0100     		.2byte	0x1
 16920 0418 55       		.byte	0x55
 16921 0419 D2090000 		.4byte	.LVL181
 16922 041d B40A0000 		.4byte	.LVL196
 16923 0421 0600     		.2byte	0x6
 16924 0423 F3       		.byte	0xf3
 16925 0424 01       		.uleb128 0x1
 16926 0425 51       		.byte	0x51
 16927 0426 31       		.byte	0x31
 16928 0427 1C       		.byte	0x1c
 16929 0428 9F       		.byte	0x9f
 16930 0429 B40A0000 		.4byte	.LVL196
 16931 042d 2A0B0000 		.4byte	.LVL212
 16932 0431 0100     		.2byte	0x1
 16933 0433 55       		.byte	0x55
 16934 0434 2A0B0000 		.4byte	.LVL212
 16935 0438 3C0B0000 		.4byte	.LVL215
 16936 043c 0600     		.2byte	0x6
 16937 043e F3       		.byte	0xf3
 16938 043f 01       		.uleb128 0x1
 16939 0440 51       		.byte	0x51
 16940 0441 31       		.byte	0x31
 16941 0442 1C       		.byte	0x1c
 16942 0443 9F       		.byte	0x9f
 16943 0444 3C0B0000 		.4byte	.LVL215
 16944 0448 940B0000 		.4byte	.LVL224
 16945 044c 0100     		.2byte	0x1
 16946 044e 55       		.byte	0x55
 16947 044f 940B0000 		.4byte	.LVL224
 16948 0453 BA0B0000 		.4byte	.LVL227
 16949 0457 0600     		.2byte	0x6
 16950 0459 F3       		.byte	0xf3
 16951 045a 01       		.uleb128 0x1
 16952 045b 51       		.byte	0x51
 16953 045c 31       		.byte	0x31
 16954 045d 1C       		.byte	0x1c
 16955 045e 9F       		.byte	0x9f
 16956 045f BA0B0000 		.4byte	.LVL227
 16957 0463 F80B0000 		.4byte	.LVL230
 16958 0467 0100     		.2byte	0x1
 16959 0469 55       		.byte	0x55
 16960 046a F80B0000 		.4byte	.LVL230
 16961 046e D0110000 		.4byte	.LVL299
 16962 0472 0600     		.2byte	0x6
 16963 0474 F3       		.byte	0xf3
 16964 0475 01       		.uleb128 0x1
ARM GAS  /tmp/ccy8OeyM.s 			page 299


 16965 0476 51       		.byte	0x51
 16966 0477 31       		.byte	0x31
 16967 0478 1C       		.byte	0x1c
 16968 0479 9F       		.byte	0x9f
 16969 047a D0110000 		.4byte	.LVL299
 16970 047e D6110000 		.4byte	.LVL301
 16971 0482 0100     		.2byte	0x1
 16972 0484 55       		.byte	0x55
 16973 0485 D6110000 		.4byte	.LVL301
 16974 0489 62170000 		.4byte	.LVL370
 16975 048d 0600     		.2byte	0x6
 16976 048f F3       		.byte	0xf3
 16977 0490 01       		.uleb128 0x1
 16978 0491 51       		.byte	0x51
 16979 0492 31       		.byte	0x31
 16980 0493 1C       		.byte	0x1c
 16981 0494 9F       		.byte	0x9f
 16982 0495 62170000 		.4byte	.LVL370
 16983 0499 AA170000 		.4byte	.LVL375
 16984 049d 0100     		.2byte	0x1
 16985 049f 55       		.byte	0x55
 16986 04a0 AA170000 		.4byte	.LVL375
 16987 04a4 EC170000 		.4byte	.LVL381
 16988 04a8 0600     		.2byte	0x6
 16989 04aa F3       		.byte	0xf3
 16990 04ab 01       		.uleb128 0x1
 16991 04ac 51       		.byte	0x51
 16992 04ad 31       		.byte	0x31
 16993 04ae 1C       		.byte	0x1c
 16994 04af 9F       		.byte	0x9f
 16995 04b0 EC170000 		.4byte	.LVL381
 16996 04b4 FC170000 		.4byte	.LVL384
 16997 04b8 0100     		.2byte	0x1
 16998 04ba 55       		.byte	0x55
 16999 04bb FC170000 		.4byte	.LVL384
 17000 04bf 901B0000 		.4byte	.LVL416
 17001 04c3 0600     		.2byte	0x6
 17002 04c5 F3       		.byte	0xf3
 17003 04c6 01       		.uleb128 0x1
 17004 04c7 51       		.byte	0x51
 17005 04c8 31       		.byte	0x31
 17006 04c9 1C       		.byte	0x1c
 17007 04ca 9F       		.byte	0x9f
 17008 04cb 901B0000 		.4byte	.LVL416
 17009 04cf CE1B0000 		.4byte	.LVL426
 17010 04d3 0100     		.2byte	0x1
 17011 04d5 55       		.byte	0x55
 17012 04d6 CE1B0000 		.4byte	.LVL426
 17013 04da E21B0000 		.4byte	.LVL428
 17014 04de 0600     		.2byte	0x6
 17015 04e0 F3       		.byte	0xf3
 17016 04e1 01       		.uleb128 0x1
 17017 04e2 51       		.byte	0x51
 17018 04e3 31       		.byte	0x31
 17019 04e4 1C       		.byte	0x1c
 17020 04e5 9F       		.byte	0x9f
 17021 04e6 E21B0000 		.4byte	.LVL428
ARM GAS  /tmp/ccy8OeyM.s 			page 300


 17022 04ea E41B0000 		.4byte	.LVL429
 17023 04ee 0100     		.2byte	0x1
 17024 04f0 55       		.byte	0x55
 17025 04f1 E41B0000 		.4byte	.LVL429
 17026 04f5 401C0000 		.4byte	.LFE259
 17027 04f9 0600     		.2byte	0x6
 17028 04fb F3       		.byte	0xf3
 17029 04fc 01       		.uleb128 0x1
 17030 04fd 51       		.byte	0x51
 17031 04fe 31       		.byte	0x31
 17032 04ff 1C       		.byte	0x1c
 17033 0500 9F       		.byte	0x9f
 17034 0501 00000000 		.4byte	0
 17035 0505 00000000 		.4byte	0
 17036              	.LLST7:
 17037 0509 12000000 		.4byte	.LVL14
 17038 050d 6E000000 		.4byte	.LVL16
 17039 0511 0100     		.2byte	0x1
 17040 0513 58       		.byte	0x58
 17041 0514 70000000 		.4byte	.LVL17
 17042 0518 54030000 		.4byte	.LVL47
 17043 051c 0100     		.2byte	0x1
 17044 051e 58       		.byte	0x58
 17045 051f 98030000 		.4byte	.LVL50
 17046 0523 14080000 		.4byte	.LVL138
 17047 0527 0100     		.2byte	0x1
 17048 0529 58       		.byte	0x58
 17049 052a 18080000 		.4byte	.LVL140
 17050 052e E6090000 		.4byte	.LVL183
 17051 0532 0100     		.2byte	0x1
 17052 0534 58       		.byte	0x58
 17053 0535 B40A0000 		.4byte	.LVL196
 17054 0539 1C1B0000 		.4byte	.LVL410
 17055 053d 0100     		.2byte	0x1
 17056 053f 58       		.byte	0x58
 17057 0540 901B0000 		.4byte	.LVL416
 17058 0544 401C0000 		.4byte	.LFE259
 17059 0548 0100     		.2byte	0x1
 17060 054a 58       		.byte	0x58
 17061 054b 00000000 		.4byte	0
 17062 054f 00000000 		.4byte	0
 17063              	.LLST8:
 17064 0553 CE1B0000 		.4byte	.LVL426
 17065 0557 DA1B0000 		.4byte	.LVL427
 17066 055b 0200     		.2byte	0x2
 17067 055d 31       		.byte	0x31
 17068 055e 9F       		.byte	0x9f
 17069 055f DA1B0000 		.4byte	.LVL427
 17070 0563 E21B0000 		.4byte	.LVL428
 17071 0567 0200     		.2byte	0x2
 17072 0569 3A       		.byte	0x3a
 17073 056a 9F       		.byte	0x9f
 17074 056b 00000000 		.4byte	0
 17075 056f 00000000 		.4byte	0
 17076              	.LLST9:
 17077 0573 C0170000 		.4byte	.LVL378
 17078 0577 CB170000 		.4byte	.LVL380-1
ARM GAS  /tmp/ccy8OeyM.s 			page 301


 17079 057b 0100     		.2byte	0x1
 17080 057d 51       		.byte	0x51
 17081 057e 00000000 		.4byte	0
 17082 0582 00000000 		.4byte	0
 17083              	.LLST10:
 17084 0586 C8170000 		.4byte	.LVL379
 17085 058a CB170000 		.4byte	.LVL380-1
 17086 058e 0700     		.2byte	0x7
 17087 0590 74       		.byte	0x74
 17088 0591 00       		.sleb128 0
 17089 0592 73       		.byte	0x73
 17090 0593 00       		.sleb128 0
 17091 0594 22       		.byte	0x22
 17092 0595 31       		.byte	0x31
 17093 0596 1C       		.byte	0x1c
 17094 0597 00000000 		.4byte	0
 17095 059b 00000000 		.4byte	0
 17096              	.LLST11:
 17097 059f B8170000 		.4byte	.LVL376
 17098 05a3 EC170000 		.4byte	.LVL381
 17099 05a7 0100     		.2byte	0x1
 17100 05a9 55       		.byte	0x55
 17101 05aa 00000000 		.4byte	0
 17102 05ae 00000000 		.4byte	0
 17103              	.LLST12:
 17104 05b2 A2070000 		.4byte	.LVL121
 17105 05b6 AC070000 		.4byte	.LVL122
 17106 05ba 0100     		.2byte	0x1
 17107 05bc 50       		.byte	0x50
 17108 05bd D4070000 		.4byte	.LVL129
 17109 05c1 E0070000 		.4byte	.LVL130
 17110 05c5 0100     		.2byte	0x1
 17111 05c7 50       		.byte	0x50
 17112 05c8 00000000 		.4byte	0
 17113 05cc 00000000 		.4byte	0
 17114              	.LLST13:
 17115 05d0 98070000 		.4byte	.LVL120
 17116 05d4 A1070000 		.4byte	.LVL121-1
 17117 05d8 0100     		.2byte	0x1
 17118 05da 50       		.byte	0x50
 17119 05db 00000000 		.4byte	0
 17120 05df 00000000 		.4byte	0
 17121              	.LLST14:
 17122 05e3 88030000 		.4byte	.LVL48
 17123 05e7 8D030000 		.4byte	.LVL49-1
 17124 05eb 0100     		.2byte	0x1
 17125 05ed 51       		.byte	0x51
 17126 05ee 00000000 		.4byte	0
 17127 05f2 00000000 		.4byte	0
 17128              	.LLST15:
 17129 05f6 88030000 		.4byte	.LVL48
 17130 05fa 8E030000 		.4byte	.LVL49
 17131 05fe 0600     		.2byte	0x6
 17132 0600 03       		.byte	0x3
 17133 0601 00000000 		.4byte	send_buffer
 17134 0605 9F       		.byte	0x9f
 17135 0606 00000000 		.4byte	0
ARM GAS  /tmp/ccy8OeyM.s 			page 302


 17136 060a 00000000 		.4byte	0
 17137              	.LLST16:
 17138 060e 2A040000 		.4byte	.LVL64
 17139 0612 30040000 		.4byte	.LVL65
 17140 0616 0100     		.2byte	0x1
 17141 0618 51       		.byte	0x51
 17142 0619 00000000 		.4byte	0
 17143 061d 00000000 		.4byte	0
 17144              	.LLST17:
 17145 0621 2A040000 		.4byte	.LVL64
 17146 0625 30040000 		.4byte	.LVL65
 17147 0629 0600     		.2byte	0x6
 17148 062b 03       		.byte	0x3
 17149 062c 00000000 		.4byte	send_buffer
 17150 0630 9F       		.byte	0x9f
 17151 0631 00000000 		.4byte	0
 17152 0635 00000000 		.4byte	0
 17153              	.LLST18:
 17154 0639 50070000 		.4byte	.LVL118
 17155 063d 90070000 		.4byte	.LVL119
 17156 0641 0100     		.2byte	0x1
 17157 0643 51       		.byte	0x51
 17158 0644 00000000 		.4byte	0
 17159 0648 00000000 		.4byte	0
 17160              	.LLST19:
 17161 064c 50070000 		.4byte	.LVL118
 17162 0650 90070000 		.4byte	.LVL119
 17163 0654 0600     		.2byte	0x6
 17164 0656 03       		.byte	0x3
 17165 0657 00000000 		.4byte	send_buffer
 17166 065b 9F       		.byte	0x9f
 17167 065c 00000000 		.4byte	0
 17168 0660 00000000 		.4byte	0
 17169              	.LLST20:
 17170 0664 B8070000 		.4byte	.LVL124
 17171 0668 C2070000 		.4byte	.LVL125
 17172 066c 0200     		.2byte	0x2
 17173 066e 32       		.byte	0x32
 17174 066f 9F       		.byte	0x9f
 17175 0670 00000000 		.4byte	0
 17176 0674 00000000 		.4byte	0
 17177              	.LLST21:
 17178 0678 B8070000 		.4byte	.LVL124
 17179 067c C2070000 		.4byte	.LVL125
 17180 0680 0600     		.2byte	0x6
 17181 0682 03       		.byte	0x3
 17182 0683 00000000 		.4byte	send_buffer
 17183 0687 9F       		.byte	0x9f
 17184 0688 00000000 		.4byte	0
 17185 068c 00000000 		.4byte	0
 17186              	.LLST22:
 17187 0690 E8070000 		.4byte	.LVL131
 17188 0694 F2070000 		.4byte	.LVL132
 17189 0698 0200     		.2byte	0x2
 17190 069a 32       		.byte	0x32
 17191 069b 9F       		.byte	0x9f
 17192 069c 00000000 		.4byte	0
ARM GAS  /tmp/ccy8OeyM.s 			page 303


 17193 06a0 00000000 		.4byte	0
 17194              	.LLST23:
 17195 06a4 E8070000 		.4byte	.LVL131
 17196 06a8 F2070000 		.4byte	.LVL132
 17197 06ac 0600     		.2byte	0x6
 17198 06ae 03       		.byte	0x3
 17199 06af 00000000 		.4byte	send_buffer
 17200 06b3 9F       		.byte	0x9f
 17201 06b4 00000000 		.4byte	0
 17202 06b8 00000000 		.4byte	0
 17203              	.LLST24:
 17204 06bc 0C080000 		.4byte	.LVL137
 17205 06c0 14080000 		.4byte	.LVL138
 17206 06c4 0200     		.2byte	0x2
 17207 06c6 33       		.byte	0x33
 17208 06c7 9F       		.byte	0x9f
 17209 06c8 00000000 		.4byte	0
 17210 06cc 00000000 		.4byte	0
 17211              	.LLST25:
 17212 06d0 0C080000 		.4byte	.LVL137
 17213 06d4 14080000 		.4byte	.LVL138
 17214 06d8 0600     		.2byte	0x6
 17215 06da 03       		.byte	0x3
 17216 06db 00000000 		.4byte	send_buffer
 17217 06df 9F       		.byte	0x9f
 17218 06e0 00000000 		.4byte	0
 17219 06e4 00000000 		.4byte	0
 17220              	.LLST26:
 17221 06e8 76090000 		.4byte	.LVL170
 17222 06ec 7F090000 		.4byte	.LVL171-1
 17223 06f0 0200     		.2byte	0x2
 17224 06f2 90       		.byte	0x90
 17225 06f3 40       		.uleb128 0x40
 17226 06f4 7F090000 		.4byte	.LVL171-1
 17227 06f8 C0090000 		.4byte	.LVL178
 17228 06fc 0200     		.2byte	0x2
 17229 06fe 90       		.byte	0x90
 17230 06ff 50       		.uleb128 0x50
 17231 0700 00000000 		.4byte	0
 17232 0704 00000000 		.4byte	0
 17233              	.LLST27:
 17234 0708 8C090000 		.4byte	.LVL173
 17235 070c AA090000 		.4byte	.LVL175
 17236 0710 0100     		.2byte	0x1
 17237 0712 54       		.byte	0x54
 17238 0713 00000000 		.4byte	0
 17239 0717 00000000 		.4byte	0
 17240              	.LLST28:
 17241 071b B2090000 		.4byte	.LVL176
 17242 071f C0090000 		.4byte	.LVL178
 17243 0723 0200     		.2byte	0x2
 17244 0725 3A       		.byte	0x3a
 17245 0726 9F       		.byte	0x9f
 17246 0727 00000000 		.4byte	0
 17247 072b 00000000 		.4byte	0
 17248              	.LLST29:
 17249 072f B2090000 		.4byte	.LVL176
ARM GAS  /tmp/ccy8OeyM.s 			page 304


 17250 0733 C0090000 		.4byte	.LVL178
 17251 0737 0600     		.2byte	0x6
 17252 0739 03       		.byte	0x3
 17253 073a 00000000 		.4byte	send_buffer
 17254 073e 9F       		.byte	0x9f
 17255 073f 00000000 		.4byte	0
 17256 0743 00000000 		.4byte	0
 17257              	.LLST30:
 17258 0747 140A0000 		.4byte	.LVL186
 17259 074b 230A0000 		.4byte	.LVL188-1
 17260 074f 0200     		.2byte	0x2
 17261 0751 90       		.byte	0x90
 17262 0752 40       		.uleb128 0x40
 17263 0753 230A0000 		.4byte	.LVL188-1
 17264 0757 B40A0000 		.4byte	.LVL196
 17265 075b 0200     		.2byte	0x2
 17266 075d 90       		.byte	0x90
 17267 075e 50       		.uleb128 0x50
 17268 075f 00000000 		.4byte	0
 17269 0763 00000000 		.4byte	0
 17270              	.LLST31:
 17271 0767 7A0A0000 		.4byte	.LVL194
 17272 076b 850A0000 		.4byte	.LVL195-1
 17273 076f 0100     		.2byte	0x1
 17274 0771 51       		.byte	0x51
 17275 0772 00000000 		.4byte	0
 17276 0776 00000000 		.4byte	0
 17277              	.LLST32:
 17278 077a 780A0000 		.4byte	.LVL193
 17279 077e B40A0000 		.4byte	.LVL196
 17280 0782 0600     		.2byte	0x6
 17281 0784 03       		.byte	0x3
 17282 0785 00000000 		.4byte	send_buffer
 17283 0789 9F       		.byte	0x9f
 17284 078a 00000000 		.4byte	0
 17285 078e 00000000 		.4byte	0
 17286              	.LLST33:
 17287 0792 C60A0000 		.4byte	.LVL198
 17288 0796 CC0A0000 		.4byte	.LVL199
 17289 079a 0200     		.2byte	0x2
 17290 079c 90       		.byte	0x90
 17291 079d 40       		.uleb128 0x40
 17292 079e CC0A0000 		.4byte	.LVL199
 17293 07a2 2A0B0000 		.4byte	.LVL212
 17294 07a6 0200     		.2byte	0x2
 17295 07a8 90       		.byte	0x90
 17296 07a9 52       		.uleb128 0x52
 17297 07aa 981B0000 		.4byte	.LVL417
 17298 07ae A01B0000 		.4byte	.LVL418
 17299 07b2 0200     		.2byte	0x2
 17300 07b4 90       		.byte	0x90
 17301 07b5 52       		.uleb128 0x52
 17302 07b6 00000000 		.4byte	0
 17303 07ba 00000000 		.4byte	0
 17304              	.LLST34:
 17305 07be D60A0000 		.4byte	.LVL201
 17306 07c2 DC0A0000 		.4byte	.LVL202
ARM GAS  /tmp/ccy8OeyM.s 			page 305


 17307 07c6 0200     		.2byte	0x2
 17308 07c8 90       		.byte	0x90
 17309 07c9 40       		.uleb128 0x40
 17310 07ca DC0A0000 		.4byte	.LVL202
 17311 07ce 2A0B0000 		.4byte	.LVL212
 17312 07d2 0200     		.2byte	0x2
 17313 07d4 90       		.byte	0x90
 17314 07d5 50       		.uleb128 0x50
 17315 07d6 981B0000 		.4byte	.LVL417
 17316 07da A01B0000 		.4byte	.LVL418
 17317 07de 0200     		.2byte	0x2
 17318 07e0 90       		.byte	0x90
 17319 07e1 50       		.uleb128 0x50
 17320 07e2 00000000 		.4byte	0
 17321 07e6 00000000 		.4byte	0
 17322              	.LLST35:
 17323 07ea E60A0000 		.4byte	.LVL204
 17324 07ee EC0A0000 		.4byte	.LVL205
 17325 07f2 0200     		.2byte	0x2
 17326 07f4 90       		.byte	0x90
 17327 07f5 40       		.uleb128 0x40
 17328 07f6 EC0A0000 		.4byte	.LVL205
 17329 07fa 2A0B0000 		.4byte	.LVL212
 17330 07fe 0200     		.2byte	0x2
 17331 0800 90       		.byte	0x90
 17332 0801 51       		.uleb128 0x51
 17333 0802 981B0000 		.4byte	.LVL417
 17334 0806 A01B0000 		.4byte	.LVL418
 17335 080a 0200     		.2byte	0x2
 17336 080c 90       		.byte	0x90
 17337 080d 51       		.uleb128 0x51
 17338 080e 00000000 		.4byte	0
 17339 0812 00000000 		.4byte	0
 17340              	.LLST36:
 17341 0816 F80A0000 		.4byte	.LVL207
 17342 081a 000B0000 		.4byte	.LVL208
 17343 081e 0200     		.2byte	0x2
 17344 0820 90       		.byte	0x90
 17345 0821 40       		.uleb128 0x40
 17346 0822 000B0000 		.4byte	.LVL208
 17347 0826 050B0000 		.4byte	.LVL209-1
 17348 082a 0200     		.2byte	0x2
 17349 082c 90       		.byte	0x90
 17350 082d 43       		.uleb128 0x43
 17351 082e 00000000 		.4byte	0
 17352 0832 00000000 		.4byte	0
 17353              	.LLST37:
 17354 0836 060B0000 		.4byte	.LVL209
 17355 083a 260B0000 		.4byte	.LVL211
 17356 083e 0100     		.2byte	0x1
 17357 0840 50       		.byte	0x50
 17358 0841 981B0000 		.4byte	.LVL417
 17359 0845 A01B0000 		.4byte	.LVL418
 17360 0849 0100     		.2byte	0x1
 17361 084b 50       		.byte	0x50
 17362 084c 00000000 		.4byte	0
 17363 0850 00000000 		.4byte	0
ARM GAS  /tmp/ccy8OeyM.s 			page 306


 17364              	.LLST38:
 17365 0854 320B0000 		.4byte	.LVL214
 17366 0858 3C0B0000 		.4byte	.LVL215
 17367 085c 0100     		.2byte	0x1
 17368 085e 51       		.byte	0x51
 17369 085f 00000000 		.4byte	0
 17370 0863 00000000 		.4byte	0
 17371              	.LLST39:
 17372 0867 320B0000 		.4byte	.LVL214
 17373 086b 3C0B0000 		.4byte	.LVL215
 17374 086f 0600     		.2byte	0x6
 17375 0871 03       		.byte	0x3
 17376 0872 00000000 		.4byte	send_buffer
 17377 0876 9F       		.byte	0x9f
 17378 0877 00000000 		.4byte	0
 17379 087b 00000000 		.4byte	0
 17380              	.LLST40:
 17381 087f 7A0B0000 		.4byte	.LVL222
 17382 0883 9C0B0000 		.4byte	.LVL225
 17383 0887 0100     		.2byte	0x1
 17384 0889 54       		.byte	0x54
 17385 088a 901B0000 		.4byte	.LVL416
 17386 088e 981B0000 		.4byte	.LVL417
 17387 0892 0100     		.2byte	0x1
 17388 0894 54       		.byte	0x54
 17389 0895 00000000 		.4byte	0
 17390 0899 00000000 		.4byte	0
 17391              	.LLST41:
 17392 089d BE110000 		.4byte	.LVL298
 17393 08a1 D0110000 		.4byte	.LVL299
 17394 08a5 0100     		.2byte	0x1
 17395 08a7 51       		.byte	0x51
 17396 08a8 00000000 		.4byte	0
 17397 08ac 00000000 		.4byte	0
 17398              	.LLST42:
 17399 08b0 BC110000 		.4byte	.LVL297
 17400 08b4 D0110000 		.4byte	.LVL299
 17401 08b8 0600     		.2byte	0x6
 17402 08ba 03       		.byte	0x3
 17403 08bb 00000000 		.4byte	send_buffer
 17404 08bf 9F       		.byte	0x9f
 17405 08c0 00000000 		.4byte	0
 17406 08c4 00000000 		.4byte	0
 17407              	.LLST43:
 17408 08c8 56170000 		.4byte	.LVL369
 17409 08cc 62170000 		.4byte	.LVL370
 17410 08d0 0200     		.2byte	0x2
 17411 08d2 31       		.byte	0x31
 17412 08d3 9F       		.byte	0x9f
 17413 08d4 00000000 		.4byte	0
 17414 08d8 00000000 		.4byte	0
 17415              	.LLST44:
 17416 08dc 56170000 		.4byte	.LVL369
 17417 08e0 62170000 		.4byte	.LVL370
 17418 08e4 0600     		.2byte	0x6
 17419 08e6 03       		.byte	0x3
 17420 08e7 00000000 		.4byte	send_buffer
ARM GAS  /tmp/ccy8OeyM.s 			page 307


 17421 08eb 9F       		.byte	0x9f
 17422 08ec 00000000 		.4byte	0
 17423 08f0 00000000 		.4byte	0
 17424              	.LLST45:
 17425 08f4 841B0000 		.4byte	.LVL415
 17426 08f8 901B0000 		.4byte	.LVL416
 17427 08fc 0200     		.2byte	0x2
 17428 08fe 31       		.byte	0x31
 17429 08ff 9F       		.byte	0x9f
 17430 0900 00000000 		.4byte	0
 17431 0904 00000000 		.4byte	0
 17432              	.LLST46:
 17433 0908 841B0000 		.4byte	.LVL415
 17434 090c 901B0000 		.4byte	.LVL416
 17435 0910 0600     		.2byte	0x6
 17436 0912 03       		.byte	0x3
 17437 0913 00000000 		.4byte	send_buffer
 17438 0917 9F       		.byte	0x9f
 17439 0918 00000000 		.4byte	0
 17440 091c 00000000 		.4byte	0
 17441              	.LLST47:
 17442 0920 1C000000 		.4byte	.LVL436
 17443 0924 30000000 		.4byte	.LVL439
 17444 0928 0100     		.2byte	0x1
 17445 092a 50       		.byte	0x50
 17446 092b 00000000 		.4byte	0
 17447 092f 00000000 		.4byte	0
 17448              	.LLST48:
 17449 0933 2C000000 		.4byte	.LVL438
 17450 0937 31000000 		.4byte	.LVL440-1
 17451 093b 0100     		.2byte	0x1
 17452 093d 51       		.byte	0x51
 17453 093e 00000000 		.4byte	0
 17454 0942 00000000 		.4byte	0
 17455              	.LLST49:
 17456 0946 20000000 		.4byte	.LVL437
 17457 094a 32000000 		.4byte	.LVL440
 17458 094e 0600     		.2byte	0x6
 17459 0950 03       		.byte	0x3
 17460 0951 00000000 		.4byte	print_buffer.11353
 17461 0955 9F       		.byte	0x9f
 17462 0956 00000000 		.4byte	0
 17463 095a 00000000 		.4byte	0
 17464              	.LLST50:
 17465 095e 00000000 		.4byte	.LVL441
 17466 0962 3C000000 		.4byte	.LVL447
 17467 0966 0100     		.2byte	0x1
 17468 0968 50       		.byte	0x50
 17469 0969 3C000000 		.4byte	.LVL447
 17470 096d 42000000 		.4byte	.LVL449
 17471 0971 0400     		.2byte	0x4
 17472 0973 F3       		.byte	0xf3
 17473 0974 01       		.uleb128 0x1
 17474 0975 50       		.byte	0x50
 17475 0976 9F       		.byte	0x9f
 17476 0977 42000000 		.4byte	.LVL449
 17477 097b 4C000000 		.4byte	.LFE261
ARM GAS  /tmp/ccy8OeyM.s 			page 308


 17478 097f 0100     		.2byte	0x1
 17479 0981 50       		.byte	0x50
 17480 0982 00000000 		.4byte	0
 17481 0986 00000000 		.4byte	0
 17482              	.LLST51:
 17483 098a 00000000 		.4byte	.LVL441
 17484 098e 34000000 		.4byte	.LVL446
 17485 0992 0100     		.2byte	0x1
 17486 0994 51       		.byte	0x51
 17487 0995 34000000 		.4byte	.LVL446
 17488 0999 42000000 		.4byte	.LVL449
 17489 099d 0400     		.2byte	0x4
 17490 099f F3       		.byte	0xf3
 17491 09a0 01       		.uleb128 0x1
 17492 09a1 51       		.byte	0x51
 17493 09a2 9F       		.byte	0x9f
 17494 09a3 42000000 		.4byte	.LVL449
 17495 09a7 44000000 		.4byte	.LVL450
 17496 09ab 0100     		.2byte	0x1
 17497 09ad 51       		.byte	0x51
 17498 09ae 44000000 		.4byte	.LVL450
 17499 09b2 4C000000 		.4byte	.LFE261
 17500 09b6 0400     		.2byte	0x4
 17501 09b8 F3       		.byte	0xf3
 17502 09b9 01       		.uleb128 0x1
 17503 09ba 51       		.byte	0x51
 17504 09bb 9F       		.byte	0x9f
 17505 09bc 00000000 		.4byte	0
 17506 09c0 00000000 		.4byte	0
 17507              	.LLST53:
 17508 09c4 1C000000 		.4byte	.LVL442
 17509 09c8 26000000 		.4byte	.LVL443
 17510 09cc 0200     		.2byte	0x2
 17511 09ce 31       		.byte	0x31
 17512 09cf 9F       		.byte	0x9f
 17513 09d0 26000000 		.4byte	.LVL443
 17514 09d4 2A000000 		.4byte	.LVL444
 17515 09d8 0800     		.2byte	0x8
 17516 09da 72       		.byte	0x72
 17517 09db 00       		.sleb128 0
 17518 09dc 70       		.byte	0x70
 17519 09dd 00       		.sleb128 0
 17520 09de 1C       		.byte	0x1c
 17521 09df 23       		.byte	0x23
 17522 09e0 03       		.uleb128 0x3
 17523 09e1 9F       		.byte	0x9f
 17524 09e2 2A000000 		.4byte	.LVL444
 17525 09e6 34000000 		.4byte	.LVL446
 17526 09ea 0800     		.2byte	0x8
 17527 09ec 72       		.byte	0x72
 17528 09ed 00       		.sleb128 0
 17529 09ee 70       		.byte	0x70
 17530 09ef 00       		.sleb128 0
 17531 09f0 1C       		.byte	0x1c
 17532 09f1 23       		.byte	0x23
 17533 09f2 02       		.uleb128 0x2
 17534 09f3 9F       		.byte	0x9f
ARM GAS  /tmp/ccy8OeyM.s 			page 309


 17535 09f4 42000000 		.4byte	.LVL449
 17536 09f8 4C000000 		.4byte	.LFE261
 17537 09fc 0200     		.2byte	0x2
 17538 09fe 31       		.byte	0x31
 17539 09ff 9F       		.byte	0x9f
 17540 0a00 00000000 		.4byte	0
 17541 0a04 00000000 		.4byte	0
 17542              	.LLST54:
 17543 0a08 1C000000 		.4byte	.LVL442
 17544 0a0c 26000000 		.4byte	.LVL443
 17545 0a10 0200     		.2byte	0x2
 17546 0a12 30       		.byte	0x30
 17547 0a13 9F       		.byte	0x9f
 17548 0a14 26000000 		.4byte	.LVL443
 17549 0a18 2A000000 		.4byte	.LVL444
 17550 0a1c 0800     		.2byte	0x8
 17551 0a1e 72       		.byte	0x72
 17552 0a1f 00       		.sleb128 0
 17553 0a20 70       		.byte	0x70
 17554 0a21 00       		.sleb128 0
 17555 0a22 1C       		.byte	0x1c
 17556 0a23 23       		.byte	0x23
 17557 0a24 01       		.uleb128 0x1
 17558 0a25 9F       		.byte	0x9f
 17559 0a26 2A000000 		.4byte	.LVL444
 17560 0a2a 2E000000 		.4byte	.LVL445
 17561 0a2e 0600     		.2byte	0x6
 17562 0a30 72       		.byte	0x72
 17563 0a31 00       		.sleb128 0
 17564 0a32 70       		.byte	0x70
 17565 0a33 00       		.sleb128 0
 17566 0a34 1C       		.byte	0x1c
 17567 0a35 9F       		.byte	0x9f
 17568 0a36 2E000000 		.4byte	.LVL445
 17569 0a3a 34000000 		.4byte	.LVL446
 17570 0a3e 0800     		.2byte	0x8
 17571 0a40 72       		.byte	0x72
 17572 0a41 00       		.sleb128 0
 17573 0a42 70       		.byte	0x70
 17574 0a43 00       		.sleb128 0
 17575 0a44 1C       		.byte	0x1c
 17576 0a45 23       		.byte	0x23
 17577 0a46 01       		.uleb128 0x1
 17578 0a47 9F       		.byte	0x9f
 17579 0a48 42000000 		.4byte	.LVL449
 17580 0a4c 4C000000 		.4byte	.LFE261
 17581 0a50 0200     		.2byte	0x2
 17582 0a52 30       		.byte	0x30
 17583 0a53 9F       		.byte	0x9f
 17584 0a54 00000000 		.4byte	0
 17585 0a58 00000000 		.4byte	0
 17586              	.LLST55:
 17587 0a5c 34000000 		.4byte	.LVL446
 17588 0a60 3D000000 		.4byte	.LVL448-1
 17589 0a64 0100     		.2byte	0x1
 17590 0a66 51       		.byte	0x51
 17591 0a67 00000000 		.4byte	0
ARM GAS  /tmp/ccy8OeyM.s 			page 310


 17592 0a6b 00000000 		.4byte	0
 17593              	.LLST56:
 17594 0a6f 34000000 		.4byte	.LVL446
 17595 0a73 42000000 		.4byte	.LVL449
 17596 0a77 0100     		.2byte	0x1
 17597 0a79 56       		.byte	0x56
 17598 0a7a 00000000 		.4byte	0
 17599 0a7e 00000000 		.4byte	0
 17600              	.LLST57:
 17601 0a82 00000000 		.4byte	.LVL451
 17602 0a86 0E000000 		.4byte	.LVL452
 17603 0a8a 0200     		.2byte	0x2
 17604 0a8c 90       		.byte	0x90
 17605 0a8d 40       		.uleb128 0x40
 17606 0a8e 0E000000 		.4byte	.LVL452
 17607 0a92 40000000 		.4byte	.LFE262
 17608 0a96 0600     		.2byte	0x6
 17609 0a98 F3       		.byte	0xf3
 17610 0a99 03       		.uleb128 0x3
 17611 0a9a F5       		.byte	0xf5
 17612 0a9b 40       		.uleb128 0x40
 17613 0a9c 25       		.uleb128 0x25
 17614 0a9d 9F       		.byte	0x9f
 17615 0a9e 00000000 		.4byte	0
 17616 0aa2 00000000 		.4byte	0
 17617              	.LLST58:
 17618 0aa6 2C000000 		.4byte	.LVL454
 17619 0aaa 33000000 		.4byte	.LVL455-1
 17620 0aae 0100     		.2byte	0x1
 17621 0ab0 51       		.byte	0x51
 17622 0ab1 00000000 		.4byte	0
 17623 0ab5 00000000 		.4byte	0
 17624              	.LLST59:
 17625 0ab9 2C000000 		.4byte	.LVL454
 17626 0abd 38000000 		.4byte	.LVL456
 17627 0ac1 0300     		.2byte	0x3
 17628 0ac3 91       		.byte	0x91
 17629 0ac4 70       		.sleb128 -16
 17630 0ac5 9F       		.byte	0x9f
 17631 0ac6 38000000 		.4byte	.LVL456
 17632 0aca 40000000 		.4byte	.LFE262
 17633 0ace 0300     		.2byte	0x3
 17634 0ad0 7D       		.byte	0x7d
 17635 0ad1 70       		.sleb128 -16
 17636 0ad2 9F       		.byte	0x9f
 17637 0ad3 00000000 		.4byte	0
 17638 0ad7 00000000 		.4byte	0
 17639              	.LLST60:
 17640 0adb 00000000 		.4byte	.LVL457
 17641 0adf 38000000 		.4byte	.LVL463
 17642 0ae3 0100     		.2byte	0x1
 17643 0ae5 50       		.byte	0x50
 17644 0ae6 38000000 		.4byte	.LVL463
 17645 0aea 70000000 		.4byte	.LVL468
 17646 0aee 0400     		.2byte	0x4
 17647 0af0 F3       		.byte	0xf3
 17648 0af1 01       		.uleb128 0x1
ARM GAS  /tmp/ccy8OeyM.s 			page 311


 17649 0af2 50       		.byte	0x50
 17650 0af3 9F       		.byte	0x9f
 17651 0af4 70000000 		.4byte	.LVL468
 17652 0af8 7C000000 		.4byte	.LFE263
 17653 0afc 0100     		.2byte	0x1
 17654 0afe 50       		.byte	0x50
 17655 0aff 00000000 		.4byte	0
 17656 0b03 00000000 		.4byte	0
 17657              	.LLST61:
 17658 0b07 00000000 		.4byte	.LVL457
 17659 0b0b 22000000 		.4byte	.LVL461
 17660 0b0f 0100     		.2byte	0x1
 17661 0b11 51       		.byte	0x51
 17662 0b12 22000000 		.4byte	.LVL461
 17663 0b16 70000000 		.4byte	.LVL468
 17664 0b1a 0100     		.2byte	0x1
 17665 0b1c 56       		.byte	0x56
 17666 0b1d 70000000 		.4byte	.LVL468
 17667 0b21 7C000000 		.4byte	.LFE263
 17668 0b25 0100     		.2byte	0x1
 17669 0b27 51       		.byte	0x51
 17670 0b28 00000000 		.4byte	0
 17671 0b2c 00000000 		.4byte	0
 17672              	.LLST62:
 17673 0b30 06000000 		.4byte	.LVL458
 17674 0b34 10000000 		.4byte	.LVL459
 17675 0b38 0100     		.2byte	0x1
 17676 0b3a 53       		.byte	0x53
 17677 0b3b 10000000 		.4byte	.LVL459
 17678 0b3f 16000000 		.4byte	.LVL460
 17679 0b43 0300     		.2byte	0x3
 17680 0b45 73       		.byte	0x73
 17681 0b46 78       		.sleb128 -8
 17682 0b47 9F       		.byte	0x9f
 17683 0b48 16000000 		.4byte	.LVL460
 17684 0b4c 22000000 		.4byte	.LVL461
 17685 0b50 0500     		.2byte	0x5
 17686 0b52 71       		.byte	0x71
 17687 0b53 00       		.sleb128 0
 17688 0b54 32       		.byte	0x32
 17689 0b55 24       		.byte	0x24
 17690 0b56 9F       		.byte	0x9f
 17691 0b57 22000000 		.4byte	.LVL461
 17692 0b5b 70000000 		.4byte	.LVL468
 17693 0b5f 0500     		.2byte	0x5
 17694 0b61 76       		.byte	0x76
 17695 0b62 00       		.sleb128 0
 17696 0b63 32       		.byte	0x32
 17697 0b64 24       		.byte	0x24
 17698 0b65 9F       		.byte	0x9f
 17699 0b66 00000000 		.4byte	0
 17700 0b6a 00000000 		.4byte	0
 17701              	.LLST63:
 17702 0b6e 2C000000 		.4byte	.LVL462
 17703 0b72 70000000 		.4byte	.LVL468
 17704 0b76 0200     		.2byte	0x2
 17705 0b78 78       		.byte	0x78
ARM GAS  /tmp/ccy8OeyM.s 			page 312


 17706 0b79 00       		.sleb128 0
 17707 0b7a 00000000 		.4byte	0
 17708 0b7e 00000000 		.4byte	0
 17709              	.LLST64:
 17710 0b82 2C000000 		.4byte	.LVL462
 17711 0b86 38000000 		.4byte	.LVL463
 17712 0b8a 0200     		.2byte	0x2
 17713 0b8c 30       		.byte	0x30
 17714 0b8d 9F       		.byte	0x9f
 17715 0b8e 38000000 		.4byte	.LVL463
 17716 0b92 42000000 		.4byte	.LVL464
 17717 0b96 0100     		.2byte	0x1
 17718 0b98 54       		.byte	0x54
 17719 0b99 42000000 		.4byte	.LVL464
 17720 0b9d 52000000 		.4byte	.LVL465
 17721 0ba1 0300     		.2byte	0x3
 17722 0ba3 74       		.byte	0x74
 17723 0ba4 7F       		.sleb128 -1
 17724 0ba5 9F       		.byte	0x9f
 17725 0ba6 52000000 		.4byte	.LVL465
 17726 0baa 58000000 		.4byte	.LVL466
 17727 0bae 0100     		.2byte	0x1
 17728 0bb0 54       		.byte	0x54
 17729 0bb1 00000000 		.4byte	0
 17730 0bb5 00000000 		.4byte	0
 17731              	.LLST65:
 17732 0bb9 58000000 		.4byte	.LVL466
 17733 0bbd 61000000 		.4byte	.LVL467-1
 17734 0bc1 0100     		.2byte	0x1
 17735 0bc3 51       		.byte	0x51
 17736 0bc4 00000000 		.4byte	0
 17737 0bc8 00000000 		.4byte	0
 17738              	.LLST66:
 17739 0bcc 58000000 		.4byte	.LVL466
 17740 0bd0 70000000 		.4byte	.LVL468
 17741 0bd4 0100     		.2byte	0x1
 17742 0bd6 58       		.byte	0x58
 17743 0bd7 00000000 		.4byte	0
 17744 0bdb 00000000 		.4byte	0
 17745              	.LLST67:
 17746 0bdf 00000000 		.4byte	.LVL470
 17747 0be3 08000000 		.4byte	.LVL471
 17748 0be7 0100     		.2byte	0x1
 17749 0be9 50       		.byte	0x50
 17750 0bea 08000000 		.4byte	.LVL471
 17751 0bee 14000000 		.4byte	.LVL473
 17752 0bf2 0100     		.2byte	0x1
 17753 0bf4 52       		.byte	0x52
 17754 0bf5 14000000 		.4byte	.LVL473
 17755 0bf9 17000000 		.4byte	.LVL474-1
 17756 0bfd 0100     		.2byte	0x1
 17757 0bff 51       		.byte	0x51
 17758 0c00 17000000 		.4byte	.LVL474-1
 17759 0c04 34000000 		.4byte	.LFE266
 17760 0c08 0400     		.2byte	0x4
 17761 0c0a F3       		.byte	0xf3
 17762 0c0b 01       		.uleb128 0x1
ARM GAS  /tmp/ccy8OeyM.s 			page 313


 17763 0c0c 50       		.byte	0x50
 17764 0c0d 9F       		.byte	0x9f
 17765 0c0e 00000000 		.4byte	0
 17766 0c12 00000000 		.4byte	0
 17767              	.LLST68:
 17768 0c16 00000000 		.4byte	.LVL470
 17769 0c1a 0E000000 		.4byte	.LVL472
 17770 0c1e 0100     		.2byte	0x1
 17771 0c20 51       		.byte	0x51
 17772 0c21 0E000000 		.4byte	.LVL472
 17773 0c25 26000000 		.4byte	.LVL476
 17774 0c29 0100     		.2byte	0x1
 17775 0c2b 54       		.byte	0x54
 17776 0c2c 26000000 		.4byte	.LVL476
 17777 0c30 27000000 		.4byte	.LVL477-1
 17778 0c34 0300     		.2byte	0x3
 17779 0c36 71       		.byte	0x71
 17780 0c37 7F       		.sleb128 -1
 17781 0c38 9F       		.byte	0x9f
 17782 0c39 27000000 		.4byte	.LVL477-1
 17783 0c3d 28000000 		.4byte	.LVL477
 17784 0c41 0400     		.2byte	0x4
 17785 0c43 F3       		.byte	0xf3
 17786 0c44 01       		.uleb128 0x1
 17787 0c45 51       		.byte	0x51
 17788 0c46 9F       		.byte	0x9f
 17789 0c47 28000000 		.4byte	.LVL477
 17790 0c4b 2A000000 		.4byte	.LVL478
 17791 0c4f 0100     		.2byte	0x1
 17792 0c51 54       		.byte	0x54
 17793 0c52 2A000000 		.4byte	.LVL478
 17794 0c56 34000000 		.4byte	.LFE266
 17795 0c5a 0300     		.2byte	0x3
 17796 0c5c 71       		.byte	0x71
 17797 0c5d 7F       		.sleb128 -1
 17798 0c5e 9F       		.byte	0x9f
 17799 0c5f 00000000 		.4byte	0
 17800 0c63 00000000 		.4byte	0
 17801              	.LLST69:
 17802 0c67 00000000 		.4byte	.LVL470
 17803 0c6b 1E000000 		.4byte	.LVL475
 17804 0c6f 0200     		.2byte	0x2
 17805 0c71 31       		.byte	0x31
 17806 0c72 9F       		.byte	0x9f
 17807 0c73 1E000000 		.4byte	.LVL475
 17808 0c77 27000000 		.4byte	.LVL477-1
 17809 0c7b 0100     		.2byte	0x1
 17810 0c7d 51       		.byte	0x51
 17811 0c7e 27000000 		.4byte	.LVL477-1
 17812 0c82 28000000 		.4byte	.LVL477
 17813 0c86 0600     		.2byte	0x6
 17814 0c88 F3       		.byte	0xf3
 17815 0c89 01       		.uleb128 0x1
 17816 0c8a 51       		.byte	0x51
 17817 0c8b 23       		.byte	0x23
 17818 0c8c 01       		.uleb128 0x1
 17819 0c8d 9F       		.byte	0x9f
ARM GAS  /tmp/ccy8OeyM.s 			page 314


 17820 0c8e 28000000 		.4byte	.LVL477
 17821 0c92 34000000 		.4byte	.LFE266
 17822 0c96 0100     		.2byte	0x1
 17823 0c98 51       		.byte	0x51
 17824 0c99 00000000 		.4byte	0
 17825 0c9d 00000000 		.4byte	0
 17826              	.LLST70:
 17827 0ca1 1E000000 		.4byte	.LVL475
 17828 0ca5 27000000 		.4byte	.LVL477-1
 17829 0ca9 0100     		.2byte	0x1
 17830 0cab 51       		.byte	0x51
 17831 0cac 27000000 		.4byte	.LVL477-1
 17832 0cb0 28000000 		.4byte	.LVL477
 17833 0cb4 0600     		.2byte	0x6
 17834 0cb6 F3       		.byte	0xf3
 17835 0cb7 01       		.uleb128 0x1
 17836 0cb8 51       		.byte	0x51
 17837 0cb9 23       		.byte	0x23
 17838 0cba 01       		.uleb128 0x1
 17839 0cbb 9F       		.byte	0x9f
 17840 0cbc 28000000 		.4byte	.LVL477
 17841 0cc0 34000000 		.4byte	.LFE266
 17842 0cc4 0100     		.2byte	0x1
 17843 0cc6 51       		.byte	0x51
 17844 0cc7 00000000 		.4byte	0
 17845 0ccb 00000000 		.4byte	0
 17846              		.section	.debug_aranges,"",%progbits
 17847 0000 74000000 		.4byte	0x74
 17848 0004 0200     		.2byte	0x2
 17849 0006 00000000 		.4byte	.Ldebug_info0
 17850 000a 04       		.byte	0x4
 17851 000b 00       		.byte	0
 17852 000c 0000     		.2byte	0
 17853 000e 0000     		.2byte	0
 17854 0010 00000000 		.4byte	.LFB267
 17855 0014 00010000 		.4byte	.LFE267-.LFB267
 17856 0018 00000000 		.4byte	.LFB256
 17857 001c 24000000 		.4byte	.LFE256-.LFB256
 17858 0020 00000000 		.4byte	.LFB257
 17859 0024 0C000000 		.4byte	.LFE257-.LFB257
 17860 0028 00000000 		.4byte	.LFB258
 17861 002c 10000000 		.4byte	.LFE258-.LFB258
 17862 0030 00000000 		.4byte	.LFB259
 17863 0034 401C0000 		.4byte	.LFE259-.LFB259
 17864 0038 00000000 		.4byte	.LFB260
 17865 003c 44000000 		.4byte	.LFE260-.LFB260
 17866 0040 00000000 		.4byte	.LFB261
 17867 0044 4C000000 		.4byte	.LFE261-.LFB261
 17868 0048 00000000 		.4byte	.LFB262
 17869 004c 40000000 		.4byte	.LFE262-.LFB262
 17870 0050 00000000 		.4byte	.LFB263
 17871 0054 7C000000 		.4byte	.LFE263-.LFB263
 17872 0058 00000000 		.4byte	.LFB264
 17873 005c 0C000000 		.4byte	.LFE264-.LFB264
 17874 0060 00000000 		.4byte	.LFB265
 17875 0064 0C000000 		.4byte	.LFE265-.LFB265
 17876 0068 00000000 		.4byte	.LFB266
ARM GAS  /tmp/ccy8OeyM.s 			page 315


 17877 006c 34000000 		.4byte	.LFE266-.LFB266
 17878 0070 00000000 		.4byte	0
 17879 0074 00000000 		.4byte	0
 17880              		.section	.debug_ranges,"",%progbits
 17881              	.Ldebug_ranges0:
 17882 0000 04000000 		.4byte	.LBB59
 17883 0004 06000000 		.4byte	.LBE59
 17884 0008 08000000 		.4byte	.LBB63
 17885 000c 20000000 		.4byte	.LBE63
 17886 0010 2E000000 		.4byte	.LBB76
 17887 0014 30000000 		.4byte	.LBE76
 17888 0018 00000000 		.4byte	0
 17889 001c 00000000 		.4byte	0
 17890 0020 20000000 		.4byte	.LBB64
 17891 0024 22000000 		.4byte	.LBE64
 17892 0028 26000000 		.4byte	.LBB75
 17893 002c 2E000000 		.4byte	.LBE75
 17894 0030 34000000 		.4byte	.LBB77
 17895 0034 BA000000 		.4byte	.LBE77
 17896 0038 BC000000 		.4byte	.LBB78
 17897 003c 00010000 		.4byte	.LBE78
 17898 0040 00000000 		.4byte	0
 17899 0044 00000000 		.4byte	0
 17900 0048 92000000 		.4byte	.LBB65
 17901 004c 94000000 		.4byte	.LBE65
 17902 0050 98000000 		.4byte	.LBB71
 17903 0054 9A000000 		.4byte	.LBE71
 17904 0058 AA000000 		.4byte	.LBB72
 17905 005c AC000000 		.4byte	.LBE72
 17906 0060 AE000000 		.4byte	.LBB73
 17907 0064 B0000000 		.4byte	.LBE73
 17908 0068 B4000000 		.4byte	.LBB74
 17909 006c BA000000 		.4byte	.LBE74
 17910 0070 00000000 		.4byte	0
 17911 0074 00000000 		.4byte	0
 17912 0078 40030000 		.4byte	.LBB79
 17913 007c 42030000 		.4byte	.LBE79
 17914 0080 46030000 		.4byte	.LBB83
 17915 0084 48030000 		.4byte	.LBE83
 17916 0088 88030000 		.4byte	.LBB84
 17917 008c 8E030000 		.4byte	.LBE84
 17918 0090 00000000 		.4byte	0
 17919 0094 00000000 		.4byte	0
 17920 0098 26040000 		.4byte	.LBB85
 17921 009c 28040000 		.4byte	.LBE85
 17922 00a0 2A040000 		.4byte	.LBB88
 17923 00a4 34040000 		.4byte	.LBE88
 17924 00a8 00000000 		.4byte	0
 17925 00ac 00000000 		.4byte	0
 17926 00b0 48070000 		.4byte	.LBB89
 17927 00b4 4A070000 		.4byte	.LBE89
 17928 00b8 4C070000 		.4byte	.LBB93
 17929 00bc 4E070000 		.4byte	.LBE93
 17930 00c0 50070000 		.4byte	.LBB94
 17931 00c4 90070000 		.4byte	.LBE94
 17932 00c8 00000000 		.4byte	0
 17933 00cc 00000000 		.4byte	0
ARM GAS  /tmp/ccy8OeyM.s 			page 316


 17934 00d0 A2070000 		.4byte	.LBB95
 17935 00d4 A4070000 		.4byte	.LBE95
 17936 00d8 A6070000 		.4byte	.LBB99
 17937 00dc A8070000 		.4byte	.LBE99
 17938 00e0 BC070000 		.4byte	.LBB100
 17939 00e4 C8070000 		.4byte	.LBE100
 17940 00e8 00000000 		.4byte	0
 17941 00ec 00000000 		.4byte	0
 17942 00f0 D4070000 		.4byte	.LBB101
 17943 00f4 D6070000 		.4byte	.LBE101
 17944 00f8 D8070000 		.4byte	.LBB105
 17945 00fc DA070000 		.4byte	.LBE105
 17946 0100 EC070000 		.4byte	.LBB106
 17947 0104 F2070000 		.4byte	.LBE106
 17948 0108 00000000 		.4byte	0
 17949 010c 00000000 		.4byte	0
 17950 0110 F8070000 		.4byte	.LBB107
 17951 0114 FA070000 		.4byte	.LBE107
 17952 0118 FC070000 		.4byte	.LBB111
 17953 011c FE070000 		.4byte	.LBE111
 17954 0120 0E080000 		.4byte	.LBB112
 17955 0124 14080000 		.4byte	.LBE112
 17956 0128 00000000 		.4byte	0
 17957 012c 00000000 		.4byte	0
 17958 0130 5A090000 		.4byte	.LBB116
 17959 0134 5C090000 		.4byte	.LBE116
 17960 0138 A0090000 		.4byte	.LBB120
 17961 013c A2090000 		.4byte	.LBE120
 17962 0140 B2090000 		.4byte	.LBB121
 17963 0144 C0090000 		.4byte	.LBE121
 17964 0148 00000000 		.4byte	0
 17965 014c 00000000 		.4byte	0
 17966 0150 6C0A0000 		.4byte	.LBB123
 17967 0154 6E0A0000 		.4byte	.LBE123
 17968 0158 740A0000 		.4byte	.LBB127
 17969 015c 760A0000 		.4byte	.LBE127
 17970 0160 7C0A0000 		.4byte	.LBB128
 17971 0164 B40A0000 		.4byte	.LBE128
 17972 0168 00000000 		.4byte	0
 17973 016c 00000000 		.4byte	0
 17974 0170 2E0B0000 		.4byte	.LBB130
 17975 0174 300B0000 		.4byte	.LBE130
 17976 0178 320B0000 		.4byte	.LBB133
 17977 017c 3C0B0000 		.4byte	.LBE133
 17978 0180 00000000 		.4byte	0
 17979 0184 00000000 		.4byte	0
 17980 0188 B0110000 		.4byte	.LBB135
 17981 018c B2110000 		.4byte	.LBE135
 17982 0190 B8110000 		.4byte	.LBB139
 17983 0194 BA110000 		.4byte	.LBE139
 17984 0198 C0110000 		.4byte	.LBB140
 17985 019c D0110000 		.4byte	.LBE140
 17986 01a0 00000000 		.4byte	0
 17987 01a4 00000000 		.4byte	0
 17988 01a8 4A170000 		.4byte	.LBB141
 17989 01ac 4C170000 		.4byte	.LBE141
 17990 01b0 4E170000 		.4byte	.LBB145
ARM GAS  /tmp/ccy8OeyM.s 			page 317


 17991 01b4 50170000 		.4byte	.LBE145
 17992 01b8 58170000 		.4byte	.LBB146
 17993 01bc 62170000 		.4byte	.LBE146
 17994 01c0 00000000 		.4byte	0
 17995 01c4 00000000 		.4byte	0
 17996 01c8 781B0000 		.4byte	.LBB147
 17997 01cc 7A1B0000 		.4byte	.LBE147
 17998 01d0 7C1B0000 		.4byte	.LBB151
 17999 01d4 7E1B0000 		.4byte	.LBE151
 18000 01d8 841B0000 		.4byte	.LBB152
 18001 01dc 8A1B0000 		.4byte	.LBE152
 18002 01e0 00000000 		.4byte	0
 18003 01e4 00000000 		.4byte	0
 18004 01e8 101C0000 		.4byte	.LBB153
 18005 01ec 121C0000 		.4byte	.LBE153
 18006 01f0 141C0000 		.4byte	.LBB157
 18007 01f4 161C0000 		.4byte	.LBE157
 18008 01f8 1C1C0000 		.4byte	.LBB158
 18009 01fc 401C0000 		.4byte	.LBE158
 18010 0200 00000000 		.4byte	0
 18011 0204 00000000 		.4byte	0
 18012 0208 20000000 		.4byte	.LBB159
 18013 020c 24000000 		.4byte	.LBE159
 18014 0210 2C000000 		.4byte	.LBB162
 18015 0214 32000000 		.4byte	.LBE162
 18016 0218 00000000 		.4byte	0
 18017 021c 00000000 		.4byte	0
 18018 0220 10000000 		.4byte	.LBB163
 18019 0224 12000000 		.4byte	.LBE163
 18020 0228 1C000000 		.4byte	.LBB164
 18021 022c 34000000 		.4byte	.LBE164
 18022 0230 42000000 		.4byte	.LBB167
 18023 0234 4C000000 		.4byte	.LBE167
 18024 0238 00000000 		.4byte	0
 18025 023c 00000000 		.4byte	0
 18026 0240 28000000 		.4byte	.LBB168
 18027 0244 2A000000 		.4byte	.LBE168
 18028 0248 2C000000 		.4byte	.LBB171
 18029 024c 34000000 		.4byte	.LBE171
 18030 0250 00000000 		.4byte	0
 18031 0254 00000000 		.4byte	0
 18032 0258 24000000 		.4byte	.LBB172
 18033 025c 26000000 		.4byte	.LBE172
 18034 0260 2E000000 		.4byte	.LBB173
 18035 0264 58000000 		.4byte	.LBE173
 18036 0268 00000000 		.4byte	0
 18037 026c 00000000 		.4byte	0
 18038 0270 18000000 		.4byte	.LBB176
 18039 0274 1C000000 		.4byte	.LBE176
 18040 0278 1E000000 		.4byte	.LBB180
 18041 027c 22000000 		.4byte	.LBE180
 18042 0280 26000000 		.4byte	.LBB181
 18043 0284 34000000 		.4byte	.LBE181
 18044 0288 00000000 		.4byte	0
 18045 028c 00000000 		.4byte	0
 18046 0290 00000000 		.4byte	.LFB267
 18047 0294 00010000 		.4byte	.LFE267
ARM GAS  /tmp/ccy8OeyM.s 			page 318


 18048 0298 00000000 		.4byte	.LFB256
 18049 029c 24000000 		.4byte	.LFE256
 18050 02a0 00000000 		.4byte	.LFB257
 18051 02a4 0C000000 		.4byte	.LFE257
 18052 02a8 00000000 		.4byte	.LFB258
 18053 02ac 10000000 		.4byte	.LFE258
 18054 02b0 00000000 		.4byte	.LFB259
 18055 02b4 401C0000 		.4byte	.LFE259
 18056 02b8 00000000 		.4byte	.LFB260
 18057 02bc 44000000 		.4byte	.LFE260
 18058 02c0 00000000 		.4byte	.LFB261
 18059 02c4 4C000000 		.4byte	.LFE261
 18060 02c8 00000000 		.4byte	.LFB262
 18061 02cc 40000000 		.4byte	.LFE262
 18062 02d0 00000000 		.4byte	.LFB263
 18063 02d4 7C000000 		.4byte	.LFE263
 18064 02d8 00000000 		.4byte	.LFB264
 18065 02dc 0C000000 		.4byte	.LFE264
 18066 02e0 00000000 		.4byte	.LFB265
 18067 02e4 0C000000 		.4byte	.LFE265
 18068 02e8 00000000 		.4byte	.LFB266
 18069 02ec 34000000 		.4byte	.LFE266
 18070 02f0 00000000 		.4byte	0
 18071 02f4 00000000 		.4byte	0
 18072              		.section	.debug_line,"",%progbits
 18073              	.Ldebug_line0:
 18074 0000 D80A0000 		.section	.debug_str,"MS",%progbits,1
 18074      02005203 
 18074      00000201 
 18074      FB0E0D00 
 18074      01010101 
 18075              	.LASF284:
 18076 0000 4348554B 		.ascii	"CHUK_CTRL_TYPE_CURRENT\000"
 18076      5F435452 
 18076      4C5F5459 
 18076      50455F43 
 18076      55525245 
 18077              	.LASF93:
 18078 0017 706F7274 		.ascii	"port_intctx\000"
 18078      5F696E74 
 18078      63747800 
 18079              	.LASF252:
 18080 0023 6374726C 		.ascii	"ctrl_type\000"
 18080      5F747970 
 18080      6500
 18081              	.LASF163:
 18082 002d 6C5F6D61 		.ascii	"l_max_erpm_fbrake\000"
 18082      785F6572 
 18082      706D5F66 
 18082      6272616B 
 18082      6500
 18083              	.LASF160:
 18084 003f 6C5F6162 		.ascii	"l_abs_current_max\000"
 18084      735F6375 
 18084      7272656E 
 18084      745F6D61 
 18084      7800
ARM GAS  /tmp/ccy8OeyM.s 			page 319


 18085              	.LASF243:
 18086 0051 50504D5F 		.ascii	"PPM_CTRL_TYPE_NONE\000"
 18086      4354524C 
 18086      5F545950 
 18086      455F4E4F 
 18086      4E4500
 18087              	.LASF426:
 18088 0064 636F6D6D 		.ascii	"commands_printf\000"
 18088      616E6473 
 18088      5F707269 
 18088      6E746600 
 18089              	.LASF31:
 18090 0074 6D73675F 		.ascii	"msg_t\000"
 18090      7400
 18091              	.LASF342:
 18092 007a 434F4D4D 		.ascii	"COMM_FW_VERSION\000"
 18092      5F46575F 
 18092      56455253 
 18092      494F4E00 
 18093              	.LASF391:
 18094 008a 464C4153 		.ascii	"FLASH_ERROR_PGA\000"
 18094      485F4552 
 18094      524F525F 
 18094      50474100 
 18095              	.LASF464:
 18096 009a 636F6E66 		.ascii	"conf_general_measure_flux_linkage\000"
 18096      5F67656E 
 18096      6572616C 
 18096      5F6D6561 
 18096      73757265 
 18097              	.LASF369:
 18098 00bc 434F4D4D 		.ascii	"COMM_DETECT_HALL_FOC\000"
 18098      5F444554 
 18098      4543545F 
 18098      48414C4C 
 18098      5F464F43 
 18099              	.LASF390:
 18100 00d1 464C4153 		.ascii	"FLASH_ERROR_PGP\000"
 18100      485F4552 
 18100      524F525F 
 18100      50475000 
 18101              	.LASF389:
 18102 00e1 464C4153 		.ascii	"FLASH_ERROR_PGS\000"
 18102      485F4552 
 18102      524F525F 
 18102      50475300 
 18103              	.LASF306:
 18104 00f1 4E52465F 		.ascii	"NRF_RETR_DELAY_750US\000"
 18104      52455452 
 18104      5F44454C 
 18104      41595F37 
 18104      35305553 
 18105              	.LASF83:
 18106 0106 63685F73 		.ascii	"ch_system_t\000"
 18106      79737465 
 18106      6D5F7400 
 18107              	.LASF3:
ARM GAS  /tmp/ccy8OeyM.s 			page 320


 18108 0112 5F5F7569 		.ascii	"__uint8_t\000"
 18108      6E74385F 
 18108      7400
 18109              	.LASF100:
 18110 011c 77747365 		.ascii	"wtsemp\000"
 18110      6D7000
 18111              	.LASF254:
 18112 0123 68797374 		.ascii	"hyst\000"
 18112      00
 18113              	.LASF231:
 18114 0128 5F426F6F 		.ascii	"_Bool\000"
 18114      6C00
 18115              	.LASF278:
 18116 012e 63635F62 		.ascii	"cc_button_inverted\000"
 18116      7574746F 
 18116      6E5F696E 
 18116      76657274 
 18116      656400
 18117              	.LASF404:
 18118 0141 636F6D6D 		.ascii	"commands_init\000"
 18118      616E6473 
 18118      5F696E69 
 18118      7400
 18119              	.LASF79:
 18120 014f 76745F73 		.ascii	"vt_systime\000"
 18120      79737469 
 18120      6D6500
 18121              	.LASF280:
 18122 015a 766F6C74 		.ascii	"voltage_inverted\000"
 18122      6167655F 
 18122      696E7665 
 18122      72746564 
 18122      00
 18123              	.LASF448:
 18124 016b 73656E64 		.ascii	"send_func\000"
 18124      5F66756E 
 18124      6300
 18125              	.LASF109:
 18126 0175 6D5F6E65 		.ascii	"m_next\000"
 18126      787400
 18127              	.LASF169:
 18128 017c 6C5F736C 		.ascii	"l_slow_abs_current\000"
 18128      6F775F61 
 18128      62735F63 
 18128      75727265 
 18128      6E7400
 18129              	.LASF435:
 18130 018f 73616D70 		.ascii	"samples\000"
 18130      6C657300 
 18131              	.LASF159:
 18132 0197 6C5F696E 		.ascii	"l_in_current_min\000"
 18132      5F637572 
 18132      72656E74 
 18132      5F6D696E 
 18132      00
 18133              	.LASF20:
 18134 01a8 75696E74 		.ascii	"uint16_t\000"
ARM GAS  /tmp/ccy8OeyM.s 			page 321


 18134      31365F74 
 18134      00
 18135              	.LASF295:
 18136 01b1 4E52465F 		.ascii	"NRF_POWER_M18DBM\000"
 18136      504F5745 
 18136      525F4D31 
 18136      3844424D 
 18136      00
 18137              	.LASF143:
 18138 01c2 44495350 		.ascii	"DISP_POS_MODE_ENCODER\000"
 18138      5F504F53 
 18138      5F4D4F44 
 18138      455F454E 
 18138      434F4445 
 18139              	.LASF394:
 18140 01d8 464C4153 		.ascii	"FLASH_ERROR_OPERATION\000"
 18140      485F4552 
 18140      524F525F 
 18140      4F504552 
 18140      4154494F 
 18141              	.LASF221:
 18142 01ee 63635F73 		.ascii	"cc_startup_boost_duty\000"
 18142      74617274 
 18142      75705F62 
 18142      6F6F7374 
 18142      5F647574 
 18143              	.LASF141:
 18144 0204 44495350 		.ascii	"DISP_POS_MODE_INDUCTANCE\000"
 18144      5F504F53 
 18144      5F4D4F44 
 18144      455F494E 
 18144      44554354 
 18145              	.LASF60:
 18146 021d 63685F74 		.ascii	"ch_threads_queue\000"
 18146      68726561 
 18146      64735F71 
 18146      75657565 
 18146      00
 18147              	.LASF446:
 18148 022e 64657465 		.ascii	"detect_hall_table\000"
 18148      63745F68 
 18148      616C6C5F 
 18148      7461626C 
 18148      6500
 18149              	.LASF161:
 18150 0240 6C5F6D69 		.ascii	"l_min_erpm\000"
 18150      6E5F6572 
 18150      706D00
 18151              	.LASF498:
 18152 024b 636F6D6D 		.ascii	"comm_can_send_buffer\000"
 18152      5F63616E 
 18152      5F73656E 
 18152      645F6275 
 18152      66666572 
 18153              	.LASF40:
 18154 0260 705F6E65 		.ascii	"p_newer\000"
 18154      77657200 
ARM GAS  /tmp/ccy8OeyM.s 			page 322


 18155              	.LASF194:
 18156 0268 666F635F 		.ascii	"foc_encoder_offset\000"
 18156      656E636F 
 18156      6465725F 
 18156      6F666673 
 18156      657400
 18157              	.LASF493:
 18158 027b 666C6173 		.ascii	"flash_helper_write_new_app_data\000"
 18158      685F6865 
 18158      6C706572 
 18158      5F777269 
 18158      74655F6E 
 18159              	.LASF379:
 18160 029b 6A735F78 		.ascii	"js_x\000"
 18160      00
 18161              	.LASF380:
 18162 02a0 6A735F79 		.ascii	"js_y\000"
 18162      00
 18163              	.LASF261:
 18164 02a5 6D756C74 		.ascii	"multi_esc\000"
 18164      695F6573 
 18164      6300
 18165              	.LASF325:
 18166 02af 72657472 		.ascii	"retries\000"
 18166      69657300 
 18167              	.LASF269:
 18168 02b7 4144435F 		.ascii	"ADC_CTRL_TYPE_CURRENT_NOREV_BRAKE_BUTTON\000"
 18168      4354524C 
 18168      5F545950 
 18168      455F4355 
 18168      5252454E 
 18169              	.LASF305:
 18170 02e0 4E52465F 		.ascii	"NRF_RETR_DELAY_500US\000"
 18170      52455452 
 18170      5F44454C 
 18170      41595F35 
 18170      30305553 
 18171              	.LASF298:
 18172 02f5 4E52465F 		.ascii	"NRF_POWER_0DBM\000"
 18172      504F5745 
 18172      525F3044 
 18172      424D00
 18173              	.LASF417:
 18174 0304 63687563 		.ascii	"chuck_d_tmp\000"
 18174      6B5F645F 
 18174      746D7000 
 18175              	.LASF449:
 18176 0310 61707064 		.ascii	"appdata_func\000"
 18176      6174615F 
 18176      66756E63 
 18176      00
 18177              	.LASF172:
 18178 031d 6C5F7465 		.ascii	"l_temp_fet_end\000"
 18178      6D705F66 
 18178      65745F65 
 18178      6E6400
 18179              	.LASF227:
ARM GAS  /tmp/ccy8OeyM.s 			page 323


 18180 032c 6D5F6475 		.ascii	"m_duty_ramp_step_rpm_lim\000"
 18180      74795F72 
 18180      616D705F 
 18180      73746570 
 18180      5F72706D 
 18181              	.LASF35:
 18182 0345 74687265 		.ascii	"thread_t\000"
 18182      61645F74 
 18182      00
 18183              	.LASF78:
 18184 034e 63685F76 		.ascii	"ch_virtual_timers_list\000"
 18184      69727475 
 18184      616C5F74 
 18184      696D6572 
 18184      735F6C69 
 18185              	.LASF21:
 18186 0365 696E7433 		.ascii	"int32_t\000"
 18186      325F7400 
 18187              	.LASF34:
 18188 036d 73797374 		.ascii	"systime_t\000"
 18188      696D655F 
 18188      7400
 18189              	.LASF354:
 18190 0377 434F4D4D 		.ascii	"COMM_SET_MCCONF\000"
 18190      5F534554 
 18190      5F4D4343 
 18190      4F4E4600 
 18191              	.LASF137:
 18192 0387 4641554C 		.ascii	"FAULT_CODE_OVER_TEMP_FET\000"
 18192      545F434F 
 18192      44455F4F 
 18192      5645525F 
 18192      54454D50 
 18193              	.LASF320:
 18194 03a0 4E52465F 		.ascii	"NRF_RETR_DELAY\000"
 18194      52455452 
 18194      5F44454C 
 18194      415900
 18195              	.LASF115:
 18196 03af 50574D5F 		.ascii	"PWM_MODE_BIPOLAR\000"
 18196      4D4F4445 
 18196      5F424950 
 18196      4F4C4152 
 18196      00
 18197              	.LASF116:
 18198 03c0 6D635F70 		.ascii	"mc_pwm_mode\000"
 18198      776D5F6D 
 18198      6F646500 
 18199              	.LASF444:
 18200 03cc 64657465 		.ascii	"detect_min_rpm\000"
 18200      63745F6D 
 18200      696E5F72 
 18200      706D00
 18201              	.LASF338:
 18202 03db 6170705F 		.ascii	"app_uart_baudrate\000"
 18202      75617274 
 18202      5F626175 
ARM GAS  /tmp/ccy8OeyM.s 			page 324


 18202      64726174 
 18202      6500
 18203              	.LASF508:
 18204 03ed 636F6E66 		.ascii	"conf_general_store_mc_configuration\000"
 18204      5F67656E 
 18204      6572616C 
 18204      5F73746F 
 18204      72655F6D 
 18205              	.LASF259:
 18206 0411 72706D5F 		.ascii	"rpm_lim_start\000"
 18206      6C696D5F 
 18206      73746172 
 18206      7400
 18207              	.LASF501:
 18208 041f 6170705F 		.ascii	"app_adc_get_decoded_level\000"
 18208      6164635F 
 18208      6765745F 
 18208      6465636F 
 18208      6465645F 
 18209              	.LASF438:
 18210 0439 64657465 		.ascii	"detect_thread_wa\000"
 18210      63745F74 
 18210      68726561 
 18210      645F7761 
 18210      00
 18211              	.LASF381:
 18212 044a 6163635F 		.ascii	"acc_x\000"
 18212      7800
 18213              	.LASF382:
 18214 0450 6163635F 		.ascii	"acc_y\000"
 18214      7900
 18215              	.LASF383:
 18216 0456 6163635F 		.ascii	"acc_z\000"
 18216      7A00
 18217              	.LASF86:
 18218 045c 76746C69 		.ascii	"vtlist\000"
 18218      737400
 18219              	.LASF242:
 18220 0463 6170705F 		.ascii	"app_use\000"
 18220      75736500 
 18221              	.LASF48:
 18222 046b 705F7761 		.ascii	"p_waiting\000"
 18222      6974696E 
 18222      6700
 18223              	.LASF431:
 18224 0475 696E6465 		.ascii	"index\000"
 18224      7800
 18225              	.LASF424:
 18226 047b 72657369 		.ascii	"resistance\000"
 18226      7374616E 
 18226      636500
 18227              	.LASF370:
 18228 0486 434F4D4D 		.ascii	"COMM_REBOOT\000"
 18228      5F524542 
 18228      4F4F5400 
 18229              	.LASF85:
 18230 0492 726C6973 		.ascii	"rlist\000"
ARM GAS  /tmp/ccy8OeyM.s 			page 325


 18230      7400
 18231              	.LASF56:
 18232 0498 74687265 		.ascii	"threads_list_t\000"
 18232      6164735F 
 18232      6C697374 
 18232      5F7400
 18233              	.LASF182:
 18234 04a7 736C5F6D 		.ascii	"sl_min_erpm_cycle_int_limit\000"
 18234      696E5F65 
 18234      72706D5F 
 18234      6379636C 
 18234      655F696E 
 18235              	.LASF191:
 18236 04c3 666F635F 		.ascii	"foc_current_ki\000"
 18236      63757272 
 18236      656E745F 
 18236      6B6900
 18237              	.LASF340:
 18238 04d2 6170705F 		.ascii	"app_nrf_conf\000"
 18238      6E72665F 
 18238      636F6E66 
 18238      00
 18239              	.LASF262:
 18240 04df 74635F6D 		.ascii	"tc_max_diff\000"
 18240      61785F64 
 18240      69666600 
 18241              	.LASF190:
 18242 04eb 666F635F 		.ascii	"foc_current_kp\000"
 18242      63757272 
 18242      656E745F 
 18242      6B7000
 18243              	.LASF428:
 18244 04fa 7072696E 		.ascii	"print_buffer\000"
 18244      745F6275 
 18244      66666572 
 18244      00
 18245              	.LASF296:
 18246 0507 4E52465F 		.ascii	"NRF_POWER_M12DBM\000"
 18246      504F5745 
 18246      525F4D31 
 18246      3244424D 
 18246      00
 18247              	.LASF458:
 18248 0518 6D656D63 		.ascii	"memcpy\000"
 18248      707900
 18249              	.LASF472:
 18250 051f 73657276 		.ascii	"servodec_get_last_pulse_len\000"
 18250      6F646563 
 18250      5F676574 
 18250      5F6C6173 
 18250      745F7075 
 18251              	.LASF466:
 18252 053b 636F6E66 		.ascii	"conf_general_get_default_app_configuration\000"
 18252      5F67656E 
 18252      6572616C 
 18252      5F676574 
 18252      5F646566 
ARM GAS  /tmp/ccy8OeyM.s 			page 326


 18253              	.LASF30:
 18254 0566 74707269 		.ascii	"tprio_t\000"
 18254      6F5F7400 
 18255              	.LASF337:
 18256 056e 6170705F 		.ascii	"app_adc_conf\000"
 18256      6164635F 
 18256      636F6E66 
 18256      00
 18257              	.LASF303:
 18258 057b 4E52465F 		.ascii	"NRF_CRC\000"
 18258      43524300 
 18259              	.LASF425:
 18260 0583 6C696E6B 		.ascii	"linkage\000"
 18260      61676500 
 18261              	.LASF125:
 18262 058b 464F435F 		.ascii	"FOC_SENSOR_MODE_ENCODER\000"
 18262      53454E53 
 18262      4F525F4D 
 18262      4F44455F 
 18262      454E434F 
 18263              	.LASF263:
 18264 05a3 70706D5F 		.ascii	"ppm_config\000"
 18264      636F6E66 
 18264      696700
 18265              	.LASF524:
 18266 05ae 5F5F6469 		.ascii	"__disable_irq\000"
 18266      7361626C 
 18266      655F6972 
 18266      7100
 18267              	.LASF250:
 18268 05bc 50504D5F 		.ascii	"PPM_CTRL_TYPE_PID_NOREV\000"
 18268      4354524C 
 18268      5F545950 
 18268      455F5049 
 18268      445F4E4F 
 18269              	.LASF275:
 18270 05d4 766F6C74 		.ascii	"voltage_start\000"
 18270      6167655F 
 18270      73746172 
 18270      7400
 18271              	.LASF111:
 18272 05e2 7466756E 		.ascii	"tfunc_t\000"
 18272      635F7400 
 18273              	.LASF518:
 18274 05ea 76736E70 		.ascii	"vsnprintf\000"
 18274      72696E74 
 18274      6600
 18275              	.LASF5:
 18276 05f4 5F5F696E 		.ascii	"__int16_t\000"
 18276      7431365F 
 18276      7400
 18277              	.LASF7:
 18278 05fe 5F5F7569 		.ascii	"__uint16_t\000"
 18278      6E743136 
 18278      5F7400
 18279              	.LASF360:
 18280 0609 434F4D4D 		.ascii	"COMM_SAMPLE_PRINT\000"
ARM GAS  /tmp/ccy8OeyM.s 			page 327


 18280      5F53414D 
 18280      504C455F 
 18280      5052494E 
 18280      5400
 18281              	.LASF282:
 18282 061b 6164635F 		.ascii	"adc_config\000"
 18282      636F6E66 
 18282      696700
 18283              	.LASF50:
 18284 0626 705F6D73 		.ascii	"p_msg\000"
 18284      6700
 18285              	.LASF225:
 18286 062c 6D5F6661 		.ascii	"m_fault_stop_time_ms\000"
 18286      756C745F 
 18286      73746F70 
 18286      5F74696D 
 18286      655F6D73 
 18287              	.LASF503:
 18288 0641 6170705F 		.ascii	"app_adc_get_decoded_level2\000"
 18288      6164635F 
 18288      6765745F 
 18288      6465636F 
 18288      6465645F 
 18289              	.LASF474:
 18290 065c 6D635F69 		.ascii	"mc_interface_set_pid_speed\000"
 18290      6E746572 
 18290      66616365 
 18290      5F736574 
 18290      5F706964 
 18291              	.LASF215:
 18292 0677 735F7069 		.ascii	"s_pid_kd\000"
 18292      645F6B64 
 18292      00
 18293              	.LASF398:
 18294 0680 5F5F676E 		.ascii	"__gnuc_va_list\000"
 18294      75635F76 
 18294      615F6C69 
 18294      737400
 18295              	.LASF197:
 18296 068f 666F635F 		.ascii	"foc_motor_l\000"
 18296      6D6F746F 
 18296      725F6C00 
 18297              	.LASF198:
 18298 069b 666F635F 		.ascii	"foc_motor_r\000"
 18298      6D6F746F 
 18298      725F7200 
 18299              	.LASF91:
 18300 06a7 73746B61 		.ascii	"stkalign_t\000"
 18300      6C69676E 
 18300      5F7400
 18301              	.LASF73:
 18302 06b2 76745F70 		.ascii	"vt_prev\000"
 18302      72657600 
 18303              	.LASF457:
 18304 06ba 63685468 		.ascii	"chThdCreateStatic\000"
 18304      64437265 
 18304      61746553 
ARM GAS  /tmp/ccy8OeyM.s 			page 328


 18304      74617469 
 18304      6300
 18305              	.LASF4:
 18306 06cc 756E7369 		.ascii	"unsigned char\000"
 18306      676E6564 
 18306      20636861 
 18306      7200
 18307              	.LASF216:
 18308 06da 735F7069 		.ascii	"s_pid_min_erpm\000"
 18308      645F6D69 
 18308      6E5F6572 
 18308      706D00
 18309              	.LASF105:
 18310 06e9 735F636E 		.ascii	"s_cnt\000"
 18310      7400
 18311              	.LASF61:
 18312 06ef 72656164 		.ascii	"ready_list_t\000"
 18312      795F6C69 
 18312      73745F74 
 18312      00
 18313              	.LASF57:
 18314 06fc 63685F74 		.ascii	"ch_thread\000"
 18314      68726561 
 18314      6400
 18315              	.LASF0:
 18316 0706 666C6F61 		.ascii	"float\000"
 18316      7400
 18317              	.LASF329:
 18318 070c 6E72665F 		.ascii	"nrf_config\000"
 18318      636F6E66 
 18318      696700
 18319              	.LASF297:
 18320 0717 4E52465F 		.ascii	"NRF_POWER_M6DBM\000"
 18320      504F5745 
 18320      525F4D36 
 18320      44424D00 
 18321              	.LASF439:
 18322 0727 64657465 		.ascii	"detect_tp\000"
 18322      63745F74 
 18322      7000
 18323              	.LASF192:
 18324 0731 666F635F 		.ascii	"foc_f_sw\000"
 18324      665F7377 
 18324      00
 18325              	.LASF257:
 18326 073a 6D656469 		.ascii	"median_filter\000"
 18326      616E5F66 
 18326      696C7465 
 18326      7200
 18327              	.LASF80:
 18328 0748 73797374 		.ascii	"system_debug_t\000"
 18328      656D5F64 
 18328      65627567 
 18328      5F7400
 18329              	.LASF171:
 18330 0757 6C5F7465 		.ascii	"l_temp_fet_start\000"
 18330      6D705F66 
ARM GAS  /tmp/ccy8OeyM.s 			page 329


 18330      65745F73 
 18330      74617274 
 18330      00
 18331              	.LASF230:
 18332 0768 6D5F7365 		.ascii	"m_sensor_port_mode\000"
 18332      6E736F72 
 18332      5F706F72 
 18332      745F6D6F 
 18332      646500
 18333              	.LASF443:
 18334 077b 64657465 		.ascii	"detect_current\000"
 18334      63745F63 
 18334      75727265 
 18334      6E7400
 18335              	.LASF39:
 18336 078a 705F6374 		.ascii	"p_ctx\000"
 18336      7800
 18337              	.LASF76:
 18338 0790 76745F70 		.ascii	"vt_par\000"
 18338      617200
 18339              	.LASF281:
 18340 0797 75706461 		.ascii	"update_rate_hz\000"
 18340      74655F72 
 18340      6174655F 
 18340      687A00
 18341              	.LASF68:
 18342 07a6 725F6375 		.ascii	"r_current\000"
 18342      7272656E 
 18342      7400
 18343              	.LASF371:
 18344 07b0 434F4D4D 		.ascii	"COMM_ALIVE\000"
 18344      5F414C49 
 18344      564500
 18345              	.LASF153:
 18346 07bb 636F6D6D 		.ascii	"comm_mode\000"
 18346      5F6D6F64 
 18346      6500
 18347              	.LASF170:
 18348 07c5 6C5F7270 		.ascii	"l_rpm_lim_neg_torque\000"
 18348      6D5F6C69 
 18348      6D5F6E65 
 18348      675F746F 
 18348      72717565 
 18349              	.LASF136:
 18350 07da 4641554C 		.ascii	"FAULT_CODE_ABS_OVER_CURRENT\000"
 18350      545F434F 
 18350      44455F41 
 18350      42535F4F 
 18350      5645525F 
 18351              	.LASF200:
 18352 07f6 666F635F 		.ascii	"foc_observer_gain\000"
 18352      6F627365 
 18352      72766572 
 18352      5F676169 
 18352      6E00
 18353              	.LASF289:
 18354 0808 73746963 		.ascii	"stick_erpm_per_s_in_cc\000"
ARM GAS  /tmp/ccy8OeyM.s 			page 330


 18354      6B5F6572 
 18354      706D5F70 
 18354      65725F73 
 18354      5F696E5F 
 18355              	.LASF526:
 18356 081f 636F6D6D 		.ascii	"commands_get_disp_pos_mode\000"
 18356      616E6473 
 18356      5F676574 
 18356      5F646973 
 18356      705F706F 
 18357              	.LASF23:
 18358 083a 75696E74 		.ascii	"uint64_t\000"
 18358      36345F74 
 18358      00
 18359              	.LASF461:
 18360 0843 6D637077 		.ascii	"mcpwm_foc_hall_detect\000"
 18360      6D5F666F 
 18360      635F6861 
 18360      6C6C5F64 
 18360      65746563 
 18361              	.LASF319:
 18362 0859 4E52465F 		.ascii	"NRF_RETR_DELAY_4000US\000"
 18362      52455452 
 18362      5F44454C 
 18362      41595F34 
 18362      30303055 
 18363              	.LASF388:
 18364 086f 464C4153 		.ascii	"FLASH_ERROR_RD\000"
 18364      485F4552 
 18364      524F525F 
 18364      524400
 18365              	.LASF434:
 18366 087e 636F6D6D 		.ascii	"commands_send_experiment_samples\000"
 18366      616E6473 
 18366      5F73656E 
 18366      645F6578 
 18366      70657269 
 18367              	.LASF142:
 18368 089f 44495350 		.ascii	"DISP_POS_MODE_OBSERVER\000"
 18368      5F504F53 
 18368      5F4D4F44 
 18368      455F4F42 
 18368      53455256 
 18369              	.LASF481:
 18370 08b6 6D635F69 		.ascii	"mc_interface_read_reset_avg_motor_current\000"
 18370      6E746572 
 18370      66616365 
 18370      5F726561 
 18370      645F7265 
 18371              	.LASF106:
 18372 08e0 63685F6D 		.ascii	"ch_mutex\000"
 18372      75746578 
 18372      00
 18373              	.LASF140:
 18374 08e9 44495350 		.ascii	"DISP_POS_MODE_NONE\000"
 18374      5F504F53 
 18374      5F4D4F44 
ARM GAS  /tmp/ccy8OeyM.s 			page 331


 18374      455F4E4F 
 18374      4E4500
 18375              	.LASF393:
 18376 08fc 464C4153 		.ascii	"FLASH_ERROR_PROGRAM\000"
 18376      485F4552 
 18376      524F525F 
 18376      50524F47 
 18376      52414D00 
 18377              	.LASF497:
 18378 0910 6170705F 		.ascii	"app_nunchuk_update_output\000"
 18378      6E756E63 
 18378      68756B5F 
 18378      75706461 
 18378      74655F6F 
 18379              	.LASF121:
 18380 092a 53454E53 		.ascii	"SENSOR_MODE_SENSORED\000"
 18380      4F525F4D 
 18380      4F44455F 
 18380      53454E53 
 18380      4F524544 
 18381              	.LASF267:
 18382 093f 4144435F 		.ascii	"ADC_CTRL_TYPE_CURRENT_REV_BUTTON\000"
 18382      4354524C 
 18382      5F545950 
 18382      455F4355 
 18382      5252454E 
 18383              	.LASF401:
 18384 0960 76615F6C 		.ascii	"va_list\000"
 18384      69737400 
 18385              	.LASF384:
 18386 0968 62745F63 		.ascii	"bt_c\000"
 18386      00
 18387              	.LASF294:
 18388 096d 4E52465F 		.ascii	"NRF_SPEED\000"
 18388      53504545 
 18388      4400
 18389              	.LASF288:
 18390 0977 72616D70 		.ascii	"ramp_time_neg\000"
 18390      5F74696D 
 18390      655F6E65 
 18390      6700
 18391              	.LASF385:
 18392 0985 62745F7A 		.ascii	"bt_z\000"
 18392      00
 18393              	.LASF70:
 18394 098a 76697274 		.ascii	"virtual_timer_t\000"
 18394      75616C5F 
 18394      74696D65 
 18394      725F7400 
 18395              	.LASF65:
 18396 099a 725F6374 		.ascii	"r_ctx\000"
 18396      7800
 18397              	.LASF72:
 18398 09a0 76745F6E 		.ascii	"vt_next\000"
 18398      65787400 
 18399              	.LASF345:
 18400 09a8 434F4D4D 		.ascii	"COMM_WRITE_NEW_APP_DATA\000"
ARM GAS  /tmp/ccy8OeyM.s 			page 332


 18400      5F575249 
 18400      54455F4E 
 18400      45575F41 
 18400      50505F44 
 18401              	.LASF344:
 18402 09c0 434F4D4D 		.ascii	"COMM_ERASE_NEW_APP\000"
 18402      5F455241 
 18402      53455F4E 
 18402      45575F41 
 18402      505000
 18403              	.LASF25:
 18404 09d3 7274636E 		.ascii	"rtcnt_t\000"
 18404      745F7400 
 18405              	.LASF122:
 18406 09db 53454E53 		.ascii	"SENSOR_MODE_HYBRID\000"
 18406      4F525F4D 
 18406      4F44455F 
 18406      48594252 
 18406      494400
 18407              	.LASF387:
 18408 09ee 464C4153 		.ascii	"FLASH_BUSY\000"
 18408      485F4255 
 18408      535900
 18409              	.LASF177:
 18410 09f9 6C6F5F63 		.ascii	"lo_current_max\000"
 18410      75727265 
 18410      6E745F6D 
 18410      617800
 18411              	.LASF195:
 18412 0a08 666F635F 		.ascii	"foc_encoder_inverted\000"
 18412      656E636F 
 18412      6465725F 
 18412      696E7665 
 18412      72746564 
 18413              	.LASF222:
 18414 0a1d 63635F6D 		.ascii	"cc_min_current\000"
 18414      696E5F63 
 18414      75727265 
 18414      6E7400
 18415              	.LASF256:
 18416 0a2c 70756C73 		.ascii	"pulse_end\000"
 18416      655F656E 
 18416      6400
 18417              	.LASF149:
 18418 0a36 53454E53 		.ascii	"SENSOR_PORT_MODE_ABI\000"
 18418      4F525F50 
 18418      4F52545F 
 18418      4D4F4445 
 18418      5F414249 
 18419              	.LASF266:
 18420 0a4b 4144435F 		.ascii	"ADC_CTRL_TYPE_CURRENT_REV_CENTER\000"
 18420      4354524C 
 18420      5F545950 
 18420      455F4355 
 18420      5252454E 
 18421              	.LASF514:
 18422 0a6c 6170705F 		.ascii	"app_set_configuration\000"
ARM GAS  /tmp/ccy8OeyM.s 			page 333


 18422      7365745F 
 18422      636F6E66 
 18422      69677572 
 18422      6174696F 
 18423              	.LASF24:
 18424 0a82 73697A65 		.ascii	"size_t\000"
 18424      5F7400
 18425              	.LASF150:
 18426 0a89 53454E53 		.ascii	"SENSOR_PORT_MODE_AS5047_SPI\000"
 18426      4F525F50 
 18426      4F52545F 
 18426      4D4F4445 
 18426      5F415335 
 18427              	.LASF331:
 18428 0aa5 74696D65 		.ascii	"timeout_msec\000"
 18428      6F75745F 
 18428      6D736563 
 18428      00
 18429              	.LASF18:
 18430 0ab2 75696E74 		.ascii	"uint8_t\000"
 18430      385F7400 
 18431              	.LASF333:
 18432 0aba 73656E64 		.ascii	"send_can_status\000"
 18432      5F63616E 
 18432      5F737461 
 18432      74757300 
 18433              	.LASF67:
 18434 0aca 725F6F6C 		.ascii	"r_older\000"
 18434      64657200 
 18435              	.LASF37:
 18436 0ad2 705F7072 		.ascii	"p_prev\000"
 18436      657600
 18437              	.LASF367:
 18438 0ad9 434F4D4D 		.ascii	"COMM_DETECT_MOTOR_FLUX_LINKAGE\000"
 18438      5F444554 
 18438      4543545F 
 18438      4D4F544F 
 18438      525F464C 
 18439              	.LASF239:
 18440 0af8 4150505F 		.ascii	"APP_NUNCHUK\000"
 18440      4E554E43 
 18440      48554B00 
 18441              	.LASF386:
 18442 0b04 63687563 		.ascii	"chuck_data\000"
 18442      6B5F6461 
 18442      746100
 18443              	.LASF166:
 18444 0b0f 6C5F6D61 		.ascii	"l_max_vin\000"
 18444      785F7669 
 18444      6E00
 18445              	.LASF442:
 18446 0b19 64657465 		.ascii	"detect_coupling_k\000"
 18446      63745F63 
 18446      6F75706C 
 18446      696E675F 
 18446      6B00
 18447              	.LASF97:
ARM GAS  /tmp/ccy8OeyM.s 			page 334


 18448 0b2b 65786974 		.ascii	"exitcode\000"
 18448      636F6465 
 18448      00
 18449              	.LASF328:
 18450 0b34 73656E64 		.ascii	"send_crc_ack\000"
 18450      5F637263 
 18450      5F61636B 
 18450      00
 18451              	.LASF408:
 18452 0b41 7061636B 		.ascii	"packet_id\000"
 18452      65745F69 
 18452      6400
 18453              	.LASF234:
 18454 0b4b 4150505F 		.ascii	"APP_PPM\000"
 18454      50504D00 
 18455              	.LASF482:
 18456 0b53 6D635F69 		.ascii	"mc_interface_read_reset_avg_input_current\000"
 18456      6E746572 
 18456      66616365 
 18456      5F726561 
 18456      645F7265 
 18457              	.LASF484:
 18458 0b7d 6D635F69 		.ascii	"mc_interface_get_rpm\000"
 18458      6E746572 
 18458      66616365 
 18458      5F676574 
 18458      5F72706D 
 18459              	.LASF468:
 18460 0b92 62756666 		.ascii	"buffer_append_uint16\000"
 18460      65725F61 
 18460      7070656E 
 18460      645F7569 
 18460      6E743136 
 18461              	.LASF272:
 18462 0ba7 4144435F 		.ascii	"ADC_CTRL_TYPE_DUTY_REV_CENTER\000"
 18462      4354524C 
 18462      5F545950 
 18462      455F4455 
 18462      54595F52 
 18463              	.LASF251:
 18464 0bc5 70706D5F 		.ascii	"ppm_control_type\000"
 18464      636F6E74 
 18464      726F6C5F 
 18464      74797065 
 18464      00
 18465              	.LASF415:
 18466 0bd6 666C6173 		.ascii	"flash_res\000"
 18466      685F7265 
 18466      7300
 18467              	.LASF347:
 18468 0be0 434F4D4D 		.ascii	"COMM_SET_DUTY\000"
 18468      5F534554 
 18468      5F445554 
 18468      5900
 18469              	.LASF167:
 18470 0bee 6C5F6261 		.ascii	"l_battery_cut_start\000"
 18470      74746572 
ARM GAS  /tmp/ccy8OeyM.s 			page 335


 18470      795F6375 
 18470      745F7374 
 18470      61727400 
 18471              	.LASF145:
 18472 0c02 44495350 		.ascii	"DISP_POS_MODE_PID_POS_ERROR\000"
 18472      5F504F53 
 18472      5F4D4F44 
 18472      455F5049 
 18472      445F504F 
 18473              	.LASF165:
 18474 0c1e 6C5F6D69 		.ascii	"l_min_vin\000"
 18474      6E5F7669 
 18474      6E00
 18475              	.LASF313:
 18476 0c28 4E52465F 		.ascii	"NRF_RETR_DELAY_2500US\000"
 18476      52455452 
 18476      5F44454C 
 18476      41595F32 
 18476      35303055 
 18477              	.LASF355:
 18478 0c3e 434F4D4D 		.ascii	"COMM_GET_MCCONF\000"
 18478      5F474554 
 18478      5F4D4343 
 18478      4F4E4600 
 18479              	.LASF211:
 18480 0c4e 666F635F 		.ascii	"foc_hall_table\000"
 18480      68616C6C 
 18480      5F746162 
 18480      6C6500
 18481              	.LASF353:
 18482 0c5d 434F4D4D 		.ascii	"COMM_SET_SERVO_POS\000"
 18482      5F534554 
 18482      5F534552 
 18482      564F5F50 
 18482      4F5300
 18483              	.LASF483:
 18484 0c70 6D635F69 		.ascii	"mc_interface_get_duty_cycle_now\000"
 18484      6E746572 
 18484      66616365 
 18484      5F676574 
 18484      5F647574 
 18485              	.LASF372:
 18486 0c90 434F4D4D 		.ascii	"COMM_GET_DECODED_PPM\000"
 18486      5F474554 
 18486      5F444543 
 18486      4F444544 
 18486      5F50504D 
 18487              	.LASF144:
 18488 0ca5 44495350 		.ascii	"DISP_POS_MODE_PID_POS\000"
 18488      5F504F53 
 18488      5F4D4F44 
 18488      455F5049 
 18488      445F504F 
 18489              	.LASF130:
 18490 0cbb 4D4F544F 		.ascii	"MOTOR_TYPE_FOC\000"
 18490      525F5459 
 18490      50455F46 
ARM GAS  /tmp/ccy8OeyM.s 			page 336


 18490      4F4300
 18491              	.LASF181:
 18492 0cca 736C5F6D 		.ascii	"sl_min_erpm\000"
 18492      696E5F65 
 18492      72706D00 
 18493              	.LASF133:
 18494 0cd6 4641554C 		.ascii	"FAULT_CODE_OVER_VOLTAGE\000"
 18494      545F434F 
 18494      44455F4F 
 18494      5645525F 
 18494      564F4C54 
 18495              	.LASF228:
 18496 0cee 6D5F6375 		.ascii	"m_current_backoff_gain\000"
 18496      7272656E 
 18496      745F6261 
 18496      636B6F66 
 18496      665F6761 
 18497              	.LASF467:
 18498 0d05 62756666 		.ascii	"buffer_append_uint32\000"
 18498      65725F61 
 18498      7070656E 
 18498      645F7569 
 18498      6E743332 
 18499              	.LASF375:
 18500 0d1a 434F4D4D 		.ascii	"COMM_FORWARD_CAN\000"
 18500      5F464F52 
 18500      57415244 
 18500      5F43414E 
 18500      00
 18501              	.LASF96:
 18502 0d2b 7264796D 		.ascii	"rdymsg\000"
 18502      736700
 18503              	.LASF176:
 18504 0d32 6C5F6D61 		.ascii	"l_max_duty\000"
 18504      785F6475 
 18504      747900
 18505              	.LASF364:
 18506 0d3d 434F4D4D 		.ascii	"COMM_EXPERIMENT_SAMPLE\000"
 18506      5F455850 
 18506      4552494D 
 18506      454E545F 
 18506      53414D50 
 18507              	.LASF414:
 18508 0d54 61707063 		.ascii	"appconf\000"
 18508      6F6E6600 
 18509              	.LASF463:
 18510 0d5c 62756666 		.ascii	"buffer_append_float32\000"
 18510      65725F61 
 18510      7070656E 
 18510      645F666C 
 18510      6F617433 
 18511              	.LASF38:
 18512 0d72 705F7072 		.ascii	"p_prio\000"
 18512      696F00
 18513              	.LASF491:
 18514 0d79 6D635F69 		.ascii	"mc_interface_get_fault\000"
 18514      6E746572 
ARM GAS  /tmp/ccy8OeyM.s 			page 337


 18514      66616365 
 18514      5F676574 
 18514      5F666175 
 18515              	.LASF14:
 18516 0d90 5F5F7569 		.ascii	"__uint64_t\000"
 18516      6E743634 
 18516      5F7400
 18517              	.LASF317:
 18518 0d9b 4E52465F 		.ascii	"NRF_RETR_DELAY_3500US\000"
 18518      52455452 
 18518      5F44454C 
 18518      41595F33 
 18518      35303055 
 18519              	.LASF212:
 18520 0db1 666F635F 		.ascii	"foc_sl_erpm\000"
 18520      736C5F65 
 18520      72706D00 
 18521              	.LASF470:
 18522 0dbd 74696D65 		.ascii	"timeout_reset\000"
 18522      6F75745F 
 18522      72657365 
 18522      7400
 18523              	.LASF327:
 18524 0dcb 61646472 		.ascii	"address\000"
 18524      65737300 
 18525              	.LASF185:
 18526 0dd3 736C5F70 		.ascii	"sl_phase_advance_at_br\000"
 18526      68617365 
 18526      5F616476 
 18526      616E6365 
 18526      5F61745F 
 18527              	.LASF268:
 18528 0dea 4144435F 		.ascii	"ADC_CTRL_TYPE_CURRENT_NOREV_BRAKE_CENTER\000"
 18528      4354524C 
 18528      5F545950 
 18528      455F4355 
 18528      5252454E 
 18529              	.LASF36:
 18530 0e13 705F6E65 		.ascii	"p_next\000"
 18530      787400
 18531              	.LASF326:
 18532 0e1a 6368616E 		.ascii	"channel\000"
 18532      6E656C00 
 18533              	.LASF223:
 18534 0e22 63635F67 		.ascii	"cc_gain\000"
 18534      61696E00 
 18535              	.LASF309:
 18536 0e2a 4E52465F 		.ascii	"NRF_RETR_DELAY_1500US\000"
 18536      52455452 
 18536      5F44454C 
 18536      41595F31 
 18536      35303055 
 18537              	.LASF28:
 18538 0e40 74726566 		.ascii	"trefs_t\000"
 18538      735F7400 
 18539              	.LASF520:
 18540 0e48 636F6D6D 		.ascii	"commands.c\000"
ARM GAS  /tmp/ccy8OeyM.s 			page 338


 18540      616E6473 
 18540      2E6300
 18541              	.LASF54:
 18542 0e53 705F6D70 		.ascii	"p_mpool\000"
 18542      6F6F6C00 
 18543              	.LASF152:
 18544 0e5b 70776D5F 		.ascii	"pwm_mode\000"
 18544      6D6F6465 
 18544      00
 18545              	.LASF273:
 18546 0e64 4144435F 		.ascii	"ADC_CTRL_TYPE_DUTY_REV_BUTTON\000"
 18546      4354524C 
 18546      5F545950 
 18546      455F4455 
 18546      54595F52 
 18547              	.LASF154:
 18548 0e82 6D6F746F 		.ascii	"motor_type\000"
 18548      725F7479 
 18548      706500
 18549              	.LASF178:
 18550 0e8d 6C6F5F63 		.ascii	"lo_current_min\000"
 18550      75727265 
 18550      6E745F6D 
 18550      696E00
 18551              	.LASF183:
 18552 0e9c 736C5F6D 		.ascii	"sl_max_fullbreak_current_dir_change\000"
 18552      61785F66 
 18552      756C6C62 
 18552      7265616B 
 18552      5F637572 
 18553              	.LASF441:
 18554 0ec0 64657465 		.ascii	"detect_cycle_int_limit\000"
 18554      63745F63 
 18554      79636C65 
 18554      5F696E74 
 18554      5F6C696D 
 18555              	.LASF26:
 18556 0ed7 746D6F64 		.ascii	"tmode_t\000"
 18556      655F7400 
 18557              	.LASF208:
 18558 0edf 666F635F 		.ascii	"foc_sl_d_current_duty\000"
 18558      736C5F64 
 18558      5F637572 
 18558      72656E74 
 18558      5F647574 
 18559              	.LASF314:
 18560 0ef5 4E52465F 		.ascii	"NRF_RETR_DELAY_2750US\000"
 18560      52455452 
 18560      5F44454C 
 18560      41595F32 
 18560      37353055 
 18561              	.LASF188:
 18562 0f0b 68616C6C 		.ascii	"hall_table\000"
 18562      5F746162 
 18562      6C6500
 18563              	.LASF419:
 18564 0f16 68616C6C 		.ascii	"hall_tab\000"
ARM GAS  /tmp/ccy8OeyM.s 			page 339


 18564      5F746162 
 18564      00
 18565              	.LASF517:
 18566 0f1f 6D656D73 		.ascii	"memset\000"
 18566      657400
 18567              	.LASF129:
 18568 0f26 4D4F544F 		.ascii	"MOTOR_TYPE_DC\000"
 18568      525F5459 
 18568      50455F44 
 18568      4300
 18569              	.LASF310:
 18570 0f34 4E52465F 		.ascii	"NRF_RETR_DELAY_1750US\000"
 18570      52455452 
 18570      5F44454C 
 18570      41595F31 
 18570      37353055 
 18571              	.LASF454:
 18572 0f4a 636F6E66 		.ascii	"conf_general_detect_motor_param\000"
 18572      5F67656E 
 18572      6572616C 
 18572      5F646574 
 18572      6563745F 
 18573              	.LASF244:
 18574 0f6a 50504D5F 		.ascii	"PPM_CTRL_TYPE_CURRENT\000"
 18574      4354524C 
 18574      5F545950 
 18574      455F4355 
 18574      5252454E 
 18575              	.LASF339:
 18576 0f80 6170705F 		.ascii	"app_chuk_conf\000"
 18576      6368756B 
 18576      5F636F6E 
 18576      6600
 18577              	.LASF199:
 18578 0f8e 666F635F 		.ascii	"foc_motor_flux_linkage\000"
 18578      6D6F746F 
 18578      725F666C 
 18578      75785F6C 
 18578      696E6B61 
 18579              	.LASF402:
 18580 0fa5 6E616D65 		.ascii	"name\000"
 18580      00
 18581              	.LASF184:
 18582 0faa 736C5F63 		.ascii	"sl_cycle_int_limit\000"
 18582      79636C65 
 18582      5F696E74 
 18582      5F6C696D 
 18582      697400
 18583              	.LASF17:
 18584 0fbd 696E7438 		.ascii	"int8_t\000"
 18584      5F7400
 18585              	.LASF82:
 18586 0fc4 70616E69 		.ascii	"panic_msg\000"
 18586      635F6D73 
 18586      6700
 18587              	.LASF332:
 18588 0fce 74696D65 		.ascii	"timeout_brake_current\000"
ARM GAS  /tmp/ccy8OeyM.s 			page 340


 18588      6F75745F 
 18588      6272616B 
 18588      655F6375 
 18588      7272656E 
 18589              	.LASF66:
 18590 0fe4 725F6E65 		.ascii	"r_newer\000"
 18590      77657200 
 18591              	.LASF348:
 18592 0fec 434F4D4D 		.ascii	"COMM_SET_CURRENT\000"
 18592      5F534554 
 18592      5F435552 
 18592      52454E54 
 18592      00
 18593              	.LASF378:
 18594 0ffd 434F4D4D 		.ascii	"COMM_PACKET_ID\000"
 18594      5F504143 
 18594      4B45545F 
 18594      494400
 18595              	.LASF29:
 18596 100c 74736C69 		.ascii	"tslices_t\000"
 18596      6365735F 
 18596      7400
 18597              	.LASF496:
 18598 1016 62756666 		.ascii	"buffer_get_int16\000"
 18598      65725F67 
 18598      65745F69 
 18598      6E743136 
 18598      00
 18599              	.LASF74:
 18600 1027 76745F64 		.ascii	"vt_delta\000"
 18600      656C7461 
 18600      00
 18601              	.LASF89:
 18602 1030 73697A65 		.ascii	"sizetype\000"
 18602      74797065 
 18602      00
 18603              	.LASF19:
 18604 1039 696E7431 		.ascii	"int16_t\000"
 18604      365F7400 
 18605              	.LASF8:
 18606 1041 73686F72 		.ascii	"short unsigned int\000"
 18606      7420756E 
 18606      7369676E 
 18606      65642069 
 18606      6E7400
 18607              	.LASF1:
 18608 1054 7369676E 		.ascii	"signed char\000"
 18608      65642063 
 18608      68617200 
 18609              	.LASF445:
 18610 1060 64657465 		.ascii	"detect_low_duty\000"
 18610      63745F6C 
 18610      6F775F64 
 18610      75747900 
 18611              	.LASF46:
 18612 1070 705F7072 		.ascii	"p_preempt\000"
 18612      65656D70 
ARM GAS  /tmp/ccy8OeyM.s 			page 341


 18612      7400
 18613              	.LASF162:
 18614 107a 6C5F6D61 		.ascii	"l_max_erpm\000"
 18614      785F6572 
 18614      706D00
 18615              	.LASF47:
 18616 1085 705F7469 		.ascii	"p_time\000"
 18616      6D6500
 18617              	.LASF418:
 18618 108c 63757272 		.ascii	"current\000"
 18618      656E7400 
 18619              	.LASF471:
 18620 1094 73657276 		.ascii	"servodec_get_servo\000"
 18620      6F646563 
 18620      5F676574 
 18620      5F736572 
 18620      766F00
 18621              	.LASF506:
 18622 10a7 7465726D 		.ascii	"terminal_process_string\000"
 18622      696E616C 
 18622      5F70726F 
 18622      63657373 
 18622      5F737472 
 18623              	.LASF479:
 18624 10bf 62756666 		.ascii	"buffer_append_float16\000"
 18624      65725F61 
 18624      7070656E 
 18624      645F666C 
 18624      6F617431 
 18625              	.LASF473:
 18626 10d5 62756666 		.ascii	"buffer_get_int32\000"
 18626      65725F67 
 18626      65745F69 
 18626      6E743332 
 18626      00
 18627              	.LASF336:
 18628 10e6 6170705F 		.ascii	"app_ppm_conf\000"
 18628      70706D5F 
 18628      636F6E66 
 18628      00
 18629              	.LASF436:
 18630 10f3 636F6D6D 		.ascii	"commands_set_app_data_handler\000"
 18630      616E6473 
 18630      5F736574 
 18630      5F617070 
 18630      5F646174 
 18631              	.LASF138:
 18632 1111 4641554C 		.ascii	"FAULT_CODE_OVER_TEMP_MOTOR\000"
 18632      545F434F 
 18632      44455F4F 
 18632      5645525F 
 18632      54454D50 
 18633              	.LASF49:
 18634 112c 705F6D73 		.ascii	"p_msgqueue\000"
 18634      67717565 
 18634      756500
 18635              	.LASF447:
ARM GAS  /tmp/ccy8OeyM.s 			page 342


 18636 1137 64657465 		.ascii	"detect_hall_res\000"
 18636      63745F68 
 18636      616C6C5F 
 18636      72657300 
 18637              	.LASF260:
 18638 1147 72706D5F 		.ascii	"rpm_lim_end\000"
 18638      6C696D5F 
 18638      656E6400 
 18639              	.LASF204:
 18640 1153 666F635F 		.ascii	"foc_duty_dowmramp_ki\000"
 18640      64757479 
 18640      5F646F77 
 18640      6D72616D 
 18640      705F6B69 
 18641              	.LASF304:
 18642 1168 4E52465F 		.ascii	"NRF_RETR_DELAY_250US\000"
 18642      52455452 
 18642      5F44454C 
 18642      41595F32 
 18642      35305553 
 18643              	.LASF108:
 18644 117d 6D5F6F77 		.ascii	"m_owner\000"
 18644      6E657200 
 18645              	.LASF203:
 18646 1185 666F635F 		.ascii	"foc_duty_dowmramp_kp\000"
 18646      64757479 
 18646      5F646F77 
 18646      6D72616D 
 18646      705F6B70 
 18647              	.LASF525:
 18648 119a 64657465 		.ascii	"detect_thread\000"
 18648      63745F74 
 18648      68726561 
 18648      6400
 18649              	.LASF504:
 18650 11a8 6170705F 		.ascii	"app_adc_get_voltage2\000"
 18650      6164635F 
 18650      6765745F 
 18650      766F6C74 
 18650      61676532 
 18651              	.LASF411:
 18652 11bd 61745F73 		.ascii	"at_start\000"
 18652      74617274 
 18652      00
 18653              	.LASF84:
 18654 11c6 63685F73 		.ascii	"ch_system\000"
 18654      79737465 
 18654      6D00
 18655              	.LASF156:
 18656 11d0 6C5F6375 		.ascii	"l_current_max\000"
 18656      7272656E 
 18656      745F6D61 
 18656      7800
 18657              	.LASF406:
 18658 11de 66756E63 		.ascii	"func\000"
 18658      00
 18659              	.LASF291:
ARM GAS  /tmp/ccy8OeyM.s 			page 343


 18660 11e3 4E52465F 		.ascii	"NRF_SPEED_250K\000"
 18660      53504545 
 18660      445F3235 
 18660      304B00
 18661              	.LASF103:
 18662 11f2 63685F73 		.ascii	"ch_semaphore\000"
 18662      656D6170 
 18662      686F7265 
 18662      00
 18663              	.LASF246:
 18664 11ff 50504D5F 		.ascii	"PPM_CTRL_TYPE_CURRENT_NOREV_BRAKE\000"
 18664      4354524C 
 18664      5F545950 
 18664      455F4355 
 18664      5252454E 
 18665              	.LASF285:
 18666 1221 4348554B 		.ascii	"CHUK_CTRL_TYPE_CURRENT_NOREV\000"
 18666      5F435452 
 18666      4C5F5459 
 18666      50455F43 
 18666      55525245 
 18667              	.LASF283:
 18668 123e 4348554B 		.ascii	"CHUK_CTRL_TYPE_NONE\000"
 18668      5F435452 
 18668      4C5F5459 
 18668      50455F4E 
 18668      4F4E4500 
 18669              	.LASF59:
 18670 1252 74687265 		.ascii	"threads_queue_t\000"
 18670      6164735F 
 18670      71756575 
 18670      655F7400 
 18671              	.LASF148:
 18672 1262 53454E53 		.ascii	"SENSOR_PORT_MODE_HALL\000"
 18672      4F525F50 
 18672      4F52545F 
 18672      4D4F4445 
 18672      5F48414C 
 18673              	.LASF323:
 18674 1278 6372635F 		.ascii	"crc_type\000"
 18674      74797065 
 18674      00
 18675              	.LASF452:
 18676 1281 4144435F 		.ascii	"ADC_Value\000"
 18676      56616C75 
 18676      6500
 18677              	.LASF124:
 18678 128b 464F435F 		.ascii	"FOC_SENSOR_MODE_SENSORLESS\000"
 18678      53454E53 
 18678      4F525F4D 
 18678      4F44455F 
 18678      53454E53 
 18679              	.LASF45:
 18680 12a6 705F7265 		.ascii	"p_refs\000"
 18680      667300
 18681              	.LASF286:
 18682 12ad 6368756B 		.ascii	"chuk_control_type\000"
ARM GAS  /tmp/ccy8OeyM.s 			page 344


 18682      5F636F6E 
 18682      74726F6C 
 18682      5F747970 
 18682      6500
 18683              	.LASF476:
 18684 12bf 6D635F69 		.ascii	"mc_interface_set_current\000"
 18684      6E746572 
 18684      66616365 
 18684      5F736574 
 18684      5F637572 
 18685              	.LASF123:
 18686 12d8 6D635F73 		.ascii	"mc_sensor_mode\000"
 18686      656E736F 
 18686      725F6D6F 
 18686      646500
 18687              	.LASF10:
 18688 12e7 6C6F6E67 		.ascii	"long int\000"
 18688      20696E74 
 18688      00
 18689              	.LASF87:
 18690 12f0 6D61696E 		.ascii	"mainthread\000"
 18690      74687265 
 18690      616400
 18691              	.LASF107:
 18692 12fb 6D5F7175 		.ascii	"m_queue\000"
 18692      65756500 
 18693              	.LASF352:
 18694 1303 434F4D4D 		.ascii	"COMM_SET_DETECT\000"
 18694      5F534554 
 18694      5F444554 
 18694      45435400 
 18695              	.LASF427:
 18696 1313 666F726D 		.ascii	"format\000"
 18696      617400
 18697              	.LASF343:
 18698 131a 434F4D4D 		.ascii	"COMM_JUMP_TO_BOOTLOADER\000"
 18698      5F4A554D 
 18698      505F544F 
 18698      5F424F4F 
 18698      544C4F41 
 18699              	.LASF117:
 18700 1332 434F4D4D 		.ascii	"COMM_MODE_INTEGRATE\000"
 18700      5F4D4F44 
 18700      455F494E 
 18700      54454752 
 18700      41544500 
 18701              	.LASF249:
 18702 1346 50504D5F 		.ascii	"PPM_CTRL_TYPE_PID\000"
 18702      4354524C 
 18702      5F545950 
 18702      455F5049 
 18702      4400
 18703              	.LASF99:
 18704 1358 77747472 		.ascii	"wttrp\000"
 18704      7000
 18705              	.LASF92:
 18706 135e 636F6E74 		.ascii	"context\000"
ARM GAS  /tmp/ccy8OeyM.s 			page 345


 18706      65787400 
 18707              	.LASF511:
 18708 1366 6D635F69 		.ascii	"mc_interface_sample_print_data\000"
 18708      6E746572 
 18708      66616365 
 18708      5F73616D 
 18708      706C655F 
 18709              	.LASF416:
 18710 1385 6E65775F 		.ascii	"new_app_offset\000"
 18710      6170705F 
 18710      6F666673 
 18710      657400
 18711              	.LASF507:
 18712 1394 636F6E66 		.ascii	"conf_general_get_default_mc_configuration\000"
 18712      5F67656E 
 18712      6572616C 
 18712      5F676574 
 18712      5F646566 
 18713              	.LASF196:
 18714 13be 666F635F 		.ascii	"foc_encoder_ratio\000"
 18714      656E636F 
 18714      6465725F 
 18714      72617469 
 18714      6F00
 18715              	.LASF22:
 18716 13d0 75696E74 		.ascii	"uint32_t\000"
 18716      33325F74 
 18716      00
 18717              	.LASF374:
 18718 13d9 434F4D4D 		.ascii	"COMM_GET_DECODED_CHUK\000"
 18718      5F474554 
 18718      5F444543 
 18718      4F444544 
 18718      5F434855 
 18719              	.LASF168:
 18720 13ef 6C5F6261 		.ascii	"l_battery_cut_end\000"
 18720      74746572 
 18720      795F6375 
 18720      745F656E 
 18720      6400
 18721              	.LASF299:
 18722 1401 4E52465F 		.ascii	"NRF_POWER\000"
 18722      504F5745 
 18722      5200
 18723              	.LASF397:
 18724 140b 6C6F6E67 		.ascii	"long double\000"
 18724      20646F75 
 18724      626C6500 
 18725              	.LASF351:
 18726 1417 434F4D4D 		.ascii	"COMM_SET_POS\000"
 18726      5F534554 
 18726      5F504F53 
 18726      00
 18727              	.LASF90:
 18728 1424 72656761 		.ascii	"regarm_t\000"
 18728      726D5F74 
 18728      00
ARM GAS  /tmp/ccy8OeyM.s 			page 346


 18729              	.LASF32:
 18730 142d 6576656E 		.ascii	"eventmask_t\000"
 18730      746D6173 
 18730      6B5F7400 
 18731              	.LASF409:
 18732 1439 73616D70 		.ascii	"sample_len\000"
 18732      6C655F6C 
 18732      656E00
 18733              	.LASF495:
 18734 1444 666C6173 		.ascii	"flash_helper_jump_to_bootloader\000"
 18734      685F6865 
 18734      6C706572 
 18734      5F6A756D 
 18734      705F746F 
 18735              	.LASF271:
 18736 1464 4144435F 		.ascii	"ADC_CTRL_TYPE_DUTY\000"
 18736      4354524C 
 18736      5F545950 
 18736      455F4455 
 18736      545900
 18737              	.LASF12:
 18738 1477 6C6F6E67 		.ascii	"long unsigned int\000"
 18738      20756E73 
 18738      69676E65 
 18738      6420696E 
 18738      7400
 18739              	.LASF224:
 18740 1489 63635F72 		.ascii	"cc_ramp_step_max\000"
 18740      616D705F 
 18740      73746570 
 18740      5F6D6178 
 18740      00
 18741              	.LASF487:
 18742 149a 6D635F69 		.ascii	"mc_interface_get_watt_hours\000"
 18742      6E746572 
 18742      66616365 
 18742      5F676574 
 18742      5F776174 
 18743              	.LASF219:
 18744 14b6 705F7069 		.ascii	"p_pid_kd\000"
 18744      645F6B64 
 18744      00
 18745              	.LASF218:
 18746 14bf 705F7069 		.ascii	"p_pid_ki\000"
 18746      645F6B69 
 18746      00
 18747              	.LASF300:
 18748 14c8 4E52465F 		.ascii	"NRF_CRC_DISABLED\000"
 18748      4352435F 
 18748      44495341 
 18748      424C4544 
 18748      00
 18749              	.LASF217:
 18750 14d9 705F7069 		.ascii	"p_pid_kp\000"
 18750      645F6B70 
 18750      00
 18751              	.LASF489:
ARM GAS  /tmp/ccy8OeyM.s 			page 347


 18752 14e2 6D635F69 		.ascii	"mc_interface_get_tachometer_value\000"
 18752      6E746572 
 18752      66616365 
 18752      5F676574 
 18752      5F746163 
 18753              	.LASF322:
 18754 1504 706F7765 		.ascii	"power\000"
 18754      7200
 18755              	.LASF521:
 18756 150a 2F686F6D 		.ascii	"/home/isc/BLDC/bldc-firmware\000"
 18756      652F6973 
 18756      632F424C 
 18756      44432F62 
 18756      6C64632D 
 18757              	.LASF233:
 18758 1527 4150505F 		.ascii	"APP_NONE\000"
 18758      4E4F4E45 
 18758      00
 18759              	.LASF114:
 18760 1530 50574D5F 		.ascii	"PWM_MODE_SYNCHRONOUS\000"
 18760      4D4F4445 
 18760      5F53594E 
 18760      4348524F 
 18760      4E4F5553 
 18761              	.LASF276:
 18762 1545 766F6C74 		.ascii	"voltage_end\000"
 18762      6167655F 
 18762      656E6400 
 18763              	.LASF146:
 18764 1551 44495350 		.ascii	"DISP_POS_MODE_ENCODER_OBSERVER_ERROR\000"
 18764      5F504F53 
 18764      5F4D4F44 
 18764      455F454E 
 18764      434F4445 
 18765              	.LASF110:
 18766 1576 63686172 		.ascii	"char\000"
 18766      00
 18767              	.LASF63:
 18768 157b 725F7175 		.ascii	"r_queue\000"
 18768      65756500 
 18769              	.LASF187:
 18770 1583 736C5F62 		.ascii	"sl_bemf_coupling_k\000"
 18770      656D665F 
 18770      636F7570 
 18770      6C696E67 
 18770      5F6B00
 18771              	.LASF287:
 18772 1596 72616D70 		.ascii	"ramp_time_pos\000"
 18772      5F74696D 
 18772      655F706F 
 18772      7300
 18773              	.LASF433:
 18774 15a4 726F746F 		.ascii	"rotor_pos\000"
 18774      725F706F 
 18774      7300
 18775              	.LASF318:
 18776 15ae 4E52465F 		.ascii	"NRF_RETR_DELAY_3750US\000"
ARM GAS  /tmp/ccy8OeyM.s 			page 348


 18776      52455452 
 18776      5F44454C 
 18776      41595F33 
 18776      37353055 
 18777              	.LASF422:
 18778 15c4 6D696E5F 		.ascii	"min_rpm\000"
 18778      72706D00 
 18779              	.LASF509:
 18780 15cc 63684576 		.ascii	"chEvtSignal\000"
 18780      74536967 
 18780      6E616C00 
 18781              	.LASF237:
 18782 15d8 4150505F 		.ascii	"APP_PPM_UART\000"
 18782      50504D5F 
 18782      55415254 
 18782      00
 18783              	.LASF173:
 18784 15e5 6C5F7465 		.ascii	"l_temp_motor_start\000"
 18784      6D705F6D 
 18784      6F746F72 
 18784      5F737461 
 18784      727400
 18785              	.LASF523:
 18786 15f8 63685468 		.ascii	"chThdGetSelfX\000"
 18786      64476574 
 18786      53656C66 
 18786      5800
 18787              	.LASF486:
 18788 1606 6D635F69 		.ascii	"mc_interface_get_amp_hours_charged\000"
 18788      6E746572 
 18788      66616365 
 18788      5F676574 
 18788      5F616D70 
 18789              	.LASF456:
 18790 1629 62756666 		.ascii	"buffer_append_int32\000"
 18790      65725F61 
 18790      7070656E 
 18790      645F696E 
 18790      74333200 
 18791              	.LASF157:
 18792 163d 6C5F6375 		.ascii	"l_current_min\000"
 18792      7272656E 
 18792      745F6D69 
 18792      6E00
 18793              	.LASF430:
 18794 164b 62756666 		.ascii	"buffer\000"
 18794      657200
 18795              	.LASF240:
 18796 1652 4150505F 		.ascii	"APP_NRF\000"
 18796      4E524600 
 18797              	.LASF235:
 18798 165a 4150505F 		.ascii	"APP_ADC\000"
 18798      41444300 
 18799              	.LASF134:
 18800 1662 4641554C 		.ascii	"FAULT_CODE_UNDER_VOLTAGE\000"
 18800      545F434F 
 18800      44455F55 
ARM GAS  /tmp/ccy8OeyM.s 			page 349


 18800      4E444552 
 18800      5F564F4C 
 18801              	.LASF368:
 18802 167b 434F4D4D 		.ascii	"COMM_DETECT_ENCODER\000"
 18802      5F444554 
 18802      4543545F 
 18802      454E434F 
 18802      44455200 
 18803              	.LASF356:
 18804 168f 434F4D4D 		.ascii	"COMM_GET_MCCONF_DEFAULT\000"
 18804      5F474554 
 18804      5F4D4343 
 18804      4F4E465F 
 18804      44454641 
 18805              	.LASF346:
 18806 16a7 434F4D4D 		.ascii	"COMM_GET_VALUES\000"
 18806      5F474554 
 18806      5F56414C 
 18806      55455300 
 18807              	.LASF33:
 18808 16b7 636E745F 		.ascii	"cnt_t\000"
 18808      7400
 18809              	.LASF405:
 18810 16bd 636F6D6D 		.ascii	"commands_set_send_func\000"
 18810      616E6473 
 18810      5F736574 
 18810      5F73656E 
 18810      645F6675 
 18811              	.LASF423:
 18812 16d4 64757479 		.ascii	"duty\000"
 18812      00
 18813              	.LASF274:
 18814 16d9 6164635F 		.ascii	"adc_control_type\000"
 18814      636F6E74 
 18814      726F6C5F 
 18814      74797065 
 18814      00
 18815              	.LASF132:
 18816 16ea 4641554C 		.ascii	"FAULT_CODE_NONE\000"
 18816      545F434F 
 18816      44455F4E 
 18816      4F4E4500 
 18817              	.LASF214:
 18818 16fa 735F7069 		.ascii	"s_pid_ki\000"
 18818      645F6B69 
 18818      00
 18819              	.LASF189:
 18820 1703 68616C6C 		.ascii	"hall_sl_erpm\000"
 18820      5F736C5F 
 18820      6572706D 
 18820      00
 18821              	.LASF213:
 18822 1710 735F7069 		.ascii	"s_pid_kp\000"
 18822      645F6B70 
 18822      00
 18823              	.LASF469:
 18824 1719 6D637077 		.ascii	"mcpwm_set_detect\000"
ARM GAS  /tmp/ccy8OeyM.s 			page 350


 18824      6D5F7365 
 18824      745F6465 
 18824      74656374 
 18824      00
 18825              	.LASF362:
 18826 172a 434F4D4D 		.ascii	"COMM_PRINT\000"
 18826      5F505249 
 18826      4E5400
 18827              	.LASF341:
 18828 1735 6170705F 		.ascii	"app_configuration\000"
 18828      636F6E66 
 18828      69677572 
 18828      6174696F 
 18828      6E00
 18829              	.LASF395:
 18830 1747 464C4153 		.ascii	"FLASH_COMPLETE\000"
 18830      485F434F 
 18830      4D504C45 
 18830      544500
 18831              	.LASF292:
 18832 1756 4E52465F 		.ascii	"NRF_SPEED_1M\000"
 18832      53504545 
 18832      445F314D 
 18832      00
 18833              	.LASF490:
 18834 1763 6D635F69 		.ascii	"mc_interface_get_tachometer_abs_value\000"
 18834      6E746572 
 18834      66616365 
 18834      5F676574 
 18834      5F746163 
 18835              	.LASF432:
 18836 1789 636F6D6D 		.ascii	"commands_send_rotor_pos\000"
 18836      616E6473 
 18836      5F73656E 
 18836      645F726F 
 18836      746F725F 
 18837              	.LASF205:
 18838 17a1 666F635F 		.ascii	"foc_openloop_rpm\000"
 18838      6F70656E 
 18838      6C6F6F70 
 18838      5F72706D 
 18838      00
 18839              	.LASF209:
 18840 17b2 666F635F 		.ascii	"foc_sl_d_current_factor\000"
 18840      736C5F64 
 18840      5F637572 
 18840      72656E74 
 18840      5F666163 
 18841              	.LASF202:
 18842 17ca 666F635F 		.ascii	"foc_pll_ki\000"
 18842      706C6C5F 
 18842      6B6900
 18843              	.LASF201:
 18844 17d5 666F635F 		.ascii	"foc_pll_kp\000"
 18844      706C6C5F 
 18844      6B7000
 18845              	.LASF241:
ARM GAS  /tmp/ccy8OeyM.s 			page 351


 18846 17e0 4150505F 		.ascii	"APP_CUSTOM\000"
 18846      43555354 
 18846      4F4D00
 18847              	.LASF494:
 18848 17eb 666C6173 		.ascii	"flash_helper_erase_new_app\000"
 18848      685F6865 
 18848      6C706572 
 18848      5F657261 
 18848      73655F6E 
 18849              	.LASF450:
 18850 1806 64697370 		.ascii	"display_position_mode\000"
 18850      6C61795F 
 18850      706F7369 
 18850      74696F6E 
 18850      5F6D6F64 
 18851              	.LASF465:
 18852 181c 6D637077 		.ascii	"mcpwm_foc_measure_res_ind\000"
 18852      6D5F666F 
 18852      635F6D65 
 18852      61737572 
 18852      655F7265 
 18853              	.LASF420:
 18854 1836 72617469 		.ascii	"ratio\000"
 18854      6F00
 18855              	.LASF516:
 18856 183c 6D635F69 		.ascii	"mc_interface_release_motor\000"
 18856      6E746572 
 18856      66616365 
 18856      5F72656C 
 18856      65617365 
 18857              	.LASF69:
 18858 1857 76746675 		.ascii	"vtfunc_t\000"
 18858      6E635F74 
 18858      00
 18859              	.LASF366:
 18860 1860 434F4D4D 		.ascii	"COMM_DETECT_MOTOR_R_L\000"
 18860      5F444554 
 18860      4543545F 
 18860      4D4F544F 
 18860      525F525F 
 18861              	.LASF293:
 18862 1876 4E52465F 		.ascii	"NRF_SPEED_2M\000"
 18862      53504545 
 18862      445F324D 
 18862      00
 18863              	.LASF510:
 18864 1883 62756666 		.ascii	"buffer_get_uint16\000"
 18864      65725F67 
 18864      65745F75 
 18864      696E7431 
 18864      3600
 18865              	.LASF98:
 18866 1895 77746F62 		.ascii	"wtobjp\000"
 18866      6A7000
 18867              	.LASF236:
 18868 189c 4150505F 		.ascii	"APP_UART\000"
 18868      55415254 
ARM GAS  /tmp/ccy8OeyM.s 			page 352


 18868      00
 18869              	.LASF335:
 18870 18a5 6170705F 		.ascii	"app_to_use\000"
 18870      746F5F75 
 18870      736500
 18871              	.LASF53:
 18872 18b0 705F7265 		.ascii	"p_realprio\000"
 18872      616C7072 
 18872      696F00
 18873              	.LASF238:
 18874 18bb 4150505F 		.ascii	"APP_ADC_UART\000"
 18874      4144435F 
 18874      55415254 
 18874      00
 18875              	.LASF376:
 18876 18c8 434F4D4D 		.ascii	"COMM_SET_CHUCK_DATA\000"
 18876      5F534554 
 18876      5F434855 
 18876      434B5F44 
 18876      41544100 
 18877              	.LASF101:
 18878 18dc 77746D74 		.ascii	"wtmtxp\000"
 18878      787000
 18879              	.LASF131:
 18880 18e3 6D635F6D 		.ascii	"mc_motor_type\000"
 18880      6F746F72 
 18880      5F747970 
 18880      6500
 18881              	.LASF279:
 18882 18f1 7265765F 		.ascii	"rev_button_inverted\000"
 18882      62757474 
 18882      6F6E5F69 
 18882      6E766572 
 18882      74656400 
 18883              	.LASF396:
 18884 1905 646F7562 		.ascii	"double\000"
 18884      6C6500
 18885              	.LASF358:
 18886 190c 434F4D4D 		.ascii	"COMM_GET_APPCONF\000"
 18886      5F474554 
 18886      5F415050 
 18886      434F4E46 
 18886      00
 18887              	.LASF499:
 18888 191d 6D635F69 		.ascii	"mc_interface_set_pid_pos\000"
 18888      6E746572 
 18888      66616365 
 18888      5F736574 
 18888      5F706964 
 18889              	.LASF174:
 18890 1936 6C5F7465 		.ascii	"l_temp_motor_end\000"
 18890      6D705F6D 
 18890      6F746F72 
 18890      5F656E64 
 18890      00
 18891              	.LASF155:
 18892 1947 73656E73 		.ascii	"sensor_mode\000"
ARM GAS  /tmp/ccy8OeyM.s 			page 353


 18892      6F725F6D 
 18892      6F646500 
 18893              	.LASF505:
 18894 1953 656E636F 		.ascii	"encoder_is_configured\000"
 18894      6465725F 
 18894      69735F63 
 18894      6F6E6669 
 18894      67757265 
 18895              	.LASF120:
 18896 1969 53454E53 		.ascii	"SENSOR_MODE_SENSORLESS\000"
 18896      4F525F4D 
 18896      4F44455F 
 18896      53454E53 
 18896      4F524C45 
 18897              	.LASF321:
 18898 1980 73706565 		.ascii	"speed\000"
 18898      6400
 18899              	.LASF62:
 18900 1986 63685F72 		.ascii	"ch_ready_list\000"
 18900      65616479 
 18900      5F6C6973 
 18900      7400
 18901              	.LASF9:
 18902 1994 5F5F696E 		.ascii	"__int32_t\000"
 18902      7433325F 
 18902      7400
 18903              	.LASF11:
 18904 199e 5F5F7569 		.ascii	"__uint32_t\000"
 18904      6E743332 
 18904      5F7400
 18905              	.LASF81:
 18906 19a9 63685F73 		.ascii	"ch_system_debug\000"
 18906      79737465 
 18906      6D5F6465 
 18906      62756700 
 18907              	.LASF403:
 18908 19b9 64617461 		.ascii	"data\000"
 18908      00
 18909              	.LASF492:
 18910 19be 62756666 		.ascii	"buffer_get_uint32\000"
 18910      65725F67 
 18910      65745F75 
 18910      696E7433 
 18910      3200
 18911              	.LASF478:
 18912 19d0 6C6F6766 		.ascii	"logf\000"
 18912      00
 18913              	.LASF437:
 18914 19d5 636F6D6D 		.ascii	"commands_send_app_data\000"
 18914      616E6473 
 18914      5F73656E 
 18914      645F6170 
 18914      705F6461 
 18915              	.LASF290:
 18916 19ec 6368756B 		.ascii	"chuk_config\000"
 18916      5F636F6E 
 18916      66696700 
ARM GAS  /tmp/ccy8OeyM.s 			page 354


 18917              	.LASF264:
 18918 19f8 4144435F 		.ascii	"ADC_CTRL_TYPE_NONE\000"
 18918      4354524C 
 18918      5F545950 
 18918      455F4E4F 
 18918      4E4500
 18919              	.LASF412:
 18920 1a0b 6D63636F 		.ascii	"mcconf\000"
 18920      6E6600
 18921              	.LASF112:
 18922 1a12 6D757465 		.ascii	"mutex_t\000"
 18922      785F7400 
 18923              	.LASF51:
 18924 1a1a 705F6570 		.ascii	"p_epending\000"
 18924      656E6469 
 18924      6E6700
 18925              	.LASF206:
 18926 1a25 666F635F 		.ascii	"foc_sl_openloop_hyst\000"
 18926      736C5F6F 
 18926      70656E6C 
 18926      6F6F705F 
 18926      68797374 
 18927              	.LASF258:
 18928 1a3a 73616665 		.ascii	"safe_start\000"
 18928      5F737461 
 18928      727400
 18929              	.LASF373:
 18930 1a45 434F4D4D 		.ascii	"COMM_GET_DECODED_ADC\000"
 18930      5F474554 
 18930      5F444543 
 18930      4F444544 
 18930      5F414443 
 18931              	.LASF357:
 18932 1a5a 434F4D4D 		.ascii	"COMM_SET_APPCONF\000"
 18932      5F534554 
 18932      5F415050 
 18932      434F4E46 
 18932      00
 18933              	.LASF407:
 18934 1a6b 636F6D6D 		.ascii	"commands_process_packet\000"
 18934      616E6473 
 18934      5F70726F 
 18934      63657373 
 18934      5F706163 
 18935              	.LASF248:
 18936 1a83 50504D5F 		.ascii	"PPM_CTRL_TYPE_DUTY_NOREV\000"
 18936      4354524C 
 18936      5F545950 
 18936      455F4455 
 18936      54595F4E 
 18937              	.LASF179:
 18938 1a9c 6C6F5F69 		.ascii	"lo_in_current_max\000"
 18938      6E5F6375 
 18938      7272656E 
 18938      745F6D61 
 18938      7800
 18939              	.LASF365:
ARM GAS  /tmp/ccy8OeyM.s 			page 355


 18940 1aae 434F4D4D 		.ascii	"COMM_DETECT_MOTOR_PARAM\000"
 18940      5F444554 
 18940      4543545F 
 18940      4D4F544F 
 18940      525F5041 
 18941              	.LASF513:
 18942 1ac6 636F6E66 		.ascii	"conf_general_store_app_configuration\000"
 18942      5F67656E 
 18942      6572616C 
 18942      5F73746F 
 18942      72655F61 
 18943              	.LASF413:
 18944 1aeb 6D63636F 		.ascii	"mcconf_old\000"
 18944      6E665F6F 
 18944      6C6400
 18945              	.LASF64:
 18946 1af6 725F7072 		.ascii	"r_prio\000"
 18946      696F00
 18947              	.LASF210:
 18948 1afd 666F635F 		.ascii	"foc_sensor_mode\000"
 18948      73656E73 
 18948      6F725F6D 
 18948      6F646500 
 18949              	.LASF451:
 18950 1b0d 49544D5F 		.ascii	"ITM_RxBuffer\000"
 18950      52784275 
 18950      66666572 
 18950      00
 18951              	.LASF135:
 18952 1b1a 4641554C 		.ascii	"FAULT_CODE_DRV8302\000"
 18952      545F434F 
 18952      44455F44 
 18952      52563833 
 18952      303200
 18953              	.LASF126:
 18954 1b2d 464F435F 		.ascii	"FOC_SENSOR_MODE_HALL\000"
 18954      53454E53 
 18954      4F525F4D 
 18954      4F44455F 
 18954      48414C4C 
 18955              	.LASF15:
 18956 1b42 6C6F6E67 		.ascii	"long long unsigned int\000"
 18956      206C6F6E 
 18956      6720756E 
 18956      7369676E 
 18956      65642069 
 18957              	.LASF94:
 18958 1b59 6F666673 		.ascii	"offset\000"
 18958      657400
 18959              	.LASF193:
 18960 1b60 666F635F 		.ascii	"foc_dt_us\000"
 18960      64745F75 
 18960      7300
 18961              	.LASF522:
 18962 1b6a 63685265 		.ascii	"chRegSetThreadName\000"
 18962      67536574 
 18962      54687265 
ARM GAS  /tmp/ccy8OeyM.s 			page 356


 18962      61644E61 
 18962      6D6500
 18963              	.LASF88:
 18964 1b7d 69646C65 		.ascii	"idle_thread_wa\000"
 18964      5F746872 
 18964      6561645F 
 18964      776100
 18965              	.LASF75:
 18966 1b8c 76745F66 		.ascii	"vt_func\000"
 18966      756E6300 
 18967              	.LASF475:
 18968 1b94 6D635F69 		.ascii	"mc_interface_set_brake_current\000"
 18968      6E746572 
 18968      66616365 
 18968      5F736574 
 18968      5F627261 
 18969              	.LASF349:
 18970 1bb3 434F4D4D 		.ascii	"COMM_SET_CURRENT_BRAKE\000"
 18970      5F534554 
 18970      5F435552 
 18970      52454E54 
 18970      5F425241 
 18971              	.LASF71:
 18972 1bca 63685F76 		.ascii	"ch_virtual_timer\000"
 18972      69727475 
 18972      616C5F74 
 18972      696D6572 
 18972      00
 18973              	.LASF44:
 18974 1bdb 705F666C 		.ascii	"p_flags\000"
 18974      61677300 
 18975              	.LASF102:
 18976 1be3 65776D61 		.ascii	"ewmask\000"
 18976      736B00
 18977              	.LASF480:
 18978 1bea 6D635F69 		.ascii	"mc_interface_get_configuration\000"
 18978      6E746572 
 18978      66616365 
 18978      5F676574 
 18978      5F636F6E 
 18979              	.LASF350:
 18980 1c09 434F4D4D 		.ascii	"COMM_SET_RPM\000"
 18980      5F534554 
 18980      5F52504D 
 18980      00
 18981              	.LASF315:
 18982 1c16 4E52465F 		.ascii	"NRF_RETR_DELAY_3000US\000"
 18982      52455452 
 18982      5F44454C 
 18982      41595F33 
 18982      30303055 
 18983              	.LASF52:
 18984 1c2c 705F6D74 		.ascii	"p_mtxlist\000"
 18984      786C6973 
 18984      7400
 18985              	.LASF186:
 18986 1c36 736C5F63 		.ascii	"sl_cycle_int_rpm_br\000"
ARM GAS  /tmp/ccy8OeyM.s 			page 357


 18986      79636C65 
 18986      5F696E74 
 18986      5F72706D 
 18986      5F627200 
 18987              	.LASF27:
 18988 1c4a 74737461 		.ascii	"tstate_t\000"
 18988      74655F74 
 18988      00
 18989              	.LASF440:
 18990 1c53 73656E64 		.ascii	"send_buffer\000"
 18990      5F627566 
 18990      66657200 
 18991              	.LASF247:
 18992 1c5f 50504D5F 		.ascii	"PPM_CTRL_TYPE_DUTY\000"
 18992      4354524C 
 18992      5F545950 
 18992      455F4455 
 18992      545900
 18993              	.LASF119:
 18994 1c72 6D635F63 		.ascii	"mc_comm_mode\000"
 18994      6F6D6D5F 
 18994      6D6F6465 
 18994      00
 18995              	.LASF42:
 18996 1c7f 705F6E61 		.ascii	"p_name\000"
 18996      6D6500
 18997              	.LASF392:
 18998 1c86 464C4153 		.ascii	"FLASH_ERROR_WRP\000"
 18998      485F4552 
 18998      524F525F 
 18998      57525000 
 18999              	.LASF311:
 19000 1c96 4E52465F 		.ascii	"NRF_RETR_DELAY_2000US\000"
 19000      52455452 
 19000      5F44454C 
 19000      41595F32 
 19000      30303055 
 19001              	.LASF400:
 19002 1cac 5F5F6170 		.ascii	"__ap\000"
 19002      00
 19003              	.LASF429:
 19004 1cb1 636F6D6D 		.ascii	"commands_send_samples\000"
 19004      616E6473 
 19004      5F73656E 
 19004      645F7361 
 19004      6D706C65 
 19005              	.LASF512:
 19006 1cc7 6170705F 		.ascii	"app_get_configuration\000"
 19006      6765745F 
 19006      636F6E66 
 19006      69677572 
 19006      6174696F 
 19007              	.LASF147:
 19008 1cdd 64697370 		.ascii	"disp_pos_mode\000"
 19008      5F706F73 
 19008      5F6D6F64 
 19008      6500
ARM GAS  /tmp/ccy8OeyM.s 			page 358


 19009              	.LASF77:
 19010 1ceb 76697274 		.ascii	"virtual_timers_list_t\000"
 19010      75616C5F 
 19010      74696D65 
 19010      72735F6C 
 19010      6973745F 
 19011              	.LASF500:
 19012 1d01 6170705F 		.ascii	"app_nunchuk_get_decoded_chuk\000"
 19012      6E756E63 
 19012      68756B5F 
 19012      6765745F 
 19012      6465636F 
 19013              	.LASF113:
 19014 1d1e 50574D5F 		.ascii	"PWM_MODE_NONSYNCHRONOUS_HISW\000"
 19014      4D4F4445 
 19014      5F4E4F4E 
 19014      53594E43 
 19014      48524F4E 
 19015              	.LASF460:
 19016 1d3b 6D635F69 		.ascii	"mc_interface_set_configuration\000"
 19016      6E746572 
 19016      66616365 
 19016      5F736574 
 19016      5F636F6E 
 19017              	.LASF485:
 19018 1d5a 6D635F69 		.ascii	"mc_interface_get_amp_hours\000"
 19018      6E746572 
 19018      66616365 
 19018      5F676574 
 19018      5F616D70 
 19019              	.LASF377:
 19020 1d75 434F4D4D 		.ascii	"COMM_CUSTOM_APP_DATA\000"
 19020      5F435553 
 19020      544F4D5F 
 19020      4150505F 
 19020      44415441 
 19021              	.LASF307:
 19022 1d8a 4E52465F 		.ascii	"NRF_RETR_DELAY_1000US\000"
 19022      52455452 
 19022      5F44454C 
 19022      41595F31 
 19022      30303055 
 19023              	.LASF363:
 19024 1da0 434F4D4D 		.ascii	"COMM_ROTOR_POSITION\000"
 19024      5F524F54 
 19024      4F525F50 
 19024      4F534954 
 19024      494F4E00 
 19025              	.LASF104:
 19026 1db4 735F7175 		.ascii	"s_queue\000"
 19026      65756500 
 19027              	.LASF277:
 19028 1dbc 7573655F 		.ascii	"use_filter\000"
 19028      66696C74 
 19028      657200
 19029              	.LASF139:
 19030 1dc7 6D635F66 		.ascii	"mc_fault_code\000"
ARM GAS  /tmp/ccy8OeyM.s 			page 359


 19030      61756C74 
 19030      5F636F64 
 19030      6500
 19031              	.LASF226:
 19032 1dd5 6D5F6475 		.ascii	"m_duty_ramp_step\000"
 19032      74795F72 
 19032      616D705F 
 19032      73746570 
 19032      00
 19033              	.LASF232:
 19034 1de6 6D635F63 		.ascii	"mc_configuration\000"
 19034      6F6E6669 
 19034      67757261 
 19034      74696F6E 
 19034      00
 19035              	.LASF316:
 19036 1df7 4E52465F 		.ascii	"NRF_RETR_DELAY_3250US\000"
 19036      52455452 
 19036      5F44454C 
 19036      41595F33 
 19036      32353055 
 19037              	.LASF13:
 19038 1e0d 6C6F6E67 		.ascii	"long long int\000"
 19038      206C6F6E 
 19038      6720696E 
 19038      7400
 19039              	.LASF361:
 19040 1e1b 434F4D4D 		.ascii	"COMM_TERMINAL_CMD\000"
 19040      5F544552 
 19040      4D494E41 
 19040      4C5F434D 
 19040      4400
 19041              	.LASF265:
 19042 1e2d 4144435F 		.ascii	"ADC_CTRL_TYPE_CURRENT\000"
 19042      4354524C 
 19042      5F545950 
 19042      455F4355 
 19042      5252454E 
 19043              	.LASF301:
 19044 1e43 4E52465F 		.ascii	"NRF_CRC_1B\000"
 19044      4352435F 
 19044      314200
 19045              	.LASF164:
 19046 1e4e 6C5F6D61 		.ascii	"l_max_erpm_fbrake_cc\000"
 19046      785F6572 
 19046      706D5F66 
 19046      6272616B 
 19046      655F6363 
 19047              	.LASF312:
 19048 1e63 4E52465F 		.ascii	"NRF_RETR_DELAY_2250US\000"
 19048      52455452 
 19048      5F44454C 
 19048      41595F32 
 19048      32353055 
 19049              	.LASF359:
 19050 1e79 434F4D4D 		.ascii	"COMM_GET_APPCONF_DEFAULT\000"
 19050      5F474554 
ARM GAS  /tmp/ccy8OeyM.s 			page 360


 19050      5F415050 
 19050      434F4E46 
 19050      5F444546 
 19051              	.LASF253:
 19052 1e92 7069645F 		.ascii	"pid_max_erpm\000"
 19052      6D61785F 
 19052      6572706D 
 19052      00
 19053              	.LASF462:
 19054 1e9f 6D637077 		.ascii	"mcpwm_foc_encoder_detect\000"
 19054      6D5F666F 
 19054      635F656E 
 19054      636F6465 
 19054      725F6465 
 19055              	.LASF421:
 19056 1eb8 696E7665 		.ascii	"inverted\000"
 19056      72746564 
 19056      00
 19057              	.LASF324:
 19058 1ec1 72657472 		.ascii	"retry_delay\000"
 19058      795F6465 
 19058      6C617900 
 19059              	.LASF477:
 19060 1ecd 6D635F69 		.ascii	"mc_interface_set_duty\000"
 19060      6E746572 
 19060      66616365 
 19060      5F736574 
 19060      5F647574 
 19061              	.LASF302:
 19062 1ee3 4E52465F 		.ascii	"NRF_CRC_2B\000"
 19062      4352435F 
 19062      324200
 19063              	.LASF515:
 19064 1eee 74696D65 		.ascii	"timeout_configure\000"
 19064      6F75745F 
 19064      636F6E66 
 19064      69677572 
 19064      6500
 19065              	.LASF308:
 19066 1f00 4E52465F 		.ascii	"NRF_RETR_DELAY_1250US\000"
 19066      52455452 
 19066      5F44454C 
 19066      41595F31 
 19066      32353055 
 19067              	.LASF158:
 19068 1f16 6C5F696E 		.ascii	"l_in_current_max\000"
 19068      5F637572 
 19068      72656E74 
 19068      5F6D6178 
 19068      00
 19069              	.LASF41:
 19070 1f27 705F6F6C 		.ascii	"p_older\000"
 19070      64657200 
 19071              	.LASF334:
 19072 1f2f 73656E64 		.ascii	"send_can_status_rate_hz\000"
 19072      5F63616E 
 19072      5F737461 
ARM GAS  /tmp/ccy8OeyM.s 			page 361


 19072      7475735F 
 19072      72617465 
 19073              	.LASF459:
 19074 1f47 62756666 		.ascii	"buffer_get_float32\000"
 19074      65725F67 
 19074      65745F66 
 19074      6C6F6174 
 19074      333200
 19075              	.LASF55:
 19076 1f5a 74687265 		.ascii	"thread_reference_t\000"
 19076      61645F72 
 19076      65666572 
 19076      656E6365 
 19076      5F7400
 19077              	.LASF220:
 19078 1f6d 705F7069 		.ascii	"p_pid_ang_div\000"
 19078      645F616E 
 19078      675F6469 
 19078      7600
 19079              	.LASF330:
 19080 1f7b 636F6E74 		.ascii	"controller_id\000"
 19080      726F6C6C 
 19080      65725F69 
 19080      6400
 19081              	.LASF207:
 19082 1f89 666F635F 		.ascii	"foc_sl_openloop_time\000"
 19082      736C5F6F 
 19082      70656E6C 
 19082      6F6F705F 
 19082      74696D65 
 19083              	.LASF95:
 19084 1f9e 746D5F63 		.ascii	"tm_calibration_t\000"
 19084      616C6962 
 19084      72617469 
 19084      6F6E5F74 
 19084      00
 19085              	.LASF2:
 19086 1faf 5F5F696E 		.ascii	"__int8_t\000"
 19086      74385F74 
 19086      00
 19087              	.LASF180:
 19088 1fb8 6C6F5F69 		.ascii	"lo_in_current_min\000"
 19088      6E5F6375 
 19088      7272656E 
 19088      745F6D69 
 19088      6E00
 19089              	.LASF255:
 19090 1fca 70756C73 		.ascii	"pulse_start\000"
 19090      655F7374 
 19090      61727400 
 19091              	.LASF488:
 19092 1fd6 6D635F69 		.ascii	"mc_interface_get_watt_hours_charged\000"
 19092      6E746572 
 19092      66616365 
 19092      5F676574 
 19092      5F776174 
 19093              	.LASF519:
ARM GAS  /tmp/ccy8OeyM.s 			page 362


 19094 1ffa 474E5520 		.ascii	"GNU C 4.9.3 20150529 (release) [ARM/embedded-4_9-br"
 19094      4320342E 
 19094      392E3320 
 19094      32303135 
 19094      30353239 
 19095 202d 616E6368 		.ascii	"anch revision 227977] -mcpu=cortex-m4 -mfloat-abi=h"
 19095      20726576 
 19095      6973696F 
 19095      6E203232 
 19095      37393737 
 19096 2060 61726420 		.ascii	"ard -mfpu=fpv4-sp-d16 -mno-thumb-interwork -mthumb "
 19096      2D6D6670 
 19096      753D6670 
 19096      76342D73 
 19096      702D6431 
 19097 2093 2D676764 		.ascii	"-ggdb -O2 -std=gnu99 -fomit-frame-pointer -falign-f"
 19097      62202D4F 
 19097      32202D73 
 19097      74643D67 
 19097      6E753939 
 19098 20c6 756E6374 		.ascii	"unctions=16 -ffunction-sections -fdata-sections -fn"
 19098      696F6E73 
 19098      3D313620 
 19098      2D666675 
 19098      6E637469 
 19099 20f9 6F2D636F 		.ascii	"o-common -fsingle-precision-constant\000"
 19099      6D6D6F6E 
 19099      202D6673 
 19099      696E676C 
 19099      652D7072 
 19100              	.LASF175:
 19101 211e 6C5F6D69 		.ascii	"l_min_duty\000"
 19101      6E5F6475 
 19101      747900
 19102              	.LASF245:
 19103 2129 50504D5F 		.ascii	"PPM_CTRL_TYPE_CURRENT_NOREV\000"
 19103      4354524C 
 19103      5F545950 
 19103      455F4355 
 19103      5252454E 
 19104              	.LASF151:
 19105 2145 73656E73 		.ascii	"sensor_port_mode\000"
 19105      6F725F70 
 19105      6F72745F 
 19105      6D6F6465 
 19105      00
 19106              	.LASF502:
 19107 2156 6170705F 		.ascii	"app_adc_get_voltage\000"
 19107      6164635F 
 19107      6765745F 
 19107      766F6C74 
 19107      61676500 
 19108              	.LASF127:
 19109 216a 6D635F66 		.ascii	"mc_foc_sensor_mode\000"
 19109      6F635F73 
 19109      656E736F 
 19109      725F6D6F 
ARM GAS  /tmp/ccy8OeyM.s 			page 363


 19109      646500
 19110              	.LASF16:
 19111 217d 756E7369 		.ascii	"unsigned int\000"
 19111      676E6564 
 19111      20696E74 
 19111      00
 19112              	.LASF453:
 19113 218a 63684576 		.ascii	"chEvtWaitAny\000"
 19113      74576169 
 19113      74416E79 
 19113      00
 19114              	.LASF270:
 19115 2197 4144435F 		.ascii	"ADC_CTRL_TYPE_CURRENT_NOREV_BRAKE_ADC\000"
 19115      4354524C 
 19115      5F545950 
 19115      455F4355 
 19115      5252454E 
 19116              	.LASF6:
 19117 21bd 73686F72 		.ascii	"short int\000"
 19117      7420696E 
 19117      7400
 19118              	.LASF410:
 19119 21c7 64656369 		.ascii	"decimation\000"
 19119      6D617469 
 19119      6F6E00
 19120              	.LASF455:
 19121 21d2 636F6D6D 		.ascii	"commands_send_packet\000"
 19121      616E6473 
 19121      5F73656E 
 19121      645F7061 
 19121      636B6574 
 19122              	.LASF128:
 19123 21e7 4D4F544F 		.ascii	"MOTOR_TYPE_BLDC\000"
 19123      525F5459 
 19123      50455F42 
 19123      4C444300 
 19124              	.LASF399:
 19125 21f7 5F5F7661 		.ascii	"__va_list\000"
 19125      5F6C6973 
 19125      7400
 19126              	.LASF43:
 19127 2201 705F7374 		.ascii	"p_state\000"
 19127      61746500 
 19128              	.LASF58:
 19129 2209 63685F74 		.ascii	"ch_threads_list\000"
 19129      68726561 
 19129      64735F6C 
 19129      69737400 
 19130              	.LASF118:
 19131 2219 434F4D4D 		.ascii	"COMM_MODE_DELAY\000"
 19131      5F4D4F44 
 19131      455F4445 
 19131      4C415900 
 19132              	.LASF229:
 19133 2229 6D5F656E 		.ascii	"m_encoder_counts\000"
 19133      636F6465 
 19133      725F636F 
ARM GAS  /tmp/ccy8OeyM.s 			page 364


 19133      756E7473 
 19133      00
 19134              		.ident	"GCC: (GNU Tools for ARM Embedded Processors) 4.9.3 20150529 (release) [ARM/embedded-4_9-br
ARM GAS  /tmp/ccy8OeyM.s 			page 365


DEFINED SYMBOLS
                            *ABS*:0000000000000000 commands.c
     /tmp/ccy8OeyM.s:21     .text.detect_thread:0000000000000000 $t
     /tmp/ccy8OeyM.s:26     .text.detect_thread:0000000000000000 detect_thread
     /tmp/ccy8OeyM.s:209    .text.detect_thread:00000000000000c8 $d
     /tmp/ccy8OeyM.s:228    .text.commands_init:0000000000000000 $t
     /tmp/ccy8OeyM.s:234    .text.commands_init:0000000000000000 commands_init
     /tmp/ccy8OeyM.s:262    .text.commands_init:000000000000001c $d
     /tmp/ccy8OeyM.s:268    .text.commands_set_send_func:0000000000000000 $t
     /tmp/ccy8OeyM.s:274    .text.commands_set_send_func:0000000000000000 commands_set_send_func
     /tmp/ccy8OeyM.s:289    .text.commands_set_send_func:0000000000000008 $d
     /tmp/ccy8OeyM.s:294    .text.commands_send_packet:0000000000000000 $t
     /tmp/ccy8OeyM.s:300    .text.commands_send_packet:0000000000000000 commands_send_packet
     /tmp/ccy8OeyM.s:320    .text.commands_send_packet:000000000000000c $d
     /tmp/ccy8OeyM.s:325    .text.commands_process_packet:0000000000000000 $t
     /tmp/ccy8OeyM.s:331    .text.commands_process_packet:0000000000000000 commands_process_packet
     /tmp/ccy8OeyM.s:379    .text.commands_process_packet:0000000000000026 $d
     /tmp/ccy8OeyM.s:416    .text.commands_process_packet:000000000000006e $t
     /tmp/ccy8OeyM.s:949    .text.commands_process_packet:00000000000003cc $d
     /tmp/ccy8OeyM.s:957    .text.commands_process_packet:00000000000003e0 $t
     /tmp/ccy8OeyM.s:1387   .text.commands_process_packet:0000000000000758 $d
     /tmp/ccy8OeyM.s:1406   .text.commands_process_packet:0000000000000790 $t
     /tmp/ccy8OeyM.s:1995   .text.commands_process_packet:0000000000000a88 $d
     /tmp/ccy8OeyM.s:2013   .text.commands_process_packet:0000000000000ab4 $t
     /tmp/ccy8OeyM.s:2207   .text.commands_process_packet:0000000000000bc8 $d
     /tmp/ccy8OeyM.s:2217   .text.commands_process_packet:0000000000000be8 $t
     /tmp/ccy8OeyM.s:2663   .text.commands_process_packet:0000000000000fc8 $d
     /tmp/ccy8OeyM.s:2670   .text.commands_process_packet:0000000000000fe0 $t
     /tmp/ccy8OeyM.s:2896   .text.commands_process_packet:00000000000011cc $d
     /tmp/ccy8OeyM.s:2902   .text.commands_process_packet:00000000000011d0 $t
     /tmp/ccy8OeyM.s:3453   .text.commands_process_packet:0000000000001590 $d
     /tmp/ccy8OeyM.s:3460   .text.commands_process_packet:00000000000015a4 $t
     /tmp/ccy8OeyM.s:3806   .text.commands_process_packet:00000000000017d0 $d
     /tmp/ccy8OeyM.s:3816   .text.commands_process_packet:00000000000017ec $t
     /tmp/ccy8OeyM.s:4499   .text.commands_process_packet:0000000000001c28 $d
     /tmp/ccy8OeyM.s:4511   .text.commands_printf:0000000000000000 $t
     /tmp/ccy8OeyM.s:4517   .text.commands_printf:0000000000000000 commands_printf
     /tmp/ccy8OeyM.s:4596   .text.commands_printf:000000000000003c $d
     /tmp/ccy8OeyM.s:4602   .text.commands_send_samples:0000000000000000 $t
     /tmp/ccy8OeyM.s:4608   .text.commands_send_samples:0000000000000000 commands_send_samples
     /tmp/ccy8OeyM.s:4692   .text.commands_send_samples:0000000000000048 $d
     /tmp/ccy8OeyM.s:4698   .text.commands_send_rotor_pos:0000000000000000 $t
     /tmp/ccy8OeyM.s:4704   .text.commands_send_rotor_pos:0000000000000000 commands_send_rotor_pos
     /tmp/ccy8OeyM.s:4771   .text.commands_send_rotor_pos:0000000000000038 $d
     /tmp/ccy8OeyM.s:4777   .text.commands_send_experiment_samples:0000000000000000 $t
     /tmp/ccy8OeyM.s:4783   .text.commands_send_experiment_samples:0000000000000000 commands_send_experiment_samples
     /tmp/ccy8OeyM.s:4909   .text.commands_send_experiment_samples:0000000000000074 $d
     /tmp/ccy8OeyM.s:4915   .text.commands_get_disp_pos_mode:0000000000000000 $t
     /tmp/ccy8OeyM.s:4921   .text.commands_get_disp_pos_mode:0000000000000000 commands_get_disp_pos_mode
     /tmp/ccy8OeyM.s:4936   .text.commands_get_disp_pos_mode:0000000000000008 $d
     /tmp/ccy8OeyM.s:4941   .text.commands_set_app_data_handler:0000000000000000 $t
     /tmp/ccy8OeyM.s:4947   .text.commands_set_app_data_handler:0000000000000000 commands_set_app_data_handler
     /tmp/ccy8OeyM.s:4962   .text.commands_set_app_data_handler:0000000000000008 $d
     /tmp/ccy8OeyM.s:4967   .text.commands_send_app_data:0000000000000000 $t
     /tmp/ccy8OeyM.s:4973   .text.commands_send_app_data:0000000000000000 commands_send_app_data
     /tmp/ccy8OeyM.s:5046   .text.commands_send_app_data:000000000000002c $d
     /tmp/ccy8OeyM.s:5054   .bss.send_func:0000000000000000 $d
ARM GAS  /tmp/ccy8OeyM.s 			page 366


     /tmp/ccy8OeyM.s:5058   .bss.send_func:0000000000000000 send_func
     /tmp/ccy8OeyM.s:5061   .bss.detect_min_rpm:0000000000000000 $d
     /tmp/ccy8OeyM.s:5065   .bss.detect_min_rpm:0000000000000000 detect_min_rpm
     /tmp/ccy8OeyM.s:5068   .bss.mcconf.11290:0000000000000000 $d
     /tmp/ccy8OeyM.s:5072   .bss.mcconf.11290:0000000000000000 mcconf.11290
     /tmp/ccy8OeyM.s:5075   .bss.detect_hall_table:0000000000000000 $d
     /tmp/ccy8OeyM.s:5079   .bss.detect_hall_table:0000000000000000 detect_hall_table
     /tmp/ccy8OeyM.s:5082   .bss.appdata_func:0000000000000000 $d
     /tmp/ccy8OeyM.s:5086   .bss.appdata_func:0000000000000000 appdata_func
     /tmp/ccy8OeyM.s:5089   .bss.mcconf_old.11291:0000000000000000 $d
     /tmp/ccy8OeyM.s:5093   .bss.mcconf_old.11291:0000000000000000 mcconf_old.11291
     /tmp/ccy8OeyM.s:5096   .bss.detect_hall_res:0000000000000000 $d
     /tmp/ccy8OeyM.s:5100   .bss.detect_hall_res:0000000000000000 detect_hall_res
     /tmp/ccy8OeyM.s:5103   .bss.detect_thread_wa:0000000000000000 $d
     /tmp/ccy8OeyM.s:5107   .bss.detect_thread_wa:0000000000000000 detect_thread_wa
     /tmp/ccy8OeyM.s:5110   .bss.send_buffer:0000000000000000 $d
     /tmp/ccy8OeyM.s:5114   .bss.send_buffer:0000000000000000 send_buffer
     /tmp/ccy8OeyM.s:5117   .rodata.str1.4:0000000000000000 $d
     /tmp/ccy8OeyM.s:5121   .bss.detect_tp:0000000000000000 $d
     /tmp/ccy8OeyM.s:5125   .bss.detect_tp:0000000000000000 detect_tp
     /tmp/ccy8OeyM.s:5128   .bss.detect_low_duty:0000000000000000 $d
     /tmp/ccy8OeyM.s:5132   .bss.detect_low_duty:0000000000000000 detect_low_duty
     /tmp/ccy8OeyM.s:5135   .bss.detect_current:0000000000000000 $d
     /tmp/ccy8OeyM.s:5139   .bss.detect_current:0000000000000000 detect_current
     /tmp/ccy8OeyM.s:5142   .bss.print_buffer.11353:0000000000000000 $d
     /tmp/ccy8OeyM.s:5146   .bss.print_buffer.11353:0000000000000000 print_buffer.11353
     /tmp/ccy8OeyM.s:5149   .bss.detect_coupling_k:0000000000000000 $d
     /tmp/ccy8OeyM.s:5153   .bss.detect_coupling_k:0000000000000000 detect_coupling_k
     /tmp/ccy8OeyM.s:5156   .bss.detect_cycle_int_limit:0000000000000000 $d
     /tmp/ccy8OeyM.s:5160   .bss.detect_cycle_int_limit:0000000000000000 detect_cycle_int_limit
     /tmp/ccy8OeyM.s:5166   .bss.display_position_mode:0000000000000000 display_position_mode
     /tmp/ccy8OeyM.s:5167   .bss.display_position_mode:0000000000000000 $d
                     .debug_frame:0000000000000010 $d

UNDEFINED SYMBOLS
chEvtWaitAny
conf_general_detect_motor_param
buffer_append_int32
ch
chThdCreateStatic
conf_general_get_default_app_configuration
buffer_append_uint32
buffer_append_uint16
buffer_append_float32
mc_interface_get_configuration
memcpy
mcpwm_set_detect
timeout_reset
servodec_get_servo
servodec_get_last_pulse_len
buffer_get_int32
mc_interface_set_pid_speed
mc_interface_set_brake_current
mc_interface_set_current
mc_interface_set_duty
logf
buffer_append_float16
ARM GAS  /tmp/ccy8OeyM.s 			page 367


mc_interface_read_reset_avg_motor_current
mc_interface_read_reset_avg_input_current
mc_interface_get_duty_cycle_now
mc_interface_get_rpm
mc_interface_get_amp_hours
mc_interface_get_amp_hours_charged
mc_interface_get_watt_hours
mc_interface_get_watt_hours_charged
mc_interface_get_tachometer_value
mc_interface_get_tachometer_abs_value
mc_interface_get_fault
ADC_Value
buffer_get_uint32
flash_helper_write_new_app_data
flash_helper_erase_new_app
flash_helper_jump_to_bootloader
buffer_get_int16
app_nunchuk_update_output
comm_can_send_buffer
mc_interface_set_pid_pos
app_nunchuk_get_decoded_chuk
app_adc_get_decoded_level
app_adc_get_voltage
app_adc_get_decoded_level2
app_adc_get_voltage2
buffer_get_float32
mc_interface_set_configuration
mcpwm_foc_hall_detect
encoder_is_configured
mcpwm_foc_encoder_detect
conf_general_measure_flux_linkage
mcpwm_foc_measure_res_ind
terminal_process_string
conf_general_get_default_mc_configuration
conf_general_store_mc_configuration
chEvtSignal
buffer_get_uint16
mc_interface_sample_print_data
app_get_configuration
conf_general_store_app_configuration
app_set_configuration
timeout_configure
mc_interface_release_motor
memset
vsnprintf
