ARM GAS  /tmp/ccjTYyAy.s 			page 1


   1              		.syntax unified
   2              		.cpu cortex-m4
   3              		.eabi_attribute 27, 1
   4              		.eabi_attribute 28, 1
   5              		.fpu fpv4-sp-d16
   6              		.eabi_attribute 20, 1
   7              		.eabi_attribute 21, 1
   8              		.eabi_attribute 23, 3
   9              		.eabi_attribute 24, 1
  10              		.eabi_attribute 25, 1
  11              		.eabi_attribute 26, 1
  12              		.eabi_attribute 30, 2
  13              		.eabi_attribute 34, 1
  14              		.eabi_attribute 18, 4
  15              		.thumb
  16              		.file	"encoder.c"
  17              		.text
  18              	.Ltext0:
  19              		.cfi_sections	.debug_frame
  20              		.section	.text.spi_transfer.isra.0.constprop.1,"ax",%progbits
  21              		.align	2
  22              		.p2align 4,,15
  23              		.thumb
  24              		.thumb_func
  25              		.type	spi_transfer.isra.0.constprop.1, %function
  26              	spi_transfer.isra.0.constprop.1:
  27              	.LFB271:
  28              		.file 1 "encoder.c"
  29              		.loc 1 228 0
  30              		.cfi_startproc
  31              		@ args = 0, pretend = 0, frame = 0
  32              		@ frame_needed = 0, uses_anonymous_args = 0
  33              		@ link register save eliminated.
  34              	.LVL0:
  35              	.LBB107:
  36              	.LBB108:
  37              	.LBB109:
  38              		.loc 1 238 0
  39 0000 1049     		ldr	r1, .L15
  40              	.LBE109:
  41              	.LBE108:
  42              	.LBE107:
  43              		.loc 1 228 0
  44 0002 30B4     		push	{r4, r5}
  45              		.cfi_def_cfa_offset 8
  46              		.cfi_offset 4, -8
  47              		.cfi_offset 5, -4
  48              		.loc 1 228 0
  49 0004 1022     		movs	r2, #16
  50 0006 0023     		movs	r3, #0
  51              	.LBB139:
  52              	.LBB138:
  53              	.LBB137:
  54              		.loc 1 238 0
  55 0008 4FF04004 		mov	r4, #64	@ movhi
  56              	.LVL1:
  57              	.L3:
ARM GAS  /tmp/ccjTYyAy.s 			page 2


  58              	.LBB110:
  59              	.LBB111:
  60              	.LBB112:
  61              		.file 2 "ChibiOS_3.0.2/os/ext/CMSIS/include/core_cmInstr.h"
  62              		.loc 2 327 0
  63              	@ 327 "ChibiOS_3.0.2/os/ext/CMSIS/include/core_cmInstr.h" 1
  64 000c 00BF     		nop
  65              	@ 0 "" 2
  66              		.thumb
  67              	.LBE112:
  68              	.LBE111:
  69              	.LBB113:
  70              	.LBB114:
  71              	@ 327 "ChibiOS_3.0.2/os/ext/CMSIS/include/core_cmInstr.h" 1
  72 000e 00BF     		nop
  73              	@ 0 "" 2
  74              		.thumb
  75              	.LBE114:
  76              	.LBE113:
  77              	.LBB115:
  78              	.LBB116:
  79              	@ 327 "ChibiOS_3.0.2/os/ext/CMSIS/include/core_cmInstr.h" 1
  80 0010 00BF     		nop
  81              	@ 0 "" 2
  82              		.thumb
  83              	.LBE116:
  84              	.LBE115:
  85              	.LBB117:
  86              	.LBB118:
  87              	@ 327 "ChibiOS_3.0.2/os/ext/CMSIS/include/core_cmInstr.h" 1
  88 0012 00BF     		nop
  89              	@ 0 "" 2
  90              		.thumb
  91              	.LBE118:
  92              	.LBE117:
  93              	.LBE110:
  94              		.loc 1 238 0
  95 0014 0C83     		strh	r4, [r1, #24]	@ movhi
  96              	.LBB119:
  97              	.LBB120:
  98              	.LBB121:
  99              		.loc 2 327 0
 100              	@ 327 "ChibiOS_3.0.2/os/ext/CMSIS/include/core_cmInstr.h" 1
 101 0016 00BF     		nop
 102              	@ 0 "" 2
 103              		.thumb
 104              	.LBE121:
 105              	.LBE120:
 106              	.LBB122:
 107              	.LBB123:
 108              	@ 327 "ChibiOS_3.0.2/os/ext/CMSIS/include/core_cmInstr.h" 1
 109 0018 00BF     		nop
 110              	@ 0 "" 2
 111              		.thumb
 112              	.LBE123:
 113              	.LBE122:
 114              	.LBB124:
ARM GAS  /tmp/ccjTYyAy.s 			page 3


 115              	.LBB125:
 116              	@ 327 "ChibiOS_3.0.2/os/ext/CMSIS/include/core_cmInstr.h" 1
 117 001a 00BF     		nop
 118              	@ 0 "" 2
 119              		.thumb
 120              	.LBE125:
 121              	.LBE124:
 122              	.LBB126:
 123              	.LBB127:
 124              	@ 327 "ChibiOS_3.0.2/os/ext/CMSIS/include/core_cmInstr.h" 1
 125 001c 00BF     		nop
 126              	@ 0 "" 2
 127              		.thumb
 128              	.LBE127:
 129              	.LBE126:
 130              	.LBE119:
 131              		.loc 1 242 0
 132 001e 0D69     		ldr	r5, [r1, #16]
 133              		.loc 1 241 0
 134 0020 5B00     		lsls	r3, r3, #1
 135              	.LVL2:
 136              		.loc 1 242 0
 137 0022 2D06     		lsls	r5, r5, #24
 138              		.loc 1 241 0
 139 0024 9BB2     		uxth	r3, r3
 140              	.LVL3:
 141              		.loc 1 242 0
 142 0026 01D5     		bpl	.L5
 143              		.loc 1 243 0
 144 0028 43F00103 		orr	r3, r3, #1
 145              	.LVL4:
 146              	.L5:
 147              		.loc 1 246 0
 148 002c 4C83     		strh	r4, [r1, #26]	@ movhi
 149              	.LBB128:
 150              	.LBB129:
 151              	.LBB130:
 152              		.loc 2 327 0
 153              	@ 327 "ChibiOS_3.0.2/os/ext/CMSIS/include/core_cmInstr.h" 1
 154 002e 00BF     		nop
 155              	@ 0 "" 2
 156              		.thumb
 157              	.LBE130:
 158              	.LBE129:
 159              	.LBB131:
 160              	.LBB132:
 161              	@ 327 "ChibiOS_3.0.2/os/ext/CMSIS/include/core_cmInstr.h" 1
 162 0030 00BF     		nop
 163              	@ 0 "" 2
 164              		.thumb
 165              	.LBE132:
 166              	.LBE131:
 167              	.LBB133:
 168              	.LBB134:
 169              	@ 327 "ChibiOS_3.0.2/os/ext/CMSIS/include/core_cmInstr.h" 1
 170 0032 00BF     		nop
 171              	@ 0 "" 2
ARM GAS  /tmp/ccjTYyAy.s 			page 4


 172              		.thumb
 173              	.LBE134:
 174              	.LBE133:
 175              	.LBB135:
 176              	.LBB136:
 177              	@ 327 "ChibiOS_3.0.2/os/ext/CMSIS/include/core_cmInstr.h" 1
 178 0034 00BF     		nop
 179              	@ 0 "" 2
 180              	.LVL5:
 181              		.thumb
 182              	.LBE136:
 183              	.LBE135:
 184              	.LBE128:
 185              		.loc 1 233 0
 186 0036 013A     		subs	r2, r2, #1
 187              	.LVL6:
 188 0038 E8D1     		bne	.L3
 189              	.LBE137:
 190              		.loc 1 250 0
 191 003a 00B1     		cbz	r0, .L1
 192              		.loc 1 251 0
 193 003c 0380     		strh	r3, [r0]	@ movhi
 194              	.LVL7:
 195              	.L1:
 196              	.LBE138:
 197              	.LBE139:
 198              		.loc 1 254 0
 199 003e 30BC     		pop	{r4, r5}
 200              		.cfi_restore 5
 201              		.cfi_restore 4
 202              		.cfi_def_cfa_offset 0
 203 0040 7047     		bx	lr
 204              	.L16:
 205 0042 00BF     		.align	2
 206              	.L15:
 207 0044 00040240 		.word	1073873920
 208              		.cfi_endproc
 209              	.LFE271:
 210              		.size	spi_transfer.isra.0.constprop.1, .-spi_transfer.isra.0.constprop.1
 211              		.section	.text.encoder_deinit,"ax",%progbits
 212              		.align	2
 213              		.p2align 4,,15
 214              		.global	encoder_deinit
 215              		.thumb
 216              		.thumb_func
 217              		.type	encoder_deinit, %function
 218              	encoder_deinit:
 219              	.LFB256:
 220              		.loc 1 56 0
 221              		.cfi_startproc
 222              		@ args = 0, pretend = 0, frame = 0
 223              		@ frame_needed = 0, uses_anonymous_args = 0
 224 0000 10B5     		push	{r4, lr}
 225              		.cfi_def_cfa_offset 8
 226              		.cfi_offset 4, -8
 227              		.cfi_offset 14, -4
 228              		.loc 1 57 0
ARM GAS  /tmp/ccjTYyAy.s 			page 5


 229 0002 2820     		movs	r0, #40
 230 0004 FFF7FEFF 		bl	nvicDisableVector
 231              	.LVL8:
 232              		.loc 1 62 0
 233 0008 144C     		ldr	r4, .L19
 234              		.loc 1 58 0
 235 000a 1E20     		movs	r0, #30
 236 000c FFF7FEFF 		bl	nvicDisableVector
 237              	.LVL9:
 238              		.loc 1 60 0
 239 0010 1348     		ldr	r0, .L19+4
 240 0012 FFF7FEFF 		bl	TIM_DeInit
 241              	.LVL10:
 242              		.loc 1 62 0
 243 0016 2046     		mov	r0, r4
 244 0018 8021     		movs	r1, #128
 245 001a 2022     		movs	r2, #32
 246 001c FFF7FEFF 		bl	_pal_lld_setgroupmode
 247              	.LVL11:
 248              		.loc 1 63 0
 249 0020 2046     		mov	r0, r4
 250 0022 4021     		movs	r1, #64
 251 0024 2022     		movs	r2, #32
 252 0026 FFF7FEFF 		bl	_pal_lld_setgroupmode
 253              	.LVL12:
 254              		.loc 1 64 0
 255 002a 0E48     		ldr	r0, .L19+8
 256 002c 4FF40061 		mov	r1, #2048
 257 0030 2022     		movs	r2, #32
 258 0032 FFF7FEFF 		bl	_pal_lld_setgroupmode
 259              	.LVL13:
 260              		.loc 1 66 0
 261 0036 2046     		mov	r0, r4
 262 0038 4021     		movs	r1, #64
 263 003a 2022     		movs	r2, #32
 264 003c FFF7FEFF 		bl	_pal_lld_setgroupmode
 265              	.LVL14:
 266              		.loc 1 67 0
 267 0040 2046     		mov	r0, r4
 268 0042 8021     		movs	r1, #128
 269 0044 2022     		movs	r2, #32
 270 0046 FFF7FEFF 		bl	_pal_lld_setgroupmode
 271              	.LVL15:
 272              		.loc 1 69 0
 273 004a 074C     		ldr	r4, .L19+12
 274              		.loc 1 70 0
 275 004c 0748     		ldr	r0, .L19+16
 276              		.loc 1 71 0
 277 004e 084A     		ldr	r2, .L19+20
 278              		.loc 1 69 0
 279 0050 0023     		movs	r3, #0
 280              		.loc 1 71 0
 281 0052 0021     		movs	r1, #0
 282              		.loc 1 69 0
 283 0054 2370     		strb	r3, [r4]
 284              		.loc 1 70 0
 285 0056 0370     		strb	r3, [r0]
ARM GAS  /tmp/ccjTYyAy.s 			page 6


 286              		.loc 1 71 0
 287 0058 1160     		str	r1, [r2]	@ float
 288 005a 10BD     		pop	{r4, pc}
 289              	.L20:
 290              		.align	2
 291              	.L19:
 292 005c 00040240 		.word	1073873920
 293 0060 00080040 		.word	1073743872
 294 0064 00080240 		.word	1073874944
 295 0068 00000000 		.word	.LANCHOR0
 296 006c 00000000 		.word	.LANCHOR1
 297 0070 00000000 		.word	.LANCHOR2
 298              		.cfi_endproc
 299              	.LFE256:
 300              		.size	encoder_deinit, .-encoder_deinit
 301              		.section	.text.encoder_init_abi,"ax",%progbits
 302              		.align	2
 303              		.p2align 4,,15
 304              		.global	encoder_init_abi
 305              		.thumb
 306              		.thumb_func
 307              		.type	encoder_init_abi, %function
 308              	encoder_init_abi:
 309              	.LFB257:
 310              		.loc 1 74 0
 311              		.cfi_startproc
 312              		@ args = 0, pretend = 0, frame = 8
 313              		@ frame_needed = 0, uses_anonymous_args = 0
 314              	.LVL16:
 315 0000 70B5     		push	{r4, r5, r6, lr}
 316              		.cfi_def_cfa_offset 16
 317              		.cfi_offset 4, -16
 318              		.cfi_offset 5, -12
 319              		.cfi_offset 6, -8
 320              		.cfi_offset 14, -4
 321              		.loc 1 79 0
 322 0002 234E     		ldr	r6, .L23
 323              		.loc 1 81 0
 324 0004 234D     		ldr	r5, .L23+4
 325              		.loc 1 78 0
 326 0006 244B     		ldr	r3, .L23+8
 327              		.loc 1 79 0
 328 0008 3060     		str	r0, [r6]
 329              		.loc 1 74 0
 330 000a 82B0     		sub	sp, sp, #8
 331              		.cfi_def_cfa_offset 24
 332              		.loc 1 78 0
 333 000c 0024     		movs	r4, #0
 334              		.loc 1 81 0
 335 000e 2846     		mov	r0, r5
 336              	.LVL17:
 337 0010 4021     		movs	r1, #64
 338 0012 4FF48D72 		mov	r2, #282
 339              		.loc 1 78 0
 340 0016 1C70     		strb	r4, [r3]
 341              		.loc 1 81 0
 342 0018 FFF7FEFF 		bl	_pal_lld_setgroupmode
ARM GAS  /tmp/ccjTYyAy.s 			page 7


 343              	.LVL18:
 344              		.loc 1 86 0
 345 001c 4FF48D72 		mov	r2, #282
 346 0020 2846     		mov	r0, r5
 347 0022 8021     		movs	r1, #128
 348 0024 FFF7FEFF 		bl	_pal_lld_setgroupmode
 349              	.LVL19:
 350              		.loc 1 92 0
 351 0028 0420     		movs	r0, #4
 352 002a 0121     		movs	r1, #1
 353 002c FFF7FEFF 		bl	RCC_APB1PeriphClockCmd
 354              	.LVL20:
 355              		.loc 1 97 0
 356 0030 A5F5FE35 		sub	r5, r5, #130048
 357              		.loc 1 95 0
 358 0034 4FF48040 		mov	r0, #16384
 359 0038 0121     		movs	r1, #1
 360 003a FFF7FEFF 		bl	RCC_APB2PeriphClockCmd
 361              	.LVL21:
 362              		.loc 1 97 0
 363 003e 2246     		mov	r2, r4
 364 0040 2346     		mov	r3, r4
 365 0042 2846     		mov	r0, r5
 366 0044 0321     		movs	r1, #3
 367 0046 FFF7FEFF 		bl	TIM_EncoderInterfaceConfig
 368              	.LVL22:
 369              		.loc 1 100 0
 370 004a 3168     		ldr	r1, [r6]
 371 004c 2846     		mov	r0, r5
 372 004e 0139     		subs	r1, r1, #1
 373 0050 FFF7FEFF 		bl	TIM_SetAutoreload
 374              	.LVL23:
 375              		.loc 1 102 0
 376 0054 2846     		mov	r0, r5
 377 0056 0121     		movs	r1, #1
 378 0058 FFF7FEFF 		bl	TIM_Cmd
 379              	.LVL24:
 380              		.loc 1 107 0
 381 005c 0B21     		movs	r1, #11
 382 005e 0220     		movs	r0, #2
 383 0060 FFF7FEFF 		bl	SYSCFG_EXTILineConfig
 384              	.LVL25:
 385              		.loc 1 113 0
 386 0064 0125     		movs	r5, #1
 387              		.loc 1 110 0
 388 0066 4FF40062 		mov	r2, #2048
 389              		.loc 1 112 0
 390 006a 0823     		movs	r3, #8
 391              		.loc 1 114 0
 392 006c 6846     		mov	r0, sp
 393              		.loc 1 112 0
 394 006e 8DF80530 		strb	r3, [sp, #5]
 395              		.loc 1 110 0
 396 0072 0092     		str	r2, [sp]
 397              		.loc 1 111 0
 398 0074 8DF80440 		strb	r4, [sp, #4]
 399              		.loc 1 113 0
ARM GAS  /tmp/ccjTYyAy.s 			page 8


 400 0078 8DF80650 		strb	r5, [sp, #6]
 401              		.loc 1 114 0
 402 007c FFF7FEFF 		bl	EXTI_Init
 403              	.LVL26:
 404              		.loc 1 117 0
 405 0080 2146     		mov	r1, r4
 406 0082 2820     		movs	r0, #40
 407 0084 FFF7FEFF 		bl	nvicEnableVector
 408              	.LVL27:
 409              		.loc 1 119 0
 410 0088 044B     		ldr	r3, .L23+12
 411 008a 1D70     		strb	r5, [r3]
 412              		.loc 1 120 0
 413 008c 02B0     		add	sp, sp, #8
 414              		.cfi_def_cfa_offset 16
 415              		@ sp needed
 416 008e 70BD     		pop	{r4, r5, r6, pc}
 417              	.L24:
 418              		.align	2
 419              	.L23:
 420 0090 00000000 		.word	.LANCHOR3
 421 0094 00040240 		.word	1073873920
 422 0098 00000000 		.word	.LANCHOR0
 423 009c 00000000 		.word	.LANCHOR1
 424              		.cfi_endproc
 425              	.LFE257:
 426              		.size	encoder_init_abi, .-encoder_init_abi
 427              		.section	.text.encoder_init_as5047p_spi,"ax",%progbits
 428              		.align	2
 429              		.p2align 4,,15
 430              		.global	encoder_init_as5047p_spi
 431              		.thumb
 432              		.thumb_func
 433              		.type	encoder_init_as5047p_spi, %function
 434              	encoder_init_as5047p_spi:
 435              	.LFB258:
 436              		.loc 1 122 0
 437              		.cfi_startproc
 438              		@ args = 0, pretend = 0, frame = 16
 439              		@ frame_needed = 0, uses_anonymous_args = 0
 440 0000 30B5     		push	{r4, r5, lr}
 441              		.cfi_def_cfa_offset 12
 442              		.cfi_offset 4, -12
 443              		.cfi_offset 5, -8
 444              		.cfi_offset 14, -4
 445              		.loc 1 125 0
 446 0002 1E4D     		ldr	r5, .L27
 447              		.loc 1 138 0
 448 0004 1E4C     		ldr	r4, .L27+4
 449              		.loc 1 122 0
 450 0006 85B0     		sub	sp, sp, #20
 451              		.cfi_def_cfa_offset 32
 452              		.loc 1 125 0
 453 0008 2846     		mov	r0, r5
 454 000a 8021     		movs	r1, #128
 455 000c 0022     		movs	r2, #0
 456 000e FFF7FEFF 		bl	_pal_lld_setgroupmode
ARM GAS  /tmp/ccjTYyAy.s 			page 9


 457              	.LVL28:
 458              		.loc 1 126 0
 459 0012 2846     		mov	r0, r5
 460 0014 4021     		movs	r1, #64
 461 0016 1922     		movs	r2, #25
 462 0018 FFF7FEFF 		bl	_pal_lld_setgroupmode
 463              	.LVL29:
 464              		.loc 1 127 0
 465 001c 1922     		movs	r2, #25
 466 001e 1948     		ldr	r0, .L27+8
 467 0020 4FF40061 		mov	r1, #2048
 468 0024 FFF7FEFF 		bl	_pal_lld_setgroupmode
 469              	.LVL30:
 470              		.loc 1 130 0
 471 0028 0420     		movs	r0, #4
 472 002a 0121     		movs	r1, #1
 473 002c FFF7FEFF 		bl	RCC_APB1PeriphClockCmd
 474              	.LVL31:
 475              		.loc 1 133 0
 476 0030 0023     		movs	r3, #0
 477              		.loc 1 138 0
 478 0032 2046     		mov	r0, r4
 479              		.loc 1 135 0
 480 0034 41F26702 		movw	r2, #4199
 481              		.loc 1 138 0
 482 0038 01A9     		add	r1, sp, #4
 483              		.loc 1 133 0
 484 003a ADF80430 		strh	r3, [sp, #4]	@ movhi
 485              		.loc 1 134 0
 486 003e ADF80630 		strh	r3, [sp, #6]	@ movhi
 487              		.loc 1 136 0
 488 0042 ADF80C30 		strh	r3, [sp, #12]	@ movhi
 489              		.loc 1 137 0
 490 0046 8DF80E30 		strb	r3, [sp, #14]
 491              		.loc 1 135 0
 492 004a 0292     		str	r2, [sp, #8]
 493              		.loc 1 138 0
 494 004c FFF7FEFF 		bl	TIM_TimeBaseInit
 495              	.LVL32:
 496              		.loc 1 141 0
 497 0050 0121     		movs	r1, #1
 498 0052 0A46     		mov	r2, r1
 499 0054 2046     		mov	r0, r4
 500 0056 FFF7FEFF 		bl	TIM_ITConfig
 501              	.LVL33:
 502              		.loc 1 144 0
 503 005a 2046     		mov	r0, r4
 504 005c 0121     		movs	r1, #1
 505 005e FFF7FEFF 		bl	TIM_Cmd
 506              	.LVL34:
 507              		.loc 1 146 0
 508 0062 1E20     		movs	r0, #30
 509 0064 0621     		movs	r1, #6
 510 0066 FFF7FEFF 		bl	nvicEnableVector
 511              	.LVL35:
 512              		.loc 1 148 0
 513 006a 0749     		ldr	r1, .L27+12
ARM GAS  /tmp/ccjTYyAy.s 			page 10


 514              		.loc 1 149 0
 515 006c 074B     		ldr	r3, .L27+16
 516              		.loc 1 148 0
 517 006e 0220     		movs	r0, #2
 518              		.loc 1 149 0
 519 0070 0122     		movs	r2, #1
 520              		.loc 1 148 0
 521 0072 0870     		strb	r0, [r1]
 522              		.loc 1 149 0
 523 0074 1A70     		strb	r2, [r3]
 524              		.loc 1 150 0
 525 0076 05B0     		add	sp, sp, #20
 526              		.cfi_def_cfa_offset 12
 527              		@ sp needed
 528 0078 30BD     		pop	{r4, r5, pc}
 529              	.L28:
 530 007a 00BF     		.align	2
 531              	.L27:
 532 007c 00040240 		.word	1073873920
 533 0080 00080040 		.word	1073743872
 534 0084 00080240 		.word	1073874944
 535 0088 00000000 		.word	.LANCHOR1
 536 008c 00000000 		.word	.LANCHOR0
 537              		.cfi_endproc
 538              	.LFE258:
 539              		.size	encoder_init_as5047p_spi, .-encoder_init_as5047p_spi
 540              		.section	.text.encoder_is_configured,"ax",%progbits
 541              		.align	2
 542              		.p2align 4,,15
 543              		.global	encoder_is_configured
 544              		.thumb
 545              		.thumb_func
 546              		.type	encoder_is_configured, %function
 547              	encoder_is_configured:
 548              	.LFB259:
 549              		.loc 1 152 0
 550              		.cfi_startproc
 551              		@ args = 0, pretend = 0, frame = 0
 552              		@ frame_needed = 0, uses_anonymous_args = 0
 553              		@ link register save eliminated.
 554              		.loc 1 153 0
 555 0000 024B     		ldr	r3, .L30
 556 0002 1878     		ldrb	r0, [r3]	@ zero_extendqisi2
 557              		.loc 1 154 0
 558 0004 0030     		adds	r0, r0, #0
 559 0006 18BF     		it	ne
 560 0008 0120     		movne	r0, #1
 561 000a 7047     		bx	lr
 562              	.L31:
 563              		.align	2
 564              	.L30:
 565 000c 00000000 		.word	.LANCHOR1
 566              		.cfi_endproc
 567              	.LFE259:
 568              		.size	encoder_is_configured, .-encoder_is_configured
 569              		.section	.text.encoder_read_deg,"ax",%progbits
 570              		.align	2
ARM GAS  /tmp/ccjTYyAy.s 			page 11


 571              		.p2align 4,,15
 572              		.global	encoder_read_deg
 573              		.thumb
 574              		.thumb_func
 575              		.type	encoder_read_deg, %function
 576              	encoder_read_deg:
 577              	.LFB260:
 578              		.loc 1 156 0
 579              		.cfi_startproc
 580              		@ args = 0, pretend = 0, frame = 0
 581              		@ frame_needed = 0, uses_anonymous_args = 0
 582              		@ link register save eliminated.
 583              		.loc 1 159 0
 584 0000 124B     		ldr	r3, .L38
 585 0002 1B78     		ldrb	r3, [r3]	@ zero_extendqisi2
 586 0004 012B     		cmp	r3, #1
 587 0006 0CD0     		beq	.L34
 588 0008 022B     		cmp	r3, #2
 589 000a 06D1     		bne	.L37
 590              		.loc 1 165 0
 591 000c 104A     		ldr	r2, .L38+4
 592 000e 114B     		ldr	r3, .L38+8
 593 0010 92ED000A 		flds	s0, [r2]
 594 0014 83ED000A 		fsts	s0, [r3]
 595              		.loc 1 173 0
 596 0018 7047     		bx	lr
 597              	.L37:
 598 001a 0E4B     		ldr	r3, .L38+8
 599 001c 93ED000A 		flds	s0, [r3]
 600 0020 7047     		bx	lr
 601              	.L34:
 602              		.loc 1 161 0
 603 0022 0D4A     		ldr	r2, .L38+12
 604 0024 0D4B     		ldr	r3, .L38+16
 605 0026 D2ED097A 		flds	s15, [r2, #36]	@ int
 606 002a 93ED000A 		flds	s0, [r3]	@ int
 607 002e DFED0C6A 		flds	s13, .L38+20
 608 0032 084B     		ldr	r3, .L38+8
 609 0034 F8EE677A 		fuitos	s15, s15
 610 0038 B8EE407A 		fuitos	s14, s0
 611 003c 67EEA67A 		fmuls	s15, s15, s13
 612 0040 87EE870A 		fdivs	s0, s15, s14
 613 0044 83ED000A 		fsts	s0, [r3]
 614              		.loc 1 162 0
 615 0048 7047     		bx	lr
 616              	.L39:
 617 004a 00BF     		.align	2
 618              	.L38:
 619 004c 00000000 		.word	.LANCHOR1
 620 0050 00000000 		.word	.LANCHOR2
 621 0054 00000000 		.word	.LANCHOR4
 622 0058 00080040 		.word	1073743872
 623 005c 00000000 		.word	.LANCHOR3
 624 0060 0000B443 		.word	1135869952
 625              		.cfi_endproc
 626              	.LFE260:
 627              		.size	encoder_read_deg, .-encoder_read_deg
ARM GAS  /tmp/ccjTYyAy.s 			page 12


 628              		.section	.text.encoder_reset,"ax",%progbits
 629              		.align	2
 630              		.p2align 4,,15
 631              		.global	encoder_reset
 632              		.thumb
 633              		.thumb_func
 634              		.type	encoder_reset, %function
 635              	encoder_reset:
 636              	.LFB261:
 637              		.loc 1 178 0
 638              		.cfi_startproc
 639              		@ args = 0, pretend = 0, frame = 0
 640              		@ frame_needed = 0, uses_anonymous_args = 0
 641              		@ link register save eliminated.
 642              		.loc 1 179 0
 643 0000 0349     		ldr	r1, .L41
 644              		.loc 1 180 0
 645 0002 044B     		ldr	r3, .L41+4
 646              		.loc 1 179 0
 647 0004 0020     		movs	r0, #0
 648              		.loc 1 180 0
 649 0006 0122     		movs	r2, #1
 650              		.loc 1 179 0
 651 0008 4862     		str	r0, [r1, #36]
 652              		.loc 1 180 0
 653 000a 1A70     		strb	r2, [r3]
 654 000c 7047     		bx	lr
 655              	.L42:
 656 000e 00BF     		.align	2
 657              	.L41:
 658 0010 00080040 		.word	1073743872
 659 0014 00000000 		.word	.LANCHOR0
 660              		.cfi_endproc
 661              	.LFE261:
 662              		.size	encoder_reset, .-encoder_reset
 663              		.section	.text.encoder_tim_isr,"ax",%progbits
 664              		.align	2
 665              		.p2align 4,,15
 666              		.global	encoder_tim_isr
 667              		.thumb
 668              		.thumb_func
 669              		.type	encoder_tim_isr, %function
 670              	encoder_tim_isr:
 671              	.LFB262:
 672              		.loc 1 186 0
 673              		.cfi_startproc
 674              		@ args = 0, pretend = 0, frame = 8
 675              		@ frame_needed = 0, uses_anonymous_args = 0
 676 0000 30B5     		push	{r4, r5, lr}
 677              		.cfi_def_cfa_offset 12
 678              		.cfi_offset 4, -12
 679              		.cfi_offset 5, -8
 680              		.cfi_offset 14, -4
 681              	.LBB140:
 682              	.LBB141:
 683              		.loc 1 257 0
 684 0002 0F4C     		ldr	r4, .L45
ARM GAS  /tmp/ccjTYyAy.s 			page 13


 685              	.LBE141:
 686              	.LBE140:
 687              		.loc 1 186 0
 688 0004 83B0     		sub	sp, sp, #12
 689              		.cfi_def_cfa_offset 24
 690              	.LBB143:
 691              	.LBB142:
 692              		.loc 1 257 0
 693 0006 4FF40065 		mov	r5, #2048
 694 000a 6583     		strh	r5, [r4, #26]	@ movhi
 695              	.LBE142:
 696              	.LBE143:
 697              		.loc 1 190 0
 698 000c 0DF10600 		add	r0, sp, #6
 699 0010 FFF7FEFF 		bl	spi_transfer.isra.0.constprop.1
 700              	.LVL36:
 701              	.LBB144:
 702              	.LBB145:
 703              		.loc 1 261 0
 704 0014 2583     		strh	r5, [r4, #24]	@ movhi
 705              	.LVL37:
 706              	.LBE145:
 707              	.LBE144:
 708              		.loc 1 193 0
 709 0016 BDF80630 		ldrh	r3, [sp, #6]
 710              		.loc 1 194 0
 711 001a DFED0A7A 		flds	s15, .L45+4
 712 001e DFED0A6A 		flds	s13, .L45+8
 713 0022 0A4A     		ldr	r2, .L45+12
 714 0024 C3F30D03 		ubfx	r3, r3, #0, #14
 715 0028 07EE103A 		fmsr	s14, r3	@ int
 716 002c B8EE477A 		fuitos	s14, s14
 717 0030 67EE277A 		fmuls	s15, s14, s15
 718 0034 67EEA67A 		fmuls	s15, s15, s13
 719 0038 C2ED007A 		fsts	s15, [r2]
 720              		.loc 1 195 0
 721 003c 03B0     		add	sp, sp, #12
 722              		.cfi_def_cfa_offset 12
 723              		@ sp needed
 724 003e 30BD     		pop	{r4, r5, pc}
 725              	.LVL38:
 726              	.L46:
 727              		.align	2
 728              	.L45:
 729 0040 00080240 		.word	1073874944
 730 0044 0000B443 		.word	1135869952
 731 0048 00008038 		.word	947912704
 732 004c 00000000 		.word	.LANCHOR2
 733              		.cfi_endproc
 734              	.LFE262:
 735              		.size	encoder_tim_isr, .-encoder_tim_isr
 736              		.section	.text.encoder_set_counts,"ax",%progbits
 737              		.align	2
 738              		.p2align 4,,15
 739              		.global	encoder_set_counts
 740              		.thumb
 741              		.thumb_func
ARM GAS  /tmp/ccjTYyAy.s 			page 14


 742              		.type	encoder_set_counts, %function
 743              	encoder_set_counts:
 744              	.LFB263:
 745              		.loc 1 203 0
 746              		.cfi_startproc
 747              		@ args = 0, pretend = 0, frame = 0
 748              		@ frame_needed = 0, uses_anonymous_args = 0
 749              	.LVL39:
 750              		.loc 1 204 0
 751 0000 074A     		ldr	r2, .L50
 752              		.loc 1 203 0
 753 0002 08B5     		push	{r3, lr}
 754              		.cfi_def_cfa_offset 8
 755              		.cfi_offset 3, -8
 756              		.cfi_offset 14, -4
 757              		.loc 1 204 0
 758 0004 1368     		ldr	r3, [r2]
 759 0006 9842     		cmp	r0, r3
 760 0008 08D0     		beq	.L47
 761 000a 0346     		mov	r3, r0
 762              		.loc 1 206 0
 763 000c 411E     		subs	r1, r0, #1
 764 000e 0548     		ldr	r0, .L50+4
 765              	.LVL40:
 766              		.loc 1 205 0
 767 0010 1360     		str	r3, [r2]
 768              		.loc 1 206 0
 769 0012 FFF7FEFF 		bl	TIM_SetAutoreload
 770              	.LVL41:
 771              		.loc 1 207 0
 772 0016 044B     		ldr	r3, .L50+8
 773 0018 0022     		movs	r2, #0
 774 001a 1A70     		strb	r2, [r3]
 775              	.L47:
 776 001c 08BD     		pop	{r3, pc}
 777              	.L51:
 778 001e 00BF     		.align	2
 779              	.L50:
 780 0020 00000000 		.word	.LANCHOR3
 781 0024 00080040 		.word	1073743872
 782 0028 00000000 		.word	.LANCHOR0
 783              		.cfi_endproc
 784              	.LFE263:
 785              		.size	encoder_set_counts, .-encoder_set_counts
 786              		.section	.text.encoder_index_found,"ax",%progbits
 787              		.align	2
 788              		.p2align 4,,15
 789              		.global	encoder_index_found
 790              		.thumb
 791              		.thumb_func
 792              		.type	encoder_index_found, %function
 793              	encoder_index_found:
 794              	.LFB264:
 795              		.loc 1 217 0
 796              		.cfi_startproc
 797              		@ args = 0, pretend = 0, frame = 0
 798              		@ frame_needed = 0, uses_anonymous_args = 0
ARM GAS  /tmp/ccjTYyAy.s 			page 15


 799              		@ link register save eliminated.
 800              		.loc 1 218 0
 801 0000 014B     		ldr	r3, .L53
 802              		.loc 1 219 0
 803 0002 1878     		ldrb	r0, [r3]	@ zero_extendqisi2
 804 0004 7047     		bx	lr
 805              	.L54:
 806 0006 00BF     		.align	2
 807              	.L53:
 808 0008 00000000 		.word	.LANCHOR0
 809              		.cfi_endproc
 810              	.LFE264:
 811              		.size	encoder_index_found, .-encoder_index_found
 812              		.section	.text.spi_exchange,"ax",%progbits
 813              		.align	2
 814              		.p2align 4,,15
 815              		.global	spi_exchange
 816              		.thumb
 817              		.thumb_func
 818              		.type	spi_exchange, %function
 819              	spi_exchange:
 820              	.LFB265:
 821              		.loc 1 222 0
 822              		.cfi_startproc
 823              		@ args = 0, pretend = 0, frame = 8
 824              		@ frame_needed = 0, uses_anonymous_args = 0
 825              	.LVL42:
 826 0000 00B5     		push	{lr}
 827              		.cfi_def_cfa_offset 4
 828              		.cfi_offset 14, -4
 829 0002 83B0     		sub	sp, sp, #12
 830              		.cfi_def_cfa_offset 16
 831              		.loc 1 224 0
 832 0004 0DF10600 		add	r0, sp, #6
 833              	.LVL43:
 834 0008 FFF7FEFF 		bl	spi_transfer.isra.0.constprop.1
 835              	.LVL44:
 836              		.loc 1 226 0
 837 000c BDF80600 		ldrh	r0, [sp, #6]
 838 0010 03B0     		add	sp, sp, #12
 839              		.cfi_def_cfa_offset 4
 840              		@ sp needed
 841 0012 5DF804FB 		ldr	pc, [sp], #4
 842              		.cfi_endproc
 843              	.LFE265:
 844              		.size	spi_exchange, .-spi_exchange
 845 0016 00BF     		.section	.data.enc_counts,"aw",%progbits
 846              		.align	2
 847              		.set	.LANCHOR3,. + 0
 848              		.type	enc_counts, %object
 849              		.size	enc_counts, 4
 850              	enc_counts:
 851 0000 10270000 		.word	10000
 852              		.section	.bss.angle.9177,"aw",%nobits
 853              		.align	2
 854              		.set	.LANCHOR4,. + 0
 855              		.type	angle.9177, %object
ARM GAS  /tmp/ccjTYyAy.s 			page 16


 856              		.size	angle.9177, 4
 857              	angle.9177:
 858 0000 00000000 		.space	4
 859              		.section	.bss.index_found,"aw",%nobits
 860              		.set	.LANCHOR0,. + 0
 861              		.type	index_found, %object
 862              		.size	index_found, 1
 863              	index_found:
 864 0000 00       		.space	1
 865              		.section	.bss.mode,"aw",%nobits
 866              		.set	.LANCHOR1,. + 0
 867              		.type	mode, %object
 868              		.size	mode, 1
 869              	mode:
 870 0000 00       		.space	1
 871              		.section	.bss.last_enc_angle,"aw",%nobits
 872              		.align	2
 873              		.set	.LANCHOR2,. + 0
 874              		.type	last_enc_angle, %object
 875              		.size	last_enc_angle, 4
 876              	last_enc_angle:
 877 0000 00000000 		.space	4
 878              		.text
 879              	.Letext0:
 880              		.file 3 "/usr/arm-none-eabi/include/machine/_default_types.h"
 881              		.file 4 "/usr/arm-none-eabi/include/sys/_stdint.h"
 882              		.file 5 "/usr/lib/gcc/arm-none-eabi/4.9.3/include/stddef.h"
 883              		.file 6 "ChibiOS_3.0.2/os/rt/ports/ARMCMx/compilers/GCC/chtypes.h"
 884              		.file 7 "ChibiOS_3.0.2/os/rt/include/chsystypes.h"
 885              		.file 8 "ChibiOS_3.0.2/os/rt/include/chschd.h"
 886              		.file 9 "ChibiOS_3.0.2/os/ext/CMSIS/ST/stm32f407xx.h"
 887              		.file 10 "ChibiOS_3.0.2/os/ext/CMSIS/ST/stm32f4xx.h"
 888              		.file 11 "ChibiOS_3.0.2/os/rt/ports/ARMCMx/chcore.h"
 889              		.file 12 "ChibiOS_3.0.2/os/rt/ports/ARMCMx/chcore_v7m.h"
 890              		.file 13 "ChibiOS_3.0.2/os/rt/include/chtm.h"
 891              		.file 14 "ChibiOS_3.0.2/os/rt/include/chsem.h"
 892              		.file 15 "ChibiOS_3.0.2/os/rt/include/chmtx.h"
 893              		.file 16 "ChibiOS_3.0.2/os/hal/ports/STM32/LLD/GPIOv2/pal_lld.h"
 894              		.file 17 "ChibiOS_3.0.2/ext/stdperiph_stm32f4/inc/stm32f4xx_exti.h"
 895              		.file 18 "ChibiOS_3.0.2/ext/stdperiph_stm32f4/inc/stm32f4xx_tim.h"
 896              		.file 19 "ChibiOS_3.0.2/os/hal/ports/common/ARMCMx/nvic.h"
 897              		.file 20 "ChibiOS_3.0.2/ext/stdperiph_stm32f4/inc/stm32f4xx_rcc.h"
 898              		.file 21 "ChibiOS_3.0.2/ext/stdperiph_stm32f4/inc/stm32f4xx_syscfg.h"
 899              		.file 22 "ChibiOS_3.0.2/os/ext/CMSIS/include/core_cm4.h"