ARM GAS  /tmp/ccDJsI0n.s 			page 1


   1              		.syntax unified
   2              		.cpu cortex-m4
   3              		.eabi_attribute 27, 1
   4              		.eabi_attribute 28, 1
   5              		.fpu fpv4-sp-d16
   6              		.eabi_attribute 20, 1
   7              		.eabi_attribute 21, 1
   8              		.eabi_attribute 23, 3
   9              		.eabi_attribute 24, 1
  10              		.eabi_attribute 25, 1
  11              		.eabi_attribute 26, 1
  12              		.eabi_attribute 30, 2
  13              		.eabi_attribute 34, 1
  14              		.eabi_attribute 18, 4
  15              		.thumb
  16              		.file	"mcpwm.c"
  17              		.text
  18              	.Ltext0:
  19              		.cfi_sections	.debug_frame
  20              		.section	.text.update_adc_sample_pos,"ax",%progbits
  21              		.align	2
  22              		.p2align 4,,15
  23              		.thumb
  24              		.thumb_func
  25              		.type	update_adc_sample_pos, %function
  26              	update_adc_sample_pos:
  27              	.LFB310:
  28              		.file 1 "mcpwm.c"
  29              		.loc 1 2120 0
  30              		.cfi_startproc
  31              		@ args = 0, pretend = 0, frame = 24
  32              		@ frame_needed = 0, uses_anonymous_args = 0
  33              	.LVL0:
  34 0000 F0B5     		push	{r4, r5, r6, r7, lr}
  35              		.cfi_def_cfa_offset 20
  36              		.cfi_offset 4, -20
  37              		.cfi_offset 5, -16
  38              		.cfi_offset 6, -12
  39              		.cfi_offset 7, -8
  40              		.cfi_offset 14, -4
  41 0002 87B0     		sub	sp, sp, #28
  42              		.cfi_def_cfa_offset 48
  43              		.loc 1 2121 0
  44 0004 8268     		ldr	r2, [r0, #8]
  45 0006 0192     		str	r2, [sp, #4]
  46              		.loc 1 2122 0
  47 0008 4268     		ldr	r2, [r0, #4]
  48 000a 0292     		str	r2, [sp, #8]
  49              		.loc 1 2123 0
  50 000c C268     		ldr	r2, [r0, #12]
  51 000e 0392     		str	r2, [sp, #12]
  52              		.loc 1 2124 0
  53 0010 0269     		ldr	r2, [r0, #16]
  54 0012 0492     		str	r2, [sp, #16]
  55              		.loc 1 2125 0
  56 0014 4269     		ldr	r2, [r0, #20]
  57              		.loc 1 2127 0
ARM GAS  /tmp/ccDJsI0n.s 			page 2


  58 0016 754B     		ldr	r3, .L45
  59              		.loc 1 2125 0
  60 0018 0592     		str	r2, [sp, #20]
  61              		.loc 1 2127 0
  62 001a DDED027A 		flds	s15, [sp, #8]	@ int
  63 001e 1A68     		ldr	r2, [r3]
  64 0020 F8EE677A 		fuitos	s15, s15
  65 0024 92ED147A 		flds	s14, [r2, #80]
  66 0028 019B     		ldr	r3, [sp, #4]
  67 002a 67EE877A 		fmuls	s15, s15, s14
  68 002e FCEEE77A 		ftouizs	s15, s15
  69 0032 17EE901A 		fmrs	r1, s15	@ int
  70 0036 9942     		cmp	r1, r3
  71 0038 0BD2     		bcs	.L2
  72              		.loc 1 2128 0
  73 003a DDED027A 		flds	s15, [sp, #8]	@ int
  74 003e 92ED147A 		flds	s14, [r2, #80]
  75 0042 F8EE677A 		fuitos	s15, s15
  76 0046 67EE877A 		fmuls	s15, s15, s14
  77 004a FCEEE77A 		ftouizs	s15, s15
  78 004e CDED017A 		fsts	s15, [sp, #4]	@ int
  79              	.L2:
  80              		.loc 1 2131 0
  81 0052 6749     		ldr	r1, .L45+4
  82 0054 0023     		movs	r3, #0
  83 0056 0B60     		str	r3, [r1]
  84              		.loc 1 2133 0
  85 0058 9378     		ldrb	r3, [r2, #2]	@ zero_extendqisi2
  86 005a DBB2     		uxtb	r3, r3
  87 005c 012B     		cmp	r3, #1
  88 005e 3DD0     		beq	.L42
  89              		.loc 1 2151 0
  90 0060 644B     		ldr	r3, .L45+8
  91 0062 1B78     		ldrb	r3, [r3]	@ zero_extendqisi2
  92 0064 012B     		cmp	r3, #1
  93 0066 00F08480 		beq	.L43
  94              		.loc 1 2159 0
  95 006a 1378     		ldrb	r3, [r2]	@ zero_extendqisi2
  96 006c 022B     		cmp	r3, #2
  97 006e 43D0     		beq	.L44
  98              		.loc 1 2239 0
  99 0070 019B     		ldr	r3, [sp, #4]
 100 0072 5B08     		lsrs	r3, r3, #1
 101 0074 0393     		str	r3, [sp, #12]
 102              		.loc 1 2242 0
 103 0076 029B     		ldr	r3, [sp, #8]
 104 0078 019C     		ldr	r4, [sp, #4]
 105 007a 019A     		ldr	r2, [sp, #4]
 106 007c 1B1B     		subs	r3, r3, r4
 107 007e 02EB5303 		add	r3, r2, r3, lsr #1
 108 0082 0493     		str	r3, [sp, #16]
 109              		.loc 1 2243 0
 110 0084 029B     		ldr	r3, [sp, #8]
 111 0086 049A     		ldr	r2, [sp, #16]
 112 0088 463B     		subs	r3, r3, #70
 113 008a 9342     		cmp	r3, r2
 114 008c 02D2     		bcs	.L21
ARM GAS  /tmp/ccDJsI0n.s 			page 3


 115              		.loc 1 2244 0
 116 008e 029B     		ldr	r3, [sp, #8]
 117 0090 463B     		subs	r3, r3, #70
 118 0092 0493     		str	r3, [sp, #16]
 119              	.L21:
 120              		.loc 1 2247 0
 121 0094 049B     		ldr	r3, [sp, #16]
 122 0096 0593     		str	r3, [sp, #20]
 123              		.loc 1 2251 0
 124 0098 029A     		ldr	r2, [sp, #8]
 125 009a 019B     		ldr	r3, [sp, #4]
 126 009c B3EB520F 		cmp	r3, r2, lsr #1
 127 00a0 14D9     		bls	.L5
 128              		.loc 1 2273 0
 129 00a2 554B     		ldr	r3, .L45+12
 130 00a4 1B68     		ldr	r3, [r3]
 131 00a6 002B     		cmp	r3, #0
 132 00a8 50D0     		beq	.L22
 133              		.loc 1 2274 0
 134 00aa 544B     		ldr	r3, .L45+16
 135 00ac 1B68     		ldr	r3, [r3]
 136 00ae 013B     		subs	r3, r3, #1
 137 00b0 052B     		cmp	r3, #5
 138 00b2 0BD8     		bhi	.L5
 139 00b4 DFE803F0 		tbb	[pc, r3]
 140              	.L24:
 141 00b8 57       		.byte	(.L35-.L24)/2
 142 00b9 54       		.byte	(.L33-.L24)/2
 143 00ba 54       		.byte	(.L33-.L24)/2
 144 00bb 5A       		.byte	(.L36-.L24)/2
 145 00bc 5A       		.byte	(.L36-.L24)/2
 146 00bd 57       		.byte	(.L35-.L24)/2
 147              	.LVL1:
 148              		.p2align 1
 149              	.L12:
 150              	.LBB75:
 151              		.loc 1 2203 0
 152 00be 4E4B     		ldr	r3, .L45+12
 153 00c0 1B68     		ldr	r3, [r3]
 154 00c2 002B     		cmp	r3, #0
 155 00c4 00F08C80 		beq	.L18
 156              	.L39:
 157              		.loc 1 2204 0
 158 00c8 0497     		str	r7, [sp, #16]
 159              		.loc 1 2205 0
 160 00ca 0592     		str	r2, [sp, #20]
 161              	.LVL2:
 162              	.L5:
 163              	.LBE75:
 164              		.loc 1 2299 0
 165 00cc 039B     		ldr	r3, [sp, #12]
 166 00ce C360     		str	r3, [r0, #12]
 167              		.loc 1 2300 0
 168 00d0 049B     		ldr	r3, [sp, #16]
 169 00d2 0361     		str	r3, [r0, #16]
 170              		.loc 1 2301 0
 171 00d4 059B     		ldr	r3, [sp, #20]
ARM GAS  /tmp/ccDJsI0n.s 			page 4


 172 00d6 4361     		str	r3, [r0, #20]
 173              		.loc 1 2302 0
 174 00d8 07B0     		add	sp, sp, #28
 175              		.cfi_remember_state
 176              		.cfi_def_cfa_offset 20
 177              		@ sp needed
 178 00da F0BD     		pop	{r4, r5, r6, r7, pc}
 179              	.L42:
 180              		.cfi_restore_state
 181              		.loc 1 2134 0
 182 00dc 029A     		ldr	r2, [sp, #8]
 183 00de 0A3A     		subs	r2, r2, #10
 184 00e0 0492     		str	r2, [sp, #16]
 185              		.loc 1 2135 0
 186 00e2 029A     		ldr	r2, [sp, #8]
 187 00e4 0A3A     		subs	r2, r2, #10
 188 00e6 0592     		str	r2, [sp, #20]
 189              		.loc 1 2137 0
 190 00e8 019A     		ldr	r2, [sp, #4]
 191 00ea B2F57A7F 		cmp	r2, #1000
 192 00ee 27D9     		bls	.L4
 193              		.loc 1 2138 0
 194 00f0 019B     		ldr	r3, [sp, #4]
 195 00f2 5B08     		lsrs	r3, r3, #1
 196 00f4 0393     		str	r3, [sp, #12]
 197 00f6 E9E7     		b	.L5
 198              	.L44:
 199              	.LBB76:
 200              		.loc 1 2160 0
 201 00f8 029E     		ldr	r6, [sp, #8]
 202              		.loc 1 2161 0
 203 00fa 029C     		ldr	r4, [sp, #8]
 204 00fc 019A     		ldr	r2, [sp, #4]
 205 00fe 019D     		ldr	r5, [sp, #4]
 206              		.loc 1 2162 0
 207 0100 029F     		ldr	r7, [sp, #8]
 208              		.loc 1 2165 0
 209 0102 029B     		ldr	r3, [sp, #8]
 210              		.loc 1 2168 0
 211 0104 DFF8F4E0 		ldr	lr, .L45+16
 212              		.loc 1 2165 0
 213 0108 9B08     		lsrs	r3, r3, #2
 214 010a 0393     		str	r3, [sp, #12]
 215              		.loc 1 2168 0
 216 010c DEF80030 		ldr	r3, [lr]
 217              		.loc 1 2161 0
 218 0110 A21A     		subs	r2, r4, r2
 219              		.loc 1 2168 0
 220 0112 013B     		subs	r3, r3, #1
 221              		.loc 1 2160 0
 222 0114 023E     		subs	r6, r6, #2
 223              	.LVL3:
 224              		.loc 1 2161 0
 225 0116 05EB5202 		add	r2, r5, r2, lsr #1
 226              	.LVL4:
 227              		.loc 1 2162 0
 228 011a 023F     		subs	r7, r7, #2
ARM GAS  /tmp/ccDJsI0n.s 			page 5


 229              	.LVL5:
 230              		.loc 1 2168 0
 231 011c 052B     		cmp	r3, #5
 232 011e D5D8     		bhi	.L5
 233 0120 01A4     		adr	r4, .L9
 234 0122 54F823F0 		ldr	pc, [r4, r3, lsl #2]
 235 0126 00BF     		.p2align 2
 236              	.L9:
 237 0128 D7010000 		.word	.L8+1
 238 012c C5010000 		.word	.L10+1
 239 0130 B9010000 		.word	.L11+1
 240 0134 BF000000 		.word	.L12+1
 241 0138 A7010000 		.word	.L13+1
 242 013c 97010000 		.word	.L14+1
 243              	.LVL6:
 244              		.p2align 1
 245              	.L4:
 246              	.LBE76:
 247              		.loc 1 2140 0
 248 0140 019A     		ldr	r2, [sp, #4]
 249 0142 02F54872 		add	r2, r2, #800
 250 0146 0392     		str	r2, [sp, #12]
 251              		.loc 1 2141 0
 252 0148 0B60     		str	r3, [r1]
 253 014a BFE7     		b	.L5
 254              	.L22:
 255              		.loc 1 2284 0
 256 014c 2B4B     		ldr	r3, .L45+16
 257 014e 1B68     		ldr	r3, [r3]
 258 0150 013B     		subs	r3, r3, #1
 259 0152 052B     		cmp	r3, #5
 260 0154 BAD8     		bhi	.L5
 261 0156 DFE803F0 		tbb	[pc, r3]
 262              	.L31:
 263 015a 09       		.byte	(.L36-.L31)/2
 264 015b 03       		.byte	(.L33-.L31)/2
 265 015c 03       		.byte	(.L33-.L31)/2
 266 015d 06       		.byte	(.L35-.L31)/2
 267 015e 06       		.byte	(.L35-.L31)/2
 268 015f 09       		.byte	(.L36-.L31)/2
 269              		.p2align 1
 270              	.L33:
 271              		.loc 1 2287 0
 272 0160 0223     		movs	r3, #2
 273 0162 0B60     		str	r3, [r1]
 274 0164 B2E7     		b	.L5
 275              	.L35:
 276              		.loc 1 2289 0
 277 0166 0323     		movs	r3, #3
 278 0168 0B60     		str	r3, [r1]
 279 016a AFE7     		b	.L5
 280              	.L36:
 281              		.loc 1 2290 0
 282 016c 0123     		movs	r3, #1
 283 016e 0B60     		str	r3, [r1]
 284 0170 ACE7     		b	.L5
 285              	.L43:
ARM GAS  /tmp/ccDJsI0n.s 			page 6


 286              		.loc 1 2153 0
 287 0172 019B     		ldr	r3, [sp, #4]
 288 0174 5B08     		lsrs	r3, r3, #1
 289 0176 0393     		str	r3, [sp, #12]
 290              		.loc 1 2156 0
 291 0178 029B     		ldr	r3, [sp, #8]
 292 017a 0199     		ldr	r1, [sp, #4]
 293 017c 019A     		ldr	r2, [sp, #4]
 294 017e 5B1A     		subs	r3, r3, r1
 295 0180 02EB5303 		add	r3, r2, r3, lsr #1
 296 0184 0493     		str	r3, [sp, #16]
 297              		.loc 1 2157 0
 298 0186 029B     		ldr	r3, [sp, #8]
 299 0188 0199     		ldr	r1, [sp, #4]
 300 018a 019A     		ldr	r2, [sp, #4]
 301 018c 5B1A     		subs	r3, r3, r1
 302 018e 02EB5303 		add	r3, r2, r3, lsr #1
 303 0192 0593     		str	r3, [sp, #20]
 304 0194 9AE7     		b	.L5
 305              	.LVL7:
 306              	.L14:
 307              	.LBB77:
 308              		.loc 1 2226 0
 309 0196 184B     		ldr	r3, .L45+12
 310 0198 1B68     		ldr	r3, [r3]
 311 019a 43B1     		cbz	r3, .L20
 312              	.L38:
 313              		.loc 1 2229 0
 314 019c 0123     		movs	r3, #1
 315              		.loc 1 2227 0
 316 019e 0496     		str	r6, [sp, #16]
 317              		.loc 1 2228 0
 318 01a0 0597     		str	r7, [sp, #20]
 319              		.loc 1 2229 0
 320 01a2 0B60     		str	r3, [r1]
 321 01a4 92E7     		b	.L5
 322              	.L13:
 323              		.loc 1 2214 0
 324 01a6 144B     		ldr	r3, .L45+12
 325 01a8 1B68     		ldr	r3, [r3]
 326 01aa 002B     		cmp	r3, #0
 327 01ac F6D0     		beq	.L38
 328              	.L20:
 329              		.loc 1 2233 0
 330 01ae 0123     		movs	r3, #1
 331              		.loc 1 2231 0
 332 01b0 0496     		str	r6, [sp, #16]
 333              		.loc 1 2232 0
 334 01b2 0592     		str	r2, [sp, #20]
 335              		.loc 1 2233 0
 336 01b4 0B60     		str	r3, [r1]
 337 01b6 89E7     		b	.L5
 338              	.L11:
 339              		.loc 1 2192 0
 340 01b8 0F4B     		ldr	r3, .L45+12
 341 01ba 1B68     		ldr	r3, [r3]
 342 01bc 33B1     		cbz	r3, .L17
ARM GAS  /tmp/ccDJsI0n.s 			page 7


 343              	.L40:
 344              		.loc 1 2193 0
 345 01be 0492     		str	r2, [sp, #16]
 346              		.loc 1 2194 0
 347 01c0 0597     		str	r7, [sp, #20]
 348 01c2 83E7     		b	.L5
 349              	.L10:
 350              		.loc 1 2181 0
 351 01c4 0C4B     		ldr	r3, .L45+12
 352 01c6 1B68     		ldr	r3, [r3]
 353 01c8 002B     		cmp	r3, #0
 354 01ca F8D0     		beq	.L40
 355              	.L17:
 356              		.loc 1 2198 0
 357 01cc 0223     		movs	r3, #2
 358              		.loc 1 2196 0
 359 01ce 0492     		str	r2, [sp, #16]
 360              		.loc 1 2197 0
 361 01d0 0596     		str	r6, [sp, #20]
 362              		.loc 1 2198 0
 363 01d2 0B60     		str	r3, [r1]
 364 01d4 7AE7     		b	.L5
 365              	.L8:
 366              		.loc 1 2170 0
 367 01d6 084B     		ldr	r3, .L45+12
 368 01d8 1B68     		ldr	r3, [r3]
 369 01da 002B     		cmp	r3, #0
 370 01dc 3FF474AF 		beq	.L39
 371              	.L18:
 372              		.loc 1 2209 0
 373 01e0 0223     		movs	r3, #2
 374              		.loc 1 2207 0
 375 01e2 0497     		str	r7, [sp, #16]
 376              		.loc 1 2208 0
 377 01e4 0596     		str	r6, [sp, #20]
 378              		.loc 1 2209 0
 379 01e6 0B60     		str	r3, [r1]
 380 01e8 70E7     		b	.L5
 381              	.L46:
 382 01ea 00BF     		.align	2
 383              	.L45:
 384 01ec 00000000 		.word	.LANCHOR0
 385 01f0 00000000 		.word	.LANCHOR1
 386 01f4 00000000 		.word	.LANCHOR2
 387 01f8 00000000 		.word	.LANCHOR4
 388 01fc 00000000 		.word	.LANCHOR3
 389              	.LBE77:
 390              		.cfi_endproc
 391              	.LFE310:
 392              		.size	update_adc_sample_pos, .-update_adc_sample_pos
 393              		.section	.text.update_rpm_tacho,"ax",%progbits
 394              		.align	2
 395              		.p2align 4,,15
 396              		.thumb
 397              		.thumb_func
 398              		.type	update_rpm_tacho, %function
 399              	update_rpm_tacho:
ARM GAS  /tmp/ccDJsI0n.s 			page 8


 400              	.LFB311:
 401              		.loc 1 2304 0
 402              		.cfi_startproc
 403              		@ args = 0, pretend = 0, frame = 0
 404              		@ frame_needed = 0, uses_anonymous_args = 0
 405              		@ link register save eliminated.
 406              		.loc 1 2305 0
 407 0000 1E4B     		ldr	r3, .L60
 408              		.loc 1 2307 0
 409 0002 1F48     		ldr	r0, .L60+4
 410              		.loc 1 2305 0
 411 0004 1968     		ldr	r1, [r3]
 412              		.loc 1 2307 0
 413 0006 0268     		ldr	r2, [r0]
 414 0008 1E4B     		ldr	r3, .L60+8
 415              		.loc 1 2305 0
 416 000a 0139     		subs	r1, r1, #1
 417              	.LVL8:
 418              		.loc 1 2307 0
 419 000c 8A1A     		subs	r2, r1, r2
 420              		.loc 1 2304 0
 421 000e 30B4     		push	{r4, r5}
 422              		.cfi_def_cfa_offset 8
 423              		.cfi_offset 4, -8
 424              		.cfi_offset 5, -4
 425              		.loc 1 2307 0
 426 0010 83FB0243 		smull	r4, r3, r3, r2
 427 0014 A3EBE273 		sub	r3, r3, r2, asr #31
 428 0018 03EB4303 		add	r3, r3, r3, lsl #1
 429 001c A2EB4303 		sub	r3, r2, r3, lsl #1
 430              	.LVL9:
 431              		.loc 1 2310 0
 432 0020 032B     		cmp	r3, #3
 433              		.loc 1 2308 0
 434 0022 0160     		str	r1, [r0]
 435              		.loc 1 2310 0
 436 0024 1DDD     		ble	.L48
 437              		.loc 1 2311 0
 438 0026 063B     		subs	r3, r3, #6
 439              	.LVL10:
 440              	.L54:
 441              		.loc 1 2317 0
 442 0028 174A     		ldr	r2, .L60+12
 443 002a 5169     		ldr	r1, [r2, #20]
 444              	.LVL11:
 445              		.loc 1 2318 0
 446 002c 4FF08040 		mov	r0, #1073741824
 447              		.loc 1 2317 0
 448 0030 1944     		add	r1, r1, r3
 449 0032 5161     		str	r1, [r2, #20]
 450              		.loc 1 2318 0
 451 0034 416A     		ldr	r1, [r0, #36]
 452 0036 9569     		ldr	r5, [r2, #24]
 453              		.loc 1 2319 0
 454 0038 0024     		movs	r4, #0
 455              		.loc 1 2318 0
 456 003a 2944     		add	r1, r1, r5
ARM GAS  /tmp/ccDJsI0n.s 			page 9


 457 003c 9161     		str	r1, [r2, #24]
 458              		.loc 1 2319 0
 459 003e 4462     		str	r4, [r0, #36]
 460              	.LVL12:
 461              	.L51:
 462              		.loc 1 2323 0
 463 0040 1248     		ldr	r0, .L60+16
 464              		.loc 1 2324 0
 465 0042 1349     		ldr	r1, .L60+20
 466              		.loc 1 2323 0
 467 0044 0268     		ldr	r2, [r0]
 468              		.loc 1 2326 0
 469 0046 134C     		ldr	r4, .L60+24
 470              		.loc 1 2323 0
 471 0048 1A44     		add	r2, r2, r3
 472 004a 0260     		str	r2, [r0]
 473              		.loc 1 2324 0
 474 004c 0A68     		ldr	r2, [r1]
 475 004e 1A44     		add	r2, r2, r3
 476 0050 0A60     		str	r2, [r1]
 477              		.loc 1 2326 0
 478 0052 2268     		ldr	r2, [r4]
 479              		.loc 1 2327 0
 480 0054 1049     		ldr	r1, .L60+28
 481              		.loc 1 2326 0
 482 0056 5AB9     		cbnz	r2, .L59
 483              		.loc 1 2329 0
 484 0058 0A68     		ldr	r2, [r1]
 485 005a D31A     		subs	r3, r2, r3
 486              	.LVL13:
 487 005c 0B60     		str	r3, [r1]
 488              		.loc 1 2331 0
 489 005e 30BC     		pop	{r4, r5}
 490              		.cfi_remember_state
 491              		.cfi_restore 5
 492              		.cfi_restore 4
 493              		.cfi_def_cfa_offset 0
 494 0060 7047     		bx	lr
 495              	.LVL14:
 496              	.L48:
 497              		.cfi_restore_state
 498              		.loc 1 2312 0
 499 0062 9A1C     		adds	r2, r3, #2
 500 0064 01DA     		bge	.L50
 501              		.loc 1 2313 0
 502 0066 0633     		adds	r3, r3, #6
 503              	.LVL15:
 504 0068 DEE7     		b	.L54
 505              	.L50:
 506              		.loc 1 2316 0
 507 006a 002B     		cmp	r3, #0
 508 006c E8D0     		beq	.L51
 509 006e DBE7     		b	.L54
 510              	.LVL16:
 511              	.L59:
 512              		.loc 1 2327 0
 513 0070 0A68     		ldr	r2, [r1]
ARM GAS  /tmp/ccDJsI0n.s 			page 10


 514 0072 1344     		add	r3, r3, r2
 515              	.LVL17:
 516 0074 0B60     		str	r3, [r1]
 517              		.loc 1 2331 0
 518 0076 30BC     		pop	{r4, r5}
 519              		.cfi_restore 4
 520              		.cfi_restore 5
 521              		.cfi_def_cfa_offset 0
 522 0078 7047     		bx	lr
 523              	.L61:
 524 007a 00BF     		.align	2
 525              	.L60:
 526 007c 00000000 		.word	.LANCHOR3
 527 0080 00000000 		.word	.LANCHOR5
 528 0084 ABAAAA2A 		.word	715827883
 529 0088 00000000 		.word	.LANCHOR6
 530 008c 00000000 		.word	.LANCHOR7
 531 0090 00000000 		.word	.LANCHOR8
 532 0094 00000000 		.word	.LANCHOR4
 533 0098 00000000 		.word	.LANCHOR9
 534              		.cfi_endproc
 535              	.LFE311:
 536              		.size	update_rpm_tacho, .-update_rpm_tacho
 537              		.section	.text.update_sensor_mode,"ax",%progbits
 538              		.align	2
 539              		.p2align 4,,15
 540              		.thumb
 541              		.thumb_func
 542              		.type	update_sensor_mode, %function
 543              	update_sensor_mode:
 544              	.LFB312:
 545              		.loc 1 2333 0
 546              		.cfi_startproc
 547              		@ args = 0, pretend = 0, frame = 0
 548              		@ frame_needed = 0, uses_anonymous_args = 0
 549              		@ link register save eliminated.
 550              		.loc 1 2334 0
 551 0000 114B     		ldr	r3, .L73
 552 0002 1B68     		ldr	r3, [r3]
 553 0004 DA78     		ldrb	r2, [r3, #3]	@ zero_extendqisi2
 554 0006 BAB1     		cbz	r2, .L63
 555              		.loc 1 2335 0 discriminator 1
 556 0008 DA78     		ldrb	r2, [r3, #3]	@ zero_extendqisi2
 557              		.loc 1 2334 0 discriminator 1
 558 000a 022A     		cmp	r2, #2
 559 000c 03D0     		beq	.L72
 560              	.L64:
 561              		.loc 1 2339 0
 562 000e 0F4B     		ldr	r3, .L73+4
 563 0010 0022     		movs	r2, #0
 564 0012 1A70     		strb	r2, [r3]
 565 0014 7047     		bx	lr
 566              	.L72:
 567              	.LBB78:
 568              	.LBB79:
 569              		.loc 1 688 0
 570 0016 0E4A     		ldr	r2, .L73+8
ARM GAS  /tmp/ccDJsI0n.s 			page 11


 571 0018 1268     		ldr	r2, [r2]
 572 001a 8AB9     		cbnz	r2, .L65
 573 001c 0D4A     		ldr	r2, .L73+12
 574 001e D2ED007A 		flds	s15, [r2]
 575 0022 F1EE677A 		fnegs	s15, s15
 576              	.L66:
 577              	.LBE79:
 578              	.LBE78:
 579              		.loc 1 2336 0
 580 0026 93ED227A 		flds	s14, [r3, #136]
 581 002a F0EEE77A 		fabss	s15, s15
 582              		.loc 1 2335 0
 583 002e F4EEC77A 		fcmpes	s15, s14
 584 0032 F1EE10FA 		fmstat
 585 0036 EADD     		ble	.L64
 586              	.L63:
 587              		.loc 1 2337 0
 588 0038 044B     		ldr	r3, .L73+4
 589 003a 0122     		movs	r2, #1
 590 003c 1A70     		strb	r2, [r3]
 591 003e 7047     		bx	lr
 592              	.L65:
 593              	.LBB81:
 594              	.LBB80:
 595              		.loc 1 688 0
 596 0040 044A     		ldr	r2, .L73+12
 597 0042 D2ED007A 		flds	s15, [r2]
 598 0046 EEE7     		b	.L66
 599              	.L74:
 600              		.align	2
 601              	.L73:
 602 0048 00000000 		.word	.LANCHOR0
 603 004c 00000000 		.word	.LANCHOR11
 604 0050 00000000 		.word	.LANCHOR4
 605 0054 00000000 		.word	.LANCHOR10
 606              	.LBE80:
 607              	.LBE81:
 608              		.cfi_endproc
 609              	.LFE312:
 610              		.size	update_sensor_mode, .-update_sensor_mode
 611              		.section	.text.update_timer_attempt,"ax",%progbits
 612              		.align	2
 613              		.p2align 4,,15
 614              		.thumb
 615              		.thumb_func
 616              		.type	update_timer_attempt, %function
 617              	update_timer_attempt:
 618              	.LFB315:
 619              		.loc 1 2395 0
 620              		.cfi_startproc
 621              		@ args = 0, pretend = 0, frame = 0
 622              		@ frame_needed = 0, uses_anonymous_args = 0
 623 0000 08B5     		push	{r3, lr}
 624              		.cfi_def_cfa_offset 8
 625              		.cfi_offset 3, -8
 626              		.cfi_offset 14, -4
 627              		.loc 1 2396 0
ARM GAS  /tmp/ccDJsI0n.s 			page 12


 628 0002 FFF7FEFF 		bl	utils_sys_lock_cnt
 629              	.LVL18:
 630              		.loc 1 2399 0
 631 0006 194A     		ldr	r2, .L78
 632 0008 1378     		ldrb	r3, [r2]	@ zero_extendqisi2
 633 000a 002B     		cmp	r3, #0
 634 000c 2AD1     		bne	.L76
 635              		.loc 1 2399 0 is_stmt 0 discriminator 1
 636 000e 184B     		ldr	r3, .L78+4
 637 0010 596A     		ldr	r1, [r3, #36]
 638 0012 0A29     		cmp	r1, #10
 639 0014 26D9     		bls	.L76
 640              		.loc 1 2399 0 discriminator 2
 641 0016 586A     		ldr	r0, [r3, #36]
 642 0018 D96A     		ldr	r1, [r3, #44]
 643 001a A1F5FA71 		sub	r1, r1, #500
 644 001e 8842     		cmp	r0, r1
 645 0020 20D2     		bcs	.L76
 646              		.loc 1 2401 0 is_stmt 1
 647 0022 1868     		ldr	r0, [r3]
 648              		.loc 1 2402 0
 649 0024 1349     		ldr	r1, .L78+8
 650              		.loc 1 2401 0
 651 0026 40F00200 		orr	r0, r0, #2
 652 002a 1860     		str	r0, [r3]
 653              		.loc 1 2402 0
 654 002c 0868     		ldr	r0, [r1]
 655 002e 40F00200 		orr	r0, r0, #2
 656 0032 0860     		str	r0, [r1]
 657              		.loc 1 2405 0
 658 0034 5068     		ldr	r0, [r2, #4]
 659 0036 D862     		str	r0, [r3, #44]
 660              		.loc 1 2406 0
 661 0038 9068     		ldr	r0, [r2, #8]
 662 003a 5863     		str	r0, [r3, #52]
 663              		.loc 1 2407 0
 664 003c 9068     		ldr	r0, [r2, #8]
 665 003e 9863     		str	r0, [r3, #56]
 666              		.loc 1 2408 0
 667 0040 9068     		ldr	r0, [r2, #8]
 668 0042 D863     		str	r0, [r3, #60]
 669              		.loc 1 2409 0
 670 0044 D068     		ldr	r0, [r2, #12]
 671 0046 4863     		str	r0, [r1, #52]
 672              		.loc 1 2410 0
 673 0048 1069     		ldr	r0, [r2, #16]
 674 004a 1864     		str	r0, [r3, #64]
 675              		.loc 1 2411 0
 676 004c 5069     		ldr	r0, [r2, #20]
 677 004e 8863     		str	r0, [r1, #56]
 678              		.loc 1 2414 0
 679 0050 1868     		ldr	r0, [r3]
 680 0052 20F00200 		bic	r0, r0, #2
 681 0056 1860     		str	r0, [r3]
 682              		.loc 1 2415 0
 683 0058 0B68     		ldr	r3, [r1]
 684              		.loc 1 2416 0
ARM GAS  /tmp/ccDJsI0n.s 			page 13


 685 005a 0120     		movs	r0, #1
 686              		.loc 1 2415 0
 687 005c 23F00203 		bic	r3, r3, #2
 688 0060 0B60     		str	r3, [r1]
 689              		.loc 1 2416 0
 690 0062 1070     		strb	r0, [r2]
 691              	.L76:
 692              		.loc 1 2420 0
 693 0064 BDE80840 		pop	{r3, lr}
 694              		.cfi_restore 14
 695              		.cfi_restore 3
 696              		.cfi_def_cfa_offset 0
 697              		.loc 1 2419 0
 698 0068 FFF7FEBF 		b	utils_sys_unlock_cnt
 699              	.LVL19:
 700              	.L79:
 701              		.align	2
 702              	.L78:
 703 006c 00000000 		.word	.LANCHOR12
 704 0070 00000140 		.word	1073807360
 705 0074 00040140 		.word	1073808384
 706              		.cfi_endproc
 707              	.LFE315:
 708              		.size	update_timer_attempt, .-update_timer_attempt
 709              		.section	.text.set_next_timer_settings,"ax",%progbits
 710              		.align	2
 711              		.p2align 4,,15
 712              		.thumb
 713              		.thumb_func
 714              		.type	set_next_timer_settings, %function
 715              	set_next_timer_settings:
 716              	.LFB314:
 717              		.loc 1 2382 0
 718              		.cfi_startproc
 719              		@ args = 0, pretend = 0, frame = 0
 720              		@ frame_needed = 0, uses_anonymous_args = 0
 721              	.LVL20:
 722 0000 70B5     		push	{r4, r5, r6, lr}
 723              		.cfi_def_cfa_offset 16
 724              		.cfi_offset 4, -16
 725              		.cfi_offset 5, -12
 726              		.cfi_offset 6, -8
 727              		.cfi_offset 14, -4
 728              		.loc 1 2382 0
 729 0002 0446     		mov	r4, r0
 730              		.loc 1 2383 0
 731 0004 FFF7FEFF 		bl	utils_sys_lock_cnt
 732              	.LVL21:
 733              		.loc 1 2384 0
 734 0008 0FCC     		ldmia	r4!, {r0, r1, r2, r3}
 735              	.LVL22:
 736 000a 074E     		ldr	r6, .L82
 737 000c 3546     		mov	r5, r6
 738 000e 0FC5     		stmia	r5!, {r0, r1, r2, r3}
 739 0010 94E80300 		ldmia	r4, {r0, r1}
 740              		.loc 1 2385 0
 741 0014 0023     		movs	r3, #0
ARM GAS  /tmp/ccDJsI0n.s 			page 14


 742              		.loc 1 2384 0
 743 0016 85E80300 		stmia	r5, {r0, r1}
 744              		.loc 1 2385 0
 745 001a 3370     		strb	r3, [r6]
 746              		.loc 1 2386 0
 747 001c FFF7FEFF 		bl	utils_sys_unlock_cnt
 748              	.LVL23:
 749              		.loc 1 2389 0
 750 0020 BDE87040 		pop	{r4, r5, r6, lr}
 751              		.cfi_restore 14
 752              		.cfi_restore 6
 753              		.cfi_restore 5
 754              		.cfi_restore 4
 755              		.cfi_def_cfa_offset 0
 756              	.LVL24:
 757              		.loc 1 2388 0
 758 0024 FFF7FEBF 		b	update_timer_attempt
 759              	.LVL25:
 760              	.L83:
 761              		.align	2
 762              	.L82:
 763 0028 00000000 		.word	.LANCHOR12
 764              		.cfi_endproc
 765              	.LFE314:
 766              		.size	set_next_timer_settings, .-set_next_timer_settings
 767              		.section	.text.set_duty_cycle_hw,"ax",%progbits
 768              		.align	2
 769              		.p2align 4,,15
 770              		.thumb
 771              		.thumb_func
 772              		.type	set_duty_cycle_hw, %function
 773              	set_duty_cycle_hw:
 774              	.LFB290:
 775              		.loc 1 1028 0
 776              		.cfi_startproc
 777              		@ args = 0, pretend = 0, frame = 32
 778              		@ frame_needed = 0, uses_anonymous_args = 0
 779              	.LVL26:
 780 0000 70B5     		push	{r4, r5, r6, lr}
 781              		.cfi_def_cfa_offset 16
 782              		.cfi_offset 4, -16
 783              		.cfi_offset 5, -12
 784              		.cfi_offset 6, -8
 785              		.cfi_offset 14, -4
 786              		.loc 1 1032 0
 787 0002 414D     		ldr	r5, .L100
 788              		.loc 1 1035 0
 789 0004 414E     		ldr	r6, .L100+4
 790              		.loc 1 1028 0
 791 0006 88B0     		sub	sp, sp, #32
 792              		.cfi_def_cfa_offset 48
 793              		.loc 1 1028 0
 794 0008 8DED010A 		fsts	s0, [sp, #4]
 795              		.loc 1 1031 0
 796 000c FFF7FEFF 		bl	utils_sys_lock_cnt
 797              	.LVL27:
 798              		.loc 1 1032 0
ARM GAS  /tmp/ccDJsI0n.s 			page 15


 799 0010 0FCD     		ldmia	r5!, {r0, r1, r2, r3}
 800 0012 02AC     		add	r4, sp, #8
 801 0014 0FC4     		stmia	r4!, {r0, r1, r2, r3}
 802 0016 95E80300 		ldmia	r5, {r0, r1}
 803 001a 84E80300 		stmia	r4, {r0, r1}
 804              		.loc 1 1033 0
 805 001e FFF7FEFF 		bl	utils_sys_unlock_cnt
 806              	.LVL28:
 807              		.loc 1 1035 0
 808 0022 3368     		ldr	r3, [r6]
 809 0024 01A8     		add	r0, sp, #4
 810              	.LVL29:
 811 0026 93ED130A 		flds	s0, [r3, #76]
 812 002a D3ED140A 		flds	s1, [r3, #80]
 813 002e FFF7FEFF 		bl	utils_truncate_number
 814              	.LVL30:
 815              		.loc 1 1037 0
 816 0032 3268     		ldr	r2, [r6]
 817 0034 9378     		ldrb	r3, [r2, #2]	@ zero_extendqisi2
 818 0036 13B9     		cbnz	r3, .L85
 819              		.loc 1 1037 0 is_stmt 0 discriminator 1
 820 0038 1378     		ldrb	r3, [r2]	@ zero_extendqisi2
 821 003a 022B     		cmp	r3, #2
 822 003c 3FD0     		beq	.L98
 823              	.L85:
 824              		.loc 1 1041 0 is_stmt 1
 825 003e DDED037A 		flds	s15, [sp, #12]	@ int
 826 0042 9DED017A 		flds	s14, [sp, #4]
 827 0046 F8EE677A 		fuitos	s15, s15
 828 004a 67EE877A 		fmuls	s15, s15, s14
 829 004e FCEEE77A 		ftouizs	s15, s15
 830 0052 CDED007A 		fsts	s15, [sp]	@ int
 831 0056 BDF80030 		ldrh	r3, [sp]
 832 005a 0493     		str	r3, [sp, #16]
 833              		.loc 1 1044 0
 834 005c 9378     		ldrb	r3, [r2, #2]	@ zero_extendqisi2
 835 005e 012B     		cmp	r3, #1
 836 0060 4DD0     		beq	.L99
 837              	.L87:
 838              		.loc 1 1047 0
 839 0062 2B4B     		ldr	r3, .L100+8
 840 0064 1B78     		ldrb	r3, [r3]	@ zero_extendqisi2
 841 0066 012B     		cmp	r3, #1
 842 0068 25D0     		beq	.L89
 843              		.loc 1 1047 0 is_stmt 0 discriminator 1
 844 006a 1378     		ldrb	r3, [r2]	@ zero_extendqisi2
 845 006c 022B     		cmp	r3, #2
 846 006e 22D0     		beq	.L89
 847              		.loc 1 1051 0 is_stmt 1
 848 0070 9FED286A 		flds	s12, .L100+12
 849              		.loc 1 1050 0
 850 0074 DFED286A 		flds	s13, .L100+16
 851 0078 284B     		ldr	r3, .L100+20
 852 007a B0EEC77A 		fabss	s14, s14
 853 007e F7EE007A 		fconsts	s15, #112
 854 0082 77EEC77A 		fsubs	s15, s15, s14
 855              		.loc 1 1051 0
ARM GAS  /tmp/ccDJsI0n.s 			page 16


 856 0086 27EE067A 		fmuls	s14, s14, s12
 857              		.loc 1 1050 0
 858 008a A7EEA67A 		vfma.f32	s14, s15, s13
 859 008e 83ED007A 		fsts	s14, [r3]
 860              	.L88:
 861              		.loc 1 1055 0
 862 0092 D3ED007A 		flds	s15, [r3]
 863 0096 224A     		ldr	r2, .L100+24
 864 0098 FDEEE77A 		ftosizs	s15, s15
 865              		.loc 1 1056 0
 866 009c 02A8     		add	r0, sp, #8
 867              		.loc 1 1055 0
 868 009e 17EE903A 		fmrs	r3, s15	@ int
 869 00a2 92FBF3F3 		sdiv	r3, r2, r3
 870 00a6 0393     		str	r3, [sp, #12]
 871              		.loc 1 1056 0
 872 00a8 FFF7FEFF 		bl	update_adc_sample_pos
 873              	.LVL31:
 874              		.loc 1 1057 0
 875 00ac 02A8     		add	r0, sp, #8
 876 00ae FFF7FEFF 		bl	set_next_timer_settings
 877              	.LVL32:
 878              		.loc 1 1058 0
 879 00b2 08B0     		add	sp, sp, #32
 880              		.cfi_remember_state
 881              		.cfi_def_cfa_offset 16
 882              		@ sp needed
 883 00b4 70BD     		pop	{r4, r5, r6, pc}
 884              	.LVL33:
 885              	.L89:
 886              		.cfi_restore_state
 887              		.loc 1 1048 0
 888 00b6 194B     		ldr	r3, .L100+20
 889 00b8 1A4A     		ldr	r2, .L100+28
 890 00ba 1A60     		str	r2, [r3]	@ float
 891 00bc E9E7     		b	.L88
 892              	.L98:
 893              		.loc 1 1037 0 discriminator 2
 894 00be 144B     		ldr	r3, .L100+8
 895 00c0 1B78     		ldrb	r3, [r3]	@ zero_extendqisi2
 896 00c2 012B     		cmp	r3, #1
 897 00c4 BBD0     		beq	.L85
 898              		.loc 1 1038 0
 899 00c6 DDED036A 		flds	s13, [sp, #12]	@ int
 900              		.loc 1 1039 0
 901 00ca DDED037A 		flds	s15, [sp, #12]	@ int
 902 00ce 9DED017A 		flds	s14, [sp, #4]
 903              		.loc 1 1038 0
 904 00d2 F8EE666A 		fuitos	s13, s13
 905              		.loc 1 1039 0
 906 00d6 F8EE677A 		fuitos	s15, s15
 907              		.loc 1 1038 0
 908 00da B6EE006A 		fconsts	s12, #96
 909 00de 66EE866A 		fmuls	s13, s13, s12
 910              		.loc 1 1039 0
 911 00e2 67EE867A 		fmuls	s15, s15, s12
 912 00e6 E6EE877A 		vfma.f32	s15, s13, s14
ARM GAS  /tmp/ccDJsI0n.s 			page 17


 913              		.loc 1 1038 0
 914 00ea FCEEE77A 		ftouizs	s15, s15
 915 00ee CDED007A 		fsts	s15, [sp]	@ int
 916 00f2 BDF80030 		ldrh	r3, [sp]
 917 00f6 0493     		str	r3, [sp, #16]
 918              		.loc 1 1044 0
 919 00f8 9378     		ldrb	r3, [r2, #2]	@ zero_extendqisi2
 920 00fa 012B     		cmp	r3, #1
 921 00fc B1D1     		bne	.L87
 922              	.L99:
 923              		.loc 1 1045 0
 924 00fe 074B     		ldr	r3, .L100+20
 925 0100 094A     		ldr	r2, .L100+32
 926 0102 1A60     		str	r2, [r3]	@ float
 927 0104 C5E7     		b	.L88
 928              	.L101:
 929 0106 00BF     		.align	2
 930              	.L100:
 931 0108 00000000 		.word	.LANCHOR12
 932 010c 00000000 		.word	.LANCHOR0
 933 0110 00000000 		.word	.LANCHOR2
 934 0114 00401C47 		.word	1193033728
 935 0118 00803B45 		.word	1161527296
 936 011c 00000000 		.word	.LANCHOR13
 937 0120 007A030A 		.word	168000000
 938 0124 00401C47 		.word	1193033728
 939 0128 0050C346 		.word	1187205120
 940              		.cfi_endproc
 941              	.LFE290:
 942              		.size	set_duty_cycle_hw, .-set_duty_cycle_hw
 943              		.section	.text.set_next_comm_step,"ax",%progbits
 944              		.align	2
 945              		.p2align 4,,15
 946              		.thumb
 947              		.thumb_func
 948              		.type	set_next_comm_step, %function
 949              	set_next_comm_step:
 950              	.LFB317:
 951              		.loc 1 2435 0
 952              		.cfi_startproc
 953              		@ args = 0, pretend = 0, frame = 0
 954              		@ frame_needed = 0, uses_anonymous_args = 0
 955              	.LVL34:
 956 0000 F8B5     		push	{r3, r4, r5, r6, r7, lr}
 957              		.cfi_def_cfa_offset 24
 958              		.cfi_offset 3, -24
 959              		.cfi_offset 4, -20
 960              		.cfi_offset 5, -16
 961              		.cfi_offset 6, -12
 962              		.cfi_offset 7, -8
 963              		.cfi_offset 14, -4
 964              		.loc 1 2436 0
 965 0002 B24B     		ldr	r3, .L138
 966 0004 1B68     		ldr	r3, [r3]
 967 0006 9D78     		ldrb	r5, [r3, #2]	@ zero_extendqisi2
 968 0008 EDB2     		uxtb	r5, r5
 969 000a 012D     		cmp	r5, #1
ARM GAS  /tmp/ccDJsI0n.s 			page 18


 970 000c 00F00881 		beq	.L132
 971              	.LVL35:
 972              		.loc 1 2476 0
 973 0010 AF4A     		ldr	r2, .L138+4
 974 0012 1278     		ldrb	r2, [r2]	@ zero_extendqisi2
 975 0014 012A     		cmp	r2, #1
 976 0016 0446     		mov	r4, r0
 977 0018 4FD0     		beq	.L120
 978              		.loc 1 2477 0
 979 001a 1B78     		ldrb	r3, [r3]	@ zero_extendqisi2
 980 001c 03F0FF05 		and	r5, r3, #255
 981 0020 002B     		cmp	r3, #0
 982 0022 4BD0     		beq	.L123
 983              		.loc 1 2471 0
 984 0024 022D     		cmp	r5, #2
 985 0026 0CBF     		ite	eq
 986 0028 7026     		moveq	r6, #112
 987 002a 2026     		movne	r6, #32
 988              		.loc 1 2491 0
 989 002c 012C     		cmp	r4, #1
 990              		.loc 1 2471 0
 991 002e 4FF00405 		mov	r5, #4
 992              	.LVL36:
 993              		.loc 1 2491 0
 994 0032 47D0     		beq	.L133
 995              	.L108:
 996              		.loc 1 2523 0
 997 0034 022C     		cmp	r4, #2
 998 0036 00F0C780 		beq	.L134
 999              		.loc 1 2555 0
 1000 003a 032C     		cmp	r4, #3
 1001 003c 00F01A81 		beq	.L135
 1002              		.loc 1 2587 0
 1003 0040 042C     		cmp	r4, #4
 1004 0042 00F04B81 		beq	.L136
 1005              		.loc 1 2619 0
 1006 0046 052C     		cmp	r4, #5
 1007 0048 00F09C80 		beq	.L137
 1008              		.loc 1 2651 0
 1009 004c 062C     		cmp	r4, #6
 1010 004e 40F09581 		bne	.L118
 1011              		.loc 1 2652 0
 1012 0052 A04B     		ldr	r3, .L138+8
 1013              		.loc 1 2654 0
 1014 0054 A048     		ldr	r0, .L138+12
 1015              	.LVL37:
 1016              		.loc 1 2652 0
 1017 0056 1C68     		ldr	r4, [r3]
 1018              	.LVL38:
 1019 0058 002C     		cmp	r4, #0
 1020 005a 00F02782 		beq	.L119
 1021              		.loc 1 2654 0
 1022 005e 0821     		movs	r1, #8
 1023 0060 2022     		movs	r2, #32
 1024 0062 FFF7FEFF 		bl	TIM_SelectOCxM
 1025              	.LVL39:
 1026              		.loc 1 2655 0
ARM GAS  /tmp/ccDJsI0n.s 			page 19


 1027 0066 9C48     		ldr	r0, .L138+12
 1028 0068 0821     		movs	r1, #8
 1029 006a 0122     		movs	r2, #1
 1030 006c FFF7FEFF 		bl	TIM_CCxCmd
 1031              	.LVL40:
 1032              		.loc 1 2656 0
 1033 0070 9948     		ldr	r0, .L138+12
 1034 0072 0821     		movs	r1, #8
 1035 0074 0022     		movs	r2, #0
 1036 0076 FFF7FEFF 		bl	TIM_CCxNCmd
 1037              	.LVL41:
 1038              		.loc 1 2659 0
 1039 007a 9748     		ldr	r0, .L138+12
 1040 007c 0421     		movs	r1, #4
 1041 007e 6022     		movs	r2, #96
 1042 0080 FFF7FEFF 		bl	TIM_SelectOCxM
 1043              	.LVL42:
 1044              		.loc 1 2660 0
 1045 0084 9448     		ldr	r0, .L138+12
 1046 0086 0421     		movs	r1, #4
 1047 0088 0122     		movs	r2, #1
 1048 008a FFF7FEFF 		bl	TIM_CCxCmd
 1049              	.LVL43:
 1050              		.loc 1 2661 0
 1051 008e 9248     		ldr	r0, .L138+12
 1052 0090 2A46     		mov	r2, r5
 1053 0092 0421     		movs	r1, #4
 1054              	.L128:
 1055 0094 FFF7FEFF 		bl	TIM_CCxNCmd
 1056              	.LVL44:
 1057              		.loc 1 2664 0
 1058 0098 3246     		mov	r2, r6
 1059 009a 8F48     		ldr	r0, .L138+12
 1060 009c 0021     		movs	r1, #0
 1061 009e FFF7FEFF 		bl	TIM_SelectOCxM
 1062              	.LVL45:
 1063              		.loc 1 2665 0
 1064 00a2 8D48     		ldr	r0, .L138+12
 1065 00a4 0021     		movs	r1, #0
 1066 00a6 0122     		movs	r2, #1
 1067 00a8 FFF7FEFF 		bl	TIM_CCxCmd
 1068              	.LVL46:
 1069              		.loc 1 2666 0
 1070 00ac 8A48     		ldr	r0, .L138+12
 1071 00ae 0021     		movs	r1, #0
 1072 00b0 0422     		movs	r2, #4
 1073              		.loc 1 2697 0
 1074 00b2 BDE8F840 		pop	{r3, r4, r5, r6, r7, lr}
 1075              		.cfi_remember_state
 1076              		.cfi_restore 14
 1077              		.cfi_restore 7
 1078              		.cfi_restore 6
 1079              		.cfi_restore 5
 1080              		.cfi_restore 4
 1081              		.cfi_restore 3
 1082              		.cfi_def_cfa_offset 0
 1083              	.LVL47:
ARM GAS  /tmp/ccDJsI0n.s 			page 20


 1084              		.loc 1 2666 0
 1085 00b6 FFF7FEBF 		b	TIM_CCxNCmd
 1086              	.LVL48:
 1087              	.L120:
 1088              		.cfi_restore_state
 1089              		.loc 1 2471 0
 1090 00ba 0425     		movs	r5, #4
 1091              	.L123:
 1092              		.loc 1 2491 0
 1093 00bc 012C     		cmp	r4, #1
 1094              		.loc 1 2468 0
 1095 00be 4FF02006 		mov	r6, #32
 1096              	.LVL49:
 1097              		.loc 1 2491 0
 1098 00c2 B7D1     		bne	.L108
 1099              	.L133:
 1100              		.loc 1 2492 0
 1101 00c4 834B     		ldr	r3, .L138+8
 1102              		.loc 1 2494 0
 1103 00c6 8448     		ldr	r0, .L138+12
 1104              	.LVL50:
 1105              		.loc 1 2492 0
 1106 00c8 1F68     		ldr	r7, [r3]
 1107 00ca 6FB3     		cbz	r7, .L109
 1108              		.loc 1 2494 0
 1109 00cc 0021     		movs	r1, #0
 1110 00ce 2022     		movs	r2, #32
 1111 00d0 FFF7FEFF 		bl	TIM_SelectOCxM
 1112              	.LVL51:
 1113              		.loc 1 2495 0
 1114 00d4 8048     		ldr	r0, .L138+12
 1115 00d6 0021     		movs	r1, #0
 1116 00d8 2246     		mov	r2, r4
 1117 00da FFF7FEFF 		bl	TIM_CCxCmd
 1118              	.LVL52:
 1119              		.loc 1 2496 0
 1120 00de 0021     		movs	r1, #0
 1121 00e0 0A46     		mov	r2, r1
 1122 00e2 7D48     		ldr	r0, .L138+12
 1123 00e4 FFF7FEFF 		bl	TIM_CCxNCmd
 1124              	.LVL53:
 1125              		.loc 1 2499 0
 1126 00e8 7B48     		ldr	r0, .L138+12
 1127 00ea 0421     		movs	r1, #4
 1128 00ec 6022     		movs	r2, #96
 1129 00ee FFF7FEFF 		bl	TIM_SelectOCxM
 1130              	.LVL54:
 1131              		.loc 1 2500 0
 1132 00f2 7948     		ldr	r0, .L138+12
 1133 00f4 0421     		movs	r1, #4
 1134 00f6 2246     		mov	r2, r4
 1135 00f8 FFF7FEFF 		bl	TIM_CCxCmd
 1136              	.LVL55:
 1137              		.loc 1 2501 0
 1138 00fc 2A46     		mov	r2, r5
 1139 00fe 7648     		ldr	r0, .L138+12
 1140 0100 0421     		movs	r1, #4
ARM GAS  /tmp/ccDJsI0n.s 			page 21


 1141 0102 FFF7FEFF 		bl	TIM_CCxNCmd
 1142              	.LVL56:
 1143              		.loc 1 2504 0
 1144 0106 3246     		mov	r2, r6
 1145 0108 7348     		ldr	r0, .L138+12
 1146 010a 0821     		movs	r1, #8
 1147 010c FFF7FEFF 		bl	TIM_SelectOCxM
 1148              	.LVL57:
 1149              		.loc 1 2505 0
 1150 0110 2246     		mov	r2, r4
 1151              	.LVL58:
 1152              	.L124:
 1153 0112 7148     		ldr	r0, .L138+12
 1154 0114 0821     		movs	r1, #8
 1155              	.L129:
 1156 0116 FFF7FEFF 		bl	TIM_CCxCmd
 1157              	.LVL59:
 1158              		.loc 1 2506 0
 1159 011a 6F48     		ldr	r0, .L138+12
 1160 011c 0821     		movs	r1, #8
 1161 011e 0422     		movs	r2, #4
 1162              		.loc 1 2697 0
 1163 0120 BDE8F840 		pop	{r3, r4, r5, r6, r7, lr}
 1164              		.cfi_remember_state
 1165              		.cfi_restore 14
 1166              		.cfi_restore 7
 1167              		.cfi_restore 6
 1168              		.cfi_restore 5
 1169              		.cfi_restore 4
 1170              		.cfi_restore 3
 1171              		.cfi_def_cfa_offset 0
 1172              		.loc 1 2506 0
 1173 0124 FFF7FEBF 		b	TIM_CCxNCmd
 1174              	.LVL60:
 1175              	.L109:
 1176              		.cfi_restore_state
 1177              		.loc 1 2509 0
 1178 0128 3946     		mov	r1, r7
 1179 012a 2022     		movs	r2, #32
 1180 012c FFF7FEFF 		bl	TIM_SelectOCxM
 1181              	.LVL61:
 1182              		.loc 1 2510 0
 1183 0130 6948     		ldr	r0, .L138+12
 1184 0132 3946     		mov	r1, r7
 1185 0134 2246     		mov	r2, r4
 1186 0136 FFF7FEFF 		bl	TIM_CCxCmd
 1187              	.LVL62:
 1188              		.loc 1 2511 0
 1189 013a 6748     		ldr	r0, .L138+12
 1190 013c 3946     		mov	r1, r7
 1191 013e 3A46     		mov	r2, r7
 1192 0140 FFF7FEFF 		bl	TIM_CCxNCmd
 1193              	.LVL63:
 1194              		.loc 1 2514 0
 1195 0144 6448     		ldr	r0, .L138+12
 1196 0146 0821     		movs	r1, #8
 1197 0148 6022     		movs	r2, #96
ARM GAS  /tmp/ccDJsI0n.s 			page 22


 1198 014a FFF7FEFF 		bl	TIM_SelectOCxM
 1199              	.LVL64:
 1200              		.loc 1 2515 0
 1201 014e 6248     		ldr	r0, .L138+12
 1202 0150 0821     		movs	r1, #8
 1203 0152 2246     		mov	r2, r4
 1204 0154 FFF7FEFF 		bl	TIM_CCxCmd
 1205              	.LVL65:
 1206              		.loc 1 2516 0
 1207 0158 2A46     		mov	r2, r5
 1208 015a 5F48     		ldr	r0, .L138+12
 1209 015c 0821     		movs	r1, #8
 1210 015e FFF7FEFF 		bl	TIM_CCxNCmd
 1211              	.LVL66:
 1212              		.loc 1 2519 0
 1213 0162 3246     		mov	r2, r6
 1214 0164 5C48     		ldr	r0, .L138+12
 1215 0166 0421     		movs	r1, #4
 1216 0168 FFF7FEFF 		bl	TIM_SelectOCxM
 1217              	.LVL67:
 1218              		.loc 1 2520 0
 1219 016c 5A48     		ldr	r0, .L138+12
 1220 016e 2246     		mov	r2, r4
 1221 0170 0421     		movs	r1, #4
 1222              	.LVL68:
 1223              	.L126:
 1224              		.loc 1 2552 0
 1225 0172 FFF7FEFF 		bl	TIM_CCxCmd
 1226              	.LVL69:
 1227              		.loc 1 2553 0
 1228 0176 0421     		movs	r1, #4
 1229 0178 0A46     		mov	r2, r1
 1230 017a 5748     		ldr	r0, .L138+12
 1231              		.loc 1 2697 0
 1232 017c BDE8F840 		pop	{r3, r4, r5, r6, r7, lr}
 1233              		.cfi_remember_state
 1234              		.cfi_restore 14
 1235              		.cfi_restore 7
 1236              		.cfi_restore 6
 1237              		.cfi_restore 5
 1238              		.cfi_restore 4
 1239              		.cfi_restore 3
 1240              		.cfi_def_cfa_offset 0
 1241              	.LVL70:
 1242              		.loc 1 2553 0
 1243 0180 FFF7FEBF 		b	TIM_CCxNCmd
 1244              	.LVL71:
 1245              	.L137:
 1246              		.cfi_restore_state
 1247              		.loc 1 2620 0
 1248 0184 534B     		ldr	r3, .L138+8
 1249              		.loc 1 2622 0
 1250 0186 5448     		ldr	r0, .L138+12
 1251              	.LVL72:
 1252              		.loc 1 2620 0
 1253 0188 1C68     		ldr	r4, [r3]
 1254              	.LVL73:
ARM GAS  /tmp/ccDJsI0n.s 			page 23


 1255 018a 002C     		cmp	r4, #0
 1256 018c 00F0B481 		beq	.L117
 1257              		.loc 1 2622 0
 1258 0190 0421     		movs	r1, #4
 1259 0192 2022     		movs	r2, #32
 1260 0194 FFF7FEFF 		bl	TIM_SelectOCxM
 1261              	.LVL74:
 1262              		.loc 1 2623 0
 1263 0198 4F48     		ldr	r0, .L138+12
 1264 019a 0421     		movs	r1, #4
 1265 019c 0122     		movs	r2, #1
 1266 019e FFF7FEFF 		bl	TIM_CCxCmd
 1267              	.LVL75:
 1268              		.loc 1 2624 0
 1269 01a2 4D48     		ldr	r0, .L138+12
 1270 01a4 0421     		movs	r1, #4
 1271 01a6 0022     		movs	r2, #0
 1272 01a8 FFF7FEFF 		bl	TIM_CCxNCmd
 1273              	.LVL76:
 1274              		.loc 1 2627 0
 1275 01ac 4A48     		ldr	r0, .L138+12
 1276 01ae 0821     		movs	r1, #8
 1277 01b0 6022     		movs	r2, #96
 1278 01b2 FFF7FEFF 		bl	TIM_SelectOCxM
 1279              	.LVL77:
 1280              		.loc 1 2628 0
 1281 01b6 4848     		ldr	r0, .L138+12
 1282 01b8 0821     		movs	r1, #8
 1283 01ba 0122     		movs	r2, #1
 1284 01bc FFF7FEFF 		bl	TIM_CCxCmd
 1285              	.LVL78:
 1286              		.loc 1 2629 0
 1287 01c0 2A46     		mov	r2, r5
 1288 01c2 4548     		ldr	r0, .L138+12
 1289 01c4 0821     		movs	r1, #8
 1290 01c6 65E7     		b	.L128
 1291              	.LVL79:
 1292              	.L134:
 1293              		.loc 1 2524 0
 1294 01c8 424B     		ldr	r3, .L138+8
 1295              		.loc 1 2526 0
 1296 01ca 4348     		ldr	r0, .L138+12
 1297              	.LVL80:
 1298              		.loc 1 2524 0
 1299 01cc 1C68     		ldr	r4, [r3]
 1300              	.LVL81:
 1301 01ce 002C     		cmp	r4, #0
 1302 01d0 00F0B880 		beq	.L111
 1303              		.loc 1 2526 0
 1304 01d4 0421     		movs	r1, #4
 1305 01d6 2022     		movs	r2, #32
 1306 01d8 FFF7FEFF 		bl	TIM_SelectOCxM
 1307              	.LVL82:
 1308              		.loc 1 2527 0
 1309 01dc 3E48     		ldr	r0, .L138+12
 1310 01de 0421     		movs	r1, #4
 1311 01e0 0122     		movs	r2, #1
ARM GAS  /tmp/ccDJsI0n.s 			page 24


 1312 01e2 FFF7FEFF 		bl	TIM_CCxCmd
 1313              	.LVL83:
 1314              		.loc 1 2528 0
 1315 01e6 3C48     		ldr	r0, .L138+12
 1316 01e8 0421     		movs	r1, #4
 1317 01ea 0022     		movs	r2, #0
 1318 01ec FFF7FEFF 		bl	TIM_CCxNCmd
 1319              	.LVL84:
 1320              		.loc 1 2531 0
 1321 01f0 3948     		ldr	r0, .L138+12
 1322 01f2 0021     		movs	r1, #0
 1323 01f4 6022     		movs	r2, #96
 1324 01f6 FFF7FEFF 		bl	TIM_SelectOCxM
 1325              	.LVL85:
 1326              		.loc 1 2532 0
 1327 01fa 3748     		ldr	r0, .L138+12
 1328 01fc 0021     		movs	r1, #0
 1329 01fe 0122     		movs	r2, #1
 1330 0200 FFF7FEFF 		bl	TIM_CCxCmd
 1331              	.LVL86:
 1332              		.loc 1 2533 0
 1333 0204 3448     		ldr	r0, .L138+12
 1334 0206 2A46     		mov	r2, r5
 1335 0208 0021     		movs	r1, #0
 1336              	.L131:
 1337              		.loc 1 2580 0
 1338 020a FFF7FEFF 		bl	TIM_CCxNCmd
 1339              	.LVL87:
 1340              		.loc 1 2583 0
 1341 020e 3246     		mov	r2, r6
 1342 0210 3148     		ldr	r0, .L138+12
 1343 0212 0821     		movs	r1, #8
 1344 0214 FFF7FEFF 		bl	TIM_SelectOCxM
 1345              	.LVL88:
 1346              		.loc 1 2584 0
 1347 0218 2F48     		ldr	r0, .L138+12
 1348 021a 0821     		movs	r1, #8
 1349 021c 0122     		movs	r2, #1
 1350 021e 7AE7     		b	.L129
 1351              	.LVL89:
 1352              	.L132:
 1353              		.loc 1 2438 0
 1354 0220 2D48     		ldr	r0, .L138+12
 1355              	.LVL90:
 1356 0222 0421     		movs	r1, #4
 1357 0224 2022     		movs	r2, #32
 1358 0226 FFF7FEFF 		bl	TIM_SelectOCxM
 1359              	.LVL91:
 1360              		.loc 1 2439 0
 1361 022a 2B48     		ldr	r0, .L138+12
 1362 022c 0421     		movs	r1, #4
 1363 022e 2A46     		mov	r2, r5
 1364 0230 FFF7FEFF 		bl	TIM_CCxCmd
 1365              	.LVL92:
 1366              		.loc 1 2440 0
 1367 0234 2848     		ldr	r0, .L138+12
 1368 0236 0421     		movs	r1, #4
ARM GAS  /tmp/ccDJsI0n.s 			page 25


 1369 0238 0022     		movs	r2, #0
 1370 023a FFF7FEFF 		bl	TIM_CCxNCmd
 1371              	.LVL93:
 1372              		.loc 1 2442 0
 1373 023e 254B     		ldr	r3, .L138+8
 1374              		.loc 1 2444 0
 1375 0240 2548     		ldr	r0, .L138+12
 1376              		.loc 1 2442 0
 1377 0242 1C68     		ldr	r4, [r3]
 1378 0244 002C     		cmp	r4, #0
 1379 0246 00F0C880 		beq	.L104
 1380              		.loc 1 2444 0
 1381 024a 0021     		movs	r1, #0
 1382 024c 6022     		movs	r2, #96
 1383 024e FFF7FEFF 		bl	TIM_SelectOCxM
 1384              	.LVL94:
 1385              		.loc 1 2445 0
 1386 0252 2148     		ldr	r0, .L138+12
 1387 0254 0021     		movs	r1, #0
 1388 0256 2A46     		mov	r2, r5
 1389 0258 FFF7FEFF 		bl	TIM_CCxCmd
 1390              	.LVL95:
 1391              		.loc 1 2446 0
 1392 025c 1E48     		ldr	r0, .L138+12
 1393 025e 0021     		movs	r1, #0
 1394 0260 0422     		movs	r2, #4
 1395 0262 FFF7FEFF 		bl	TIM_CCxNCmd
 1396              	.LVL96:
 1397              		.loc 1 2449 0
 1398 0266 2022     		movs	r2, #32
 1399 0268 1B48     		ldr	r0, .L138+12
 1400 026a 0821     		movs	r1, #8
 1401 026c FFF7FEFF 		bl	TIM_SelectOCxM
 1402              	.LVL97:
 1403              		.loc 1 2450 0
 1404 0270 2A46     		mov	r2, r5
 1405 0272 4EE7     		b	.L124
 1406              	.LVL98:
 1407              	.L135:
 1408              		.loc 1 2556 0
 1409 0274 174B     		ldr	r3, .L138+8
 1410              		.loc 1 2558 0
 1411 0276 1848     		ldr	r0, .L138+12
 1412              	.LVL99:
 1413              		.loc 1 2556 0
 1414 0278 1C68     		ldr	r4, [r3]
 1415              	.LVL100:
 1416 027a 002C     		cmp	r4, #0
 1417 027c 00F0CC80 		beq	.L113
 1418              		.loc 1 2558 0
 1419 0280 0821     		movs	r1, #8
 1420 0282 2022     		movs	r2, #32
 1421 0284 FFF7FEFF 		bl	TIM_SelectOCxM
 1422              	.LVL101:
 1423              		.loc 1 2559 0
 1424 0288 1348     		ldr	r0, .L138+12
 1425 028a 0821     		movs	r1, #8
ARM GAS  /tmp/ccDJsI0n.s 			page 26


 1426 028c 0122     		movs	r2, #1
 1427 028e FFF7FEFF 		bl	TIM_CCxCmd
 1428              	.LVL102:
 1429              		.loc 1 2560 0
 1430 0292 1148     		ldr	r0, .L138+12
 1431 0294 0821     		movs	r1, #8
 1432 0296 0022     		movs	r2, #0
 1433 0298 FFF7FEFF 		bl	TIM_CCxNCmd
 1434              	.LVL103:
 1435              		.loc 1 2563 0
 1436 029c 0E48     		ldr	r0, .L138+12
 1437 029e 0021     		movs	r1, #0
 1438 02a0 6022     		movs	r2, #96
 1439 02a2 FFF7FEFF 		bl	TIM_SelectOCxM
 1440              	.LVL104:
 1441              		.loc 1 2564 0
 1442 02a6 0C48     		ldr	r0, .L138+12
 1443 02a8 0021     		movs	r1, #0
 1444 02aa 0122     		movs	r2, #1
 1445 02ac FFF7FEFF 		bl	TIM_CCxCmd
 1446              	.LVL105:
 1447              		.loc 1 2565 0
 1448 02b0 0948     		ldr	r0, .L138+12
 1449 02b2 2A46     		mov	r2, r5
 1450 02b4 0021     		movs	r1, #0
 1451              	.L130:
 1452              		.loc 1 2548 0
 1453 02b6 FFF7FEFF 		bl	TIM_CCxNCmd
 1454              	.LVL106:
 1455              		.loc 1 2551 0
 1456 02ba 3246     		mov	r2, r6
 1457 02bc 0648     		ldr	r0, .L138+12
 1458 02be 0421     		movs	r1, #4
 1459 02c0 FFF7FEFF 		bl	TIM_SelectOCxM
 1460              	.LVL107:
 1461              		.loc 1 2552 0
 1462 02c4 0448     		ldr	r0, .L138+12
 1463 02c6 0421     		movs	r1, #4
 1464 02c8 0122     		movs	r2, #1
 1465 02ca 52E7     		b	.L126
 1466              	.L139:
 1467              		.align	2
 1468              	.L138:
 1469 02cc 00000000 		.word	.LANCHOR0
 1470 02d0 00000000 		.word	.LANCHOR2
 1471 02d4 00000000 		.word	.LANCHOR4
 1472 02d8 00000140 		.word	1073807360
 1473              	.LVL108:
 1474              	.L136:
 1475              		.loc 1 2588 0
 1476 02dc 944B     		ldr	r3, .L140
 1477              		.loc 1 2590 0
 1478 02de 9548     		ldr	r0, .L140+4
 1479              	.LVL109:
 1480              		.loc 1 2588 0
 1481 02e0 1F68     		ldr	r7, [r3]
 1482 02e2 002F     		cmp	r7, #0
ARM GAS  /tmp/ccDJsI0n.s 			page 27


 1483 02e4 00F0B480 		beq	.L115
 1484              		.loc 1 2590 0
 1485 02e8 0021     		movs	r1, #0
 1486 02ea 2022     		movs	r2, #32
 1487 02ec FFF7FEFF 		bl	TIM_SelectOCxM
 1488              	.LVL110:
 1489              		.loc 1 2591 0
 1490 02f0 9048     		ldr	r0, .L140+4
 1491 02f2 0021     		movs	r1, #0
 1492 02f4 0122     		movs	r2, #1
 1493 02f6 FFF7FEFF 		bl	TIM_CCxCmd
 1494              	.LVL111:
 1495              		.loc 1 2592 0
 1496 02fa 0021     		movs	r1, #0
 1497 02fc 0A46     		mov	r2, r1
 1498 02fe 8D48     		ldr	r0, .L140+4
 1499 0300 FFF7FEFF 		bl	TIM_CCxNCmd
 1500              	.LVL112:
 1501              		.loc 1 2595 0
 1502 0304 8B48     		ldr	r0, .L140+4
 1503 0306 0821     		movs	r1, #8
 1504 0308 6022     		movs	r2, #96
 1505 030a FFF7FEFF 		bl	TIM_SelectOCxM
 1506              	.LVL113:
 1507              		.loc 1 2596 0
 1508 030e 8948     		ldr	r0, .L140+4
 1509 0310 0821     		movs	r1, #8
 1510 0312 0122     		movs	r2, #1
 1511 0314 FFF7FEFF 		bl	TIM_CCxCmd
 1512              	.LVL114:
 1513              		.loc 1 2597 0
 1514 0318 2A46     		mov	r2, r5
 1515 031a 8648     		ldr	r0, .L140+4
 1516 031c 0821     		movs	r1, #8
 1517 031e FFF7FEFF 		bl	TIM_CCxNCmd
 1518              	.LVL115:
 1519              		.loc 1 2600 0
 1520 0322 3246     		mov	r2, r6
 1521 0324 2146     		mov	r1, r4
 1522 0326 8348     		ldr	r0, .L140+4
 1523 0328 FFF7FEFF 		bl	TIM_SelectOCxM
 1524              	.LVL116:
 1525              		.loc 1 2601 0
 1526 032c 2146     		mov	r1, r4
 1527 032e 8148     		ldr	r0, .L140+4
 1528 0330 0122     		movs	r2, #1
 1529 0332 FFF7FEFF 		bl	TIM_CCxCmd
 1530              	.LVL117:
 1531              		.loc 1 2602 0
 1532 0336 2146     		mov	r1, r4
 1533 0338 2246     		mov	r2, r4
 1534 033a 7E48     		ldr	r0, .L140+4
 1535              		.loc 1 2697 0
 1536 033c BDE8F840 		pop	{r3, r4, r5, r6, r7, lr}
 1537              		.cfi_remember_state
 1538              		.cfi_restore 14
 1539              		.cfi_restore 7
ARM GAS  /tmp/ccDJsI0n.s 			page 28


 1540              		.cfi_restore 6
 1541              		.cfi_restore 5
 1542              		.cfi_restore 4
 1543              		.cfi_restore 3
 1544              		.cfi_def_cfa_offset 0
 1545              	.LVL118:
 1546              		.loc 1 2602 0
 1547 0340 FFF7FEBF 		b	TIM_CCxNCmd
 1548              	.LVL119:
 1549              	.L111:
 1550              		.cfi_restore_state
 1551              		.loc 1 2541 0
 1552 0344 0821     		movs	r1, #8
 1553 0346 2022     		movs	r2, #32
 1554 0348 FFF7FEFF 		bl	TIM_SelectOCxM
 1555              	.LVL120:
 1556              		.loc 1 2542 0
 1557 034c 7948     		ldr	r0, .L140+4
 1558 034e 0821     		movs	r1, #8
 1559 0350 0122     		movs	r2, #1
 1560 0352 FFF7FEFF 		bl	TIM_CCxCmd
 1561              	.LVL121:
 1562              		.loc 1 2543 0
 1563 0356 7748     		ldr	r0, .L140+4
 1564 0358 0821     		movs	r1, #8
 1565 035a 2246     		mov	r2, r4
 1566 035c FFF7FEFF 		bl	TIM_CCxNCmd
 1567              	.LVL122:
 1568              		.loc 1 2546 0
 1569 0360 7448     		ldr	r0, .L140+4
 1570 0362 2146     		mov	r1, r4
 1571 0364 6022     		movs	r2, #96
 1572 0366 FFF7FEFF 		bl	TIM_SelectOCxM
 1573              	.LVL123:
 1574              		.loc 1 2547 0
 1575 036a 7248     		ldr	r0, .L140+4
 1576 036c 2146     		mov	r1, r4
 1577 036e 0122     		movs	r2, #1
 1578 0370 FFF7FEFF 		bl	TIM_CCxCmd
 1579              	.LVL124:
 1580              		.loc 1 2548 0
 1581 0374 2146     		mov	r1, r4
 1582 0376 2A46     		mov	r2, r5
 1583 0378 6E48     		ldr	r0, .L140+4
 1584 037a 9CE7     		b	.L130
 1585              	.LVL125:
 1586              	.L118:
 1587              		.loc 1 2685 0
 1588 037c 6D48     		ldr	r0, .L140+4
 1589              	.LVL126:
 1590 037e 0021     		movs	r1, #0
 1591 0380 4022     		movs	r2, #64
 1592 0382 FFF7FEFF 		bl	TIM_SelectOCxM
 1593              	.LVL127:
 1594              		.loc 1 2686 0
 1595 0386 6B48     		ldr	r0, .L140+4
 1596 0388 0021     		movs	r1, #0
ARM GAS  /tmp/ccDJsI0n.s 			page 29


 1597 038a 0122     		movs	r2, #1
 1598 038c FFF7FEFF 		bl	TIM_CCxCmd
 1599              	.LVL128:
 1600              		.loc 1 2687 0
 1601 0390 0021     		movs	r1, #0
 1602 0392 0A46     		mov	r2, r1
 1603 0394 6748     		ldr	r0, .L140+4
 1604 0396 FFF7FEFF 		bl	TIM_CCxNCmd
 1605              	.LVL129:
 1606              		.loc 1 2689 0
 1607 039a 6648     		ldr	r0, .L140+4
 1608 039c 0421     		movs	r1, #4
 1609 039e 4022     		movs	r2, #64
 1610 03a0 FFF7FEFF 		bl	TIM_SelectOCxM
 1611              	.LVL130:
 1612              		.loc 1 2690 0
 1613 03a4 6348     		ldr	r0, .L140+4
 1614 03a6 0421     		movs	r1, #4
 1615 03a8 0122     		movs	r2, #1
 1616 03aa FFF7FEFF 		bl	TIM_CCxCmd
 1617              	.LVL131:
 1618              		.loc 1 2691 0
 1619 03ae 6148     		ldr	r0, .L140+4
 1620 03b0 0421     		movs	r1, #4
 1621 03b2 0022     		movs	r2, #0
 1622 03b4 FFF7FEFF 		bl	TIM_CCxNCmd
 1623              	.LVL132:
 1624              		.loc 1 2693 0
 1625 03b8 5E48     		ldr	r0, .L140+4
 1626 03ba 0821     		movs	r1, #8
 1627 03bc 4022     		movs	r2, #64
 1628 03be FFF7FEFF 		bl	TIM_SelectOCxM
 1629              	.LVL133:
 1630              		.loc 1 2694 0
 1631 03c2 5C48     		ldr	r0, .L140+4
 1632 03c4 0821     		movs	r1, #8
 1633 03c6 0122     		movs	r2, #1
 1634 03c8 FFF7FEFF 		bl	TIM_CCxCmd
 1635              	.LVL134:
 1636              		.loc 1 2695 0
 1637 03cc 5948     		ldr	r0, .L140+4
 1638 03ce 0821     		movs	r1, #8
 1639 03d0 0022     		movs	r2, #0
 1640              		.loc 1 2697 0
 1641 03d2 BDE8F840 		pop	{r3, r4, r5, r6, r7, lr}
 1642              		.cfi_remember_state
 1643              		.cfi_restore 14
 1644              		.cfi_restore 7
 1645              		.cfi_restore 6
 1646              		.cfi_restore 5
 1647              		.cfi_restore 4
 1648              		.cfi_restore 3
 1649              		.cfi_def_cfa_offset 0
 1650              	.LVL135:
 1651              		.loc 1 2695 0
 1652 03d6 FFF7FEBF 		b	TIM_CCxNCmd
 1653              	.LVL136:
ARM GAS  /tmp/ccDJsI0n.s 			page 30


 1654              	.L104:
 1655              		.cfi_restore_state
 1656              		.loc 1 2454 0
 1657 03da 0821     		movs	r1, #8
 1658 03dc 6022     		movs	r2, #96
 1659 03de FFF7FEFF 		bl	TIM_SelectOCxM
 1660              	.LVL137:
 1661              		.loc 1 2455 0
 1662 03e2 5448     		ldr	r0, .L140+4
 1663 03e4 0821     		movs	r1, #8
 1664 03e6 2A46     		mov	r2, r5
 1665 03e8 FFF7FEFF 		bl	TIM_CCxCmd
 1666              	.LVL138:
 1667              		.loc 1 2456 0
 1668 03ec 5148     		ldr	r0, .L140+4
 1669 03ee 0821     		movs	r1, #8
 1670 03f0 0422     		movs	r2, #4
 1671 03f2 FFF7FEFF 		bl	TIM_CCxNCmd
 1672              	.LVL139:
 1673              		.loc 1 2459 0
 1674 03f6 4F48     		ldr	r0, .L140+4
 1675 03f8 2146     		mov	r1, r4
 1676 03fa 2022     		movs	r2, #32
 1677 03fc FFF7FEFF 		bl	TIM_SelectOCxM
 1678              	.LVL140:
 1679              		.loc 1 2460 0
 1680 0400 4C48     		ldr	r0, .L140+4
 1681 0402 2A46     		mov	r2, r5
 1682 0404 2146     		mov	r1, r4
 1683              	.L125:
 1684              		.loc 1 2680 0
 1685 0406 FFF7FEFF 		bl	TIM_CCxCmd
 1686              	.LVL141:
 1687              		.loc 1 2681 0
 1688 040a 2146     		mov	r1, r4
 1689 040c 4948     		ldr	r0, .L140+4
 1690 040e 0422     		movs	r2, #4
 1691              		.loc 1 2697 0
 1692 0410 BDE8F840 		pop	{r3, r4, r5, r6, r7, lr}
 1693              		.cfi_remember_state
 1694              		.cfi_restore 14
 1695              		.cfi_restore 7
 1696              		.cfi_restore 6
 1697              		.cfi_restore 5
 1698              		.cfi_restore 4
 1699              		.cfi_restore 3
 1700              		.cfi_def_cfa_offset 0
 1701              		.loc 1 2681 0
 1702 0414 FFF7FEBF 		b	TIM_CCxNCmd
 1703              	.LVL142:
 1704              	.L113:
 1705              		.cfi_restore_state
 1706              		.loc 1 2573 0
 1707 0418 0421     		movs	r1, #4
 1708 041a 2022     		movs	r2, #32
 1709 041c FFF7FEFF 		bl	TIM_SelectOCxM
 1710              	.LVL143:
ARM GAS  /tmp/ccDJsI0n.s 			page 31


 1711              		.loc 1 2574 0
 1712 0420 4448     		ldr	r0, .L140+4
 1713 0422 0421     		movs	r1, #4
 1714 0424 0122     		movs	r2, #1
 1715 0426 FFF7FEFF 		bl	TIM_CCxCmd
 1716              	.LVL144:
 1717              		.loc 1 2575 0
 1718 042a 4248     		ldr	r0, .L140+4
 1719 042c 0421     		movs	r1, #4
 1720 042e 2246     		mov	r2, r4
 1721 0430 FFF7FEFF 		bl	TIM_CCxNCmd
 1722              	.LVL145:
 1723              		.loc 1 2578 0
 1724 0434 3F48     		ldr	r0, .L140+4
 1725 0436 2146     		mov	r1, r4
 1726 0438 6022     		movs	r2, #96
 1727 043a FFF7FEFF 		bl	TIM_SelectOCxM
 1728              	.LVL146:
 1729              		.loc 1 2579 0
 1730 043e 3D48     		ldr	r0, .L140+4
 1731 0440 2146     		mov	r1, r4
 1732 0442 0122     		movs	r2, #1
 1733 0444 FFF7FEFF 		bl	TIM_CCxCmd
 1734              	.LVL147:
 1735              		.loc 1 2580 0
 1736 0448 2146     		mov	r1, r4
 1737 044a 2A46     		mov	r2, r5
 1738 044c 3948     		ldr	r0, .L140+4
 1739 044e DCE6     		b	.L131
 1740              	.LVL148:
 1741              	.L115:
 1742              		.loc 1 2605 0
 1743 0450 3946     		mov	r1, r7
 1744 0452 2022     		movs	r2, #32
 1745 0454 FFF7FEFF 		bl	TIM_SelectOCxM
 1746              	.LVL149:
 1747              		.loc 1 2606 0
 1748 0458 3946     		mov	r1, r7
 1749 045a 3648     		ldr	r0, .L140+4
 1750 045c 0122     		movs	r2, #1
 1751 045e FFF7FEFF 		bl	TIM_CCxCmd
 1752              	.LVL150:
 1753              		.loc 1 2607 0
 1754 0462 3946     		mov	r1, r7
 1755 0464 3A46     		mov	r2, r7
 1756 0466 3348     		ldr	r0, .L140+4
 1757 0468 FFF7FEFF 		bl	TIM_CCxNCmd
 1758              	.LVL151:
 1759              		.loc 1 2610 0
 1760 046c 2146     		mov	r1, r4
 1761 046e 3148     		ldr	r0, .L140+4
 1762 0470 6022     		movs	r2, #96
 1763 0472 FFF7FEFF 		bl	TIM_SelectOCxM
 1764              	.LVL152:
 1765              		.loc 1 2611 0
 1766 0476 2146     		mov	r1, r4
 1767 0478 2E48     		ldr	r0, .L140+4
ARM GAS  /tmp/ccDJsI0n.s 			page 32


 1768 047a 0122     		movs	r2, #1
 1769 047c FFF7FEFF 		bl	TIM_CCxCmd
 1770              	.LVL153:
 1771              		.loc 1 2612 0
 1772 0480 2A46     		mov	r2, r5
 1773 0482 2146     		mov	r1, r4
 1774 0484 2B48     		ldr	r0, .L140+4
 1775 0486 FFF7FEFF 		bl	TIM_CCxNCmd
 1776              	.LVL154:
 1777              		.loc 1 2615 0
 1778 048a 3246     		mov	r2, r6
 1779 048c 2948     		ldr	r0, .L140+4
 1780 048e 0821     		movs	r1, #8
 1781 0490 FFF7FEFF 		bl	TIM_SelectOCxM
 1782              	.LVL155:
 1783              		.loc 1 2616 0
 1784 0494 2748     		ldr	r0, .L140+4
 1785 0496 0821     		movs	r1, #8
 1786 0498 0122     		movs	r2, #1
 1787 049a FFF7FEFF 		bl	TIM_CCxCmd
 1788              	.LVL156:
 1789              		.loc 1 2617 0
 1790 049e 2246     		mov	r2, r4
 1791 04a0 2448     		ldr	r0, .L140+4
 1792 04a2 0821     		movs	r1, #8
 1793              		.loc 1 2697 0
 1794 04a4 BDE8F840 		pop	{r3, r4, r5, r6, r7, lr}
 1795              		.cfi_remember_state
 1796              		.cfi_restore 14
 1797              		.cfi_restore 7
 1798              		.cfi_restore 6
 1799              		.cfi_restore 5
 1800              		.cfi_restore 4
 1801              		.cfi_restore 3
 1802              		.cfi_def_cfa_offset 0
 1803              	.LVL157:
 1804              		.loc 1 2617 0
 1805 04a8 FFF7FEBF 		b	TIM_CCxNCmd
 1806              	.LVL158:
 1807              	.L119:
 1808              		.cfi_restore_state
 1809              		.loc 1 2669 0
 1810 04ac 0421     		movs	r1, #4
 1811 04ae 2022     		movs	r2, #32
 1812 04b0 FFF7FEFF 		bl	TIM_SelectOCxM
 1813              	.LVL159:
 1814              		.loc 1 2670 0
 1815 04b4 1F48     		ldr	r0, .L140+4
 1816 04b6 0421     		movs	r1, #4
 1817 04b8 0122     		movs	r2, #1
 1818 04ba FFF7FEFF 		bl	TIM_CCxCmd
 1819              	.LVL160:
 1820              		.loc 1 2671 0
 1821 04be 1D48     		ldr	r0, .L140+4
 1822 04c0 0421     		movs	r1, #4
 1823 04c2 2246     		mov	r2, r4
 1824 04c4 FFF7FEFF 		bl	TIM_CCxNCmd
ARM GAS  /tmp/ccDJsI0n.s 			page 33


 1825              	.LVL161:
 1826              		.loc 1 2674 0
 1827 04c8 1A48     		ldr	r0, .L140+4
 1828 04ca 0821     		movs	r1, #8
 1829 04cc 6022     		movs	r2, #96
 1830 04ce FFF7FEFF 		bl	TIM_SelectOCxM
 1831              	.LVL162:
 1832              		.loc 1 2675 0
 1833 04d2 1848     		ldr	r0, .L140+4
 1834 04d4 0821     		movs	r1, #8
 1835 04d6 0122     		movs	r2, #1
 1836 04d8 FFF7FEFF 		bl	TIM_CCxCmd
 1837              	.LVL163:
 1838              		.loc 1 2676 0
 1839 04dc 1548     		ldr	r0, .L140+4
 1840 04de 2A46     		mov	r2, r5
 1841 04e0 0821     		movs	r1, #8
 1842              	.L127:
 1843 04e2 FFF7FEFF 		bl	TIM_CCxNCmd
 1844              	.LVL164:
 1845              		.loc 1 2679 0
 1846 04e6 3246     		mov	r2, r6
 1847 04e8 1248     		ldr	r0, .L140+4
 1848 04ea 2146     		mov	r1, r4
 1849 04ec FFF7FEFF 		bl	TIM_SelectOCxM
 1850              	.LVL165:
 1851              		.loc 1 2680 0
 1852 04f0 1048     		ldr	r0, .L140+4
 1853 04f2 2146     		mov	r1, r4
 1854 04f4 0122     		movs	r2, #1
 1855 04f6 86E7     		b	.L125
 1856              	.L117:
 1857              		.loc 1 2637 0
 1858 04f8 0821     		movs	r1, #8
 1859 04fa 2022     		movs	r2, #32
 1860 04fc FFF7FEFF 		bl	TIM_SelectOCxM
 1861              	.LVL166:
 1862              		.loc 1 2638 0
 1863 0500 0C48     		ldr	r0, .L140+4
 1864 0502 0821     		movs	r1, #8
 1865 0504 0122     		movs	r2, #1
 1866 0506 FFF7FEFF 		bl	TIM_CCxCmd
 1867              	.LVL167:
 1868              		.loc 1 2639 0
 1869 050a 0A48     		ldr	r0, .L140+4
 1870 050c 0821     		movs	r1, #8
 1871 050e 2246     		mov	r2, r4
 1872 0510 FFF7FEFF 		bl	TIM_CCxNCmd
 1873              	.LVL168:
 1874              		.loc 1 2642 0
 1875 0514 0748     		ldr	r0, .L140+4
 1876 0516 0421     		movs	r1, #4
 1877 0518 6022     		movs	r2, #96
 1878 051a FFF7FEFF 		bl	TIM_SelectOCxM
 1879              	.LVL169:
 1880              		.loc 1 2643 0
 1881 051e 0548     		ldr	r0, .L140+4
ARM GAS  /tmp/ccDJsI0n.s 			page 34


 1882 0520 0421     		movs	r1, #4
 1883 0522 0122     		movs	r2, #1
 1884 0524 FFF7FEFF 		bl	TIM_CCxCmd
 1885              	.LVL170:
 1886              		.loc 1 2644 0
 1887 0528 2A46     		mov	r2, r5
 1888 052a 0248     		ldr	r0, .L140+4
 1889 052c 0421     		movs	r1, #4
 1890 052e D8E7     		b	.L127
 1891              	.L141:
 1892              		.align	2
 1893              	.L140:
 1894 0530 00000000 		.word	.LANCHOR4
 1895 0534 00000140 		.word	1073807360
 1896              		.cfi_endproc
 1897              	.LFE317:
 1898              		.size	set_next_comm_step, .-set_next_comm_step
 1899              		.section	.text.commutate,"ax",%progbits
 1900              		.align	2
 1901              		.p2align 4,,15
 1902              		.thumb
 1903              		.thumb_func
 1904              		.type	commutate, %function
 1905              	commutate:
 1906              	.LFB313:
 1907              		.loc 1 2343 0
 1908              		.cfi_startproc
 1909              		@ args = 0, pretend = 0, frame = 24
 1910              		@ frame_needed = 0, uses_anonymous_args = 0
 1911              	.LVL171:
 1912              		.loc 1 2344 0
 1913 0000 2B4B     		ldr	r3, .L166
 1914 0002 2C4A     		ldr	r2, .L166+4
 1915 0004 1968     		ldr	r1, [r3]	@ float
 1916              		.loc 1 2343 0
 1917 0006 F0B5     		push	{r4, r5, r6, r7, lr}
 1918              		.cfi_def_cfa_offset 20
 1919              		.cfi_offset 4, -20
 1920              		.cfi_offset 5, -16
 1921              		.cfi_offset 6, -12
 1922              		.cfi_offset 7, -8
 1923              		.cfi_offset 14, -4
 1924              		.loc 1 2345 0
 1925 0008 2B4C     		ldr	r4, .L166+8
 1926              		.loc 1 2344 0
 1927 000a 1160     		str	r1, [r2]	@ float
 1928              		.loc 1 2345 0
 1929 000c 2268     		ldr	r2, [r4]
 1930 000e 2B49     		ldr	r1, .L166+12
 1931              		.loc 1 2349 0
 1932 0010 2B4D     		ldr	r5, .L166+16
 1933              		.loc 1 2347 0
 1934 0012 2C4E     		ldr	r6, .L166+20
 1935              		.loc 1 2345 0
 1936 0014 D3F800E0 		ldr	lr, [r3]	@ float
 1937              		.loc 1 2349 0
 1938 0018 2D68     		ldr	r5, [r5]
ARM GAS  /tmp/ccDJsI0n.s 			page 35


 1939              		.loc 1 2345 0
 1940 001a 013A     		subs	r2, r2, #1
 1941 001c 01EB8202 		add	r2, r1, r2, lsl #2
 1942              		.loc 1 2346 0
 1943 0020 0027     		movs	r7, #0
 1944              		.loc 1 2347 0
 1945 0022 0021     		movs	r1, #0
 1946              		.loc 1 2345 0
 1947 0024 C2F800E0 		str	lr, [r2]	@ float
 1948              		.loc 1 2346 0
 1949 0028 1F60     		str	r7, [r3]	@ float
 1950              		.loc 1 2347 0
 1951 002a 3160     		str	r1, [r6]
 1952              		.loc 1 2349 0
 1953 002c AB78     		ldrb	r3, [r5, #2]	@ zero_extendqisi2
 1954              		.loc 1 2343 0
 1955 002e 87B0     		sub	sp, sp, #28
 1956              		.cfi_def_cfa_offset 48
 1957              		.loc 1 2349 0
 1958 0030 03BB     		cbnz	r3, .L143
 1959              		.loc 1 2349 0 is_stmt 0 discriminator 1
 1960 0032 254B     		ldr	r3, .L166+24
 1961 0034 1B78     		ldrb	r3, [r3]	@ zero_extendqisi2
 1962 0036 EBB1     		cbz	r3, .L143
 1963              		.loc 1 2350 0 is_stmt 1
 1964 0038 2368     		ldr	r3, [r4]
 1965 003a 1844     		add	r0, r0, r3
 1966              	.LVL172:
 1967 003c 2060     		str	r0, [r4]
 1968              		.loc 1 2351 0
 1969 003e 2368     		ldr	r3, [r4]
 1970 0040 062B     		cmp	r3, #6
 1971 0042 0BDD     		ble	.L161
 1972              	.L154:
 1973              		.loc 1 2352 0
 1974 0044 2368     		ldr	r3, [r4]
 1975 0046 063B     		subs	r3, r3, #6
 1976 0048 2360     		str	r3, [r4]
 1977              		.loc 1 2351 0
 1978 004a 2368     		ldr	r3, [r4]
 1979 004c 062B     		cmp	r3, #6
 1980 004e F9DC     		bgt	.L154
 1981              		.loc 1 2354 0
 1982 0050 2368     		ldr	r3, [r4]
 1983 0052 002B     		cmp	r3, #0
 1984 0054 05DC     		bgt	.L165
 1985              	.L153:
 1986              		.loc 1 2355 0
 1987 0056 2368     		ldr	r3, [r4]
 1988 0058 0633     		adds	r3, r3, #6
 1989 005a 2360     		str	r3, [r4]
 1990              	.L161:
 1991              		.loc 1 2354 0
 1992 005c 2368     		ldr	r3, [r4]
 1993 005e 002B     		cmp	r3, #0
 1994 0060 F9DD     		ble	.L153
 1995              	.L165:
ARM GAS  /tmp/ccDJsI0n.s 			page 36


 1996              		.loc 1 2358 0
 1997 0062 FFF7FEFF 		bl	update_rpm_tacho
 1998              	.LVL173:
 1999              		.loc 1 2360 0
 2000 0066 194B     		ldr	r3, .L166+28
 2001 0068 1B78     		ldrb	r3, [r3]	@ zero_extendqisi2
 2002 006a 022B     		cmp	r3, #2
 2003 006c 1BD1     		bne	.L162
 2004              		.loc 1 2365 0
 2005 006e 2068     		ldr	r0, [r4]
 2006 0070 FFF7FEFF 		bl	set_next_comm_step
 2007              	.LVL174:
 2008              	.L143:
 2009              		.loc 1 2368 0
 2010 0074 1648     		ldr	r0, .L166+32
 2011              		.loc 1 2374 0
 2012 0076 174D     		ldr	r5, .L166+36
 2013              		.loc 1 2368 0
 2014 0078 2021     		movs	r1, #32
 2015 007a FFF7FEFF 		bl	TIM_GenerateEvent
 2016              	.LVL175:
 2017              		.loc 1 2369 0
 2018 007e 164B     		ldr	r3, .L166+40
 2019 0080 0122     		movs	r2, #1
 2020 0082 1A60     		str	r2, [r3]
 2021              		.loc 1 2373 0
 2022 0084 FFF7FEFF 		bl	utils_sys_lock_cnt
 2023              	.LVL176:
 2024              		.loc 1 2374 0
 2025 0088 0FCD     		ldmia	r5!, {r0, r1, r2, r3}
 2026 008a 6C46     		mov	r4, sp
 2027 008c 0FC4     		stmia	r4!, {r0, r1, r2, r3}
 2028 008e 95E80300 		ldmia	r5, {r0, r1}
 2029 0092 84E80300 		stmia	r4, {r0, r1}
 2030              		.loc 1 2375 0
 2031 0096 FFF7FEFF 		bl	utils_sys_unlock_cnt
 2032              	.LVL177:
 2033              		.loc 1 2377 0
 2034 009a 6846     		mov	r0, sp
 2035 009c FFF7FEFF 		bl	update_adc_sample_pos
 2036              	.LVL178:
 2037              		.loc 1 2378 0
 2038 00a0 6846     		mov	r0, sp
 2039 00a2 FFF7FEFF 		bl	set_next_timer_settings
 2040              	.LVL179:
 2041              	.L162:
 2042              		.loc 1 2379 0
 2043 00a6 FFF7FEFF 		bl	update_sensor_mode
 2044              	.LVL180:
 2045              		.loc 1 2380 0
 2046 00aa 07B0     		add	sp, sp, #28
 2047              		.cfi_def_cfa_offset 20
 2048              		@ sp needed
 2049 00ac F0BD     		pop	{r4, r5, r6, r7, pc}
 2050              	.L167:
 2051 00ae 00BF     		.align	2
 2052              	.L166:
ARM GAS  /tmp/ccDJsI0n.s 			page 37


 2053 00b0 00000000 		.word	.LANCHOR14
 2054 00b4 00000000 		.word	.LANCHOR15
 2055 00b8 00000000 		.word	.LANCHOR3
 2056 00bc 00000000 		.word	.LANCHOR16
 2057 00c0 00000000 		.word	.LANCHOR0
 2058 00c4 00000000 		.word	.LANCHOR17
 2059 00c8 00000000 		.word	.LANCHOR11
 2060 00cc 00000000 		.word	.LANCHOR2
 2061 00d0 00000140 		.word	1073807360
 2062 00d4 00000000 		.word	.LANCHOR12
 2063 00d8 00000000 		.word	.LANCHOR18
 2064              		.cfi_endproc
 2065              	.LFE313:
 2066              		.size	commutate, .-commutate
 2067              		.section	.text.timer_thread,"ax",%progbits
 2068              		.align	2
 2069              		.p2align 4,,15
 2070              		.thumb
 2071              		.thumb_func
 2072              		.type	timer_thread, %function
 2073              	timer_thread:
 2074              	.LFB294:
 2075              		.loc 1 1214 0
 2076              		.cfi_startproc
 2077              		@ args = 0, pretend = 0, frame = 0
 2078              		@ frame_needed = 0, uses_anonymous_args = 0
 2079              	.LVL181:
 2080 0000 2DE9F843 		push	{r3, r4, r5, r6, r7, r8, r9, lr}
 2081              		.cfi_def_cfa_offset 32
 2082              		.cfi_offset 3, -32
 2083              		.cfi_offset 4, -28
 2084              		.cfi_offset 5, -24
 2085              		.cfi_offset 6, -20
 2086              		.cfi_offset 7, -16
 2087              		.cfi_offset 8, -12
 2088              		.cfi_offset 9, -8
 2089              		.cfi_offset 14, -4
 2090              	.LBB82:
 2091              	.LBB83:
 2092              		.file 2 "ChibiOS_3.0.2/os/rt/include/chregistry.h"
 2093              		.loc 2 135 0
 2094 0004 7B4B     		ldr	r3, .L219
 2095              	.LBE83:
 2096              	.LBE82:
 2097              	.LBB87:
 2098              		.loc 1 1224 0
 2099 0006 7C4D     		ldr	r5, .L219+4
 2100              	.LBE87:
 2101              	.LBB99:
 2102              	.LBB84:
 2103              		.loc 2 135 0
 2104 0008 9A69     		ldr	r2, [r3, #24]
 2105              	.LBE84:
 2106              	.LBE99:
 2107              	.LBB100:
 2108              		.loc 1 1224 0
 2109 000a 2B78     		ldrb	r3, [r5]	@ zero_extendqisi2
ARM GAS  /tmp/ccDJsI0n.s 			page 38


 2110              	.LBE100:
 2111              	.LBB101:
 2112              	.LBB85:
 2113              		.loc 2 135 0
 2114 000c 7B49     		ldr	r1, .L219+8
 2115              	.LBE85:
 2116              	.LBE101:
 2117              		.loc 1 1214 0
 2118 000e 2DED028B 		fstmfdd	sp!, {d8}
 2119              		.cfi_def_cfa_offset 40
 2120              		.cfi_offset 80, -40
 2121              		.cfi_offset 81, -36
 2122              	.LBB102:
 2123              	.LBB86:
 2124              		.loc 2 135 0
 2125 0012 9161     		str	r1, [r2, #24]
 2126              	.LBE86:
 2127              	.LBE102:
 2128              	.LBB103:
 2129              		.loc 1 1224 0
 2130 0014 002B     		cmp	r3, #0
 2131 0016 54D1     		bne	.L196
 2132              		.loc 1 1301 0
 2133 0018 794E     		ldr	r6, .L219+12
 2134 001a 7A4C     		ldr	r4, .L219+16
 2135 001c 7A4F     		ldr	r7, .L219+20
 2136              		.loc 1 1266 0
 2137 001e DFED7B8A 		flds	s17, .L219+24
 2138              	.LBB88:
 2139              	.LBB89:
 2140              		.loc 1 704 0
 2141 0022 9FED7B8A 		flds	s16, .L219+28
 2142              	.LBE89:
 2143              	.LBE88:
 2144              		.loc 1 1281 0
 2145 0026 B046     		mov	r8, r6
 2146 0028 06E0     		b	.L169
 2147              	.LVL182:
 2148              	.L215:
 2149              		.loc 1 1306 0
 2150 002a 1360     		str	r3, [r2]
 2151              	.L192:
 2152              		.loc 1 1320 0
 2153 002c 0A20     		movs	r0, #10
 2154 002e FFF7FEFF 		bl	chThdSleep
 2155              	.LVL183:
 2156              		.loc 1 1224 0
 2157 0032 2B78     		ldrb	r3, [r5]	@ zero_extendqisi2
 2158 0034 002B     		cmp	r3, #0
 2159 0036 44D1     		bne	.L196
 2160              	.L169:
 2161              		.loc 1 1229 0
 2162 0038 2378     		ldrb	r3, [r4]	@ zero_extendqisi2
 2163 003a 03F0FF09 		and	r9, r3, #255
 2164 003e 002B     		cmp	r3, #0
 2165 0040 45D0     		beq	.L214
 2166              		.loc 1 1301 0
ARM GAS  /tmp/ccDJsI0n.s 			page 39


 2167 0042 0023     		movs	r3, #0
 2168 0044 3360     		str	r3, [r6]
 2169              	.L190:
 2170              		.loc 1 1306 0
 2171 0046 3B68     		ldr	r3, [r7]
 2172 0048 6F4A     		ldr	r2, .L219+20
 2173 004a 0133     		adds	r3, r3, #1
 2174              		.loc 1 1307 0
 2175 004c 092B     		cmp	r3, #9
 2176 004e ECDD     		ble	.L215
 2177              		.loc 1 1309 0
 2178 0050 2378     		ldrb	r3, [r4]	@ zero_extendqisi2
 2179 0052 6C48     		ldr	r0, .L219+16
 2180              		.loc 1 1308 0
 2181 0054 0021     		movs	r1, #0
 2182              		.loc 1 1309 0
 2183 0056 022B     		cmp	r3, #2
 2184              		.loc 1 1308 0
 2185 0058 1160     		str	r1, [r2]
 2186              		.loc 1 1309 0
 2187 005a 00F0B580 		beq	.L216
 2188              		.loc 1 1312 0
 2189 005e 0378     		ldrb	r3, [r0]	@ zero_extendqisi2
 2190 0060 002B     		cmp	r3, #0
 2191 0062 E3D1     		bne	.L192
 2192              		.loc 1 1313 0
 2193 0064 6B4B     		ldr	r3, .L219+32
 2194 0066 6C4A     		ldr	r2, .L219+36
 2195 0068 1B68     		ldr	r3, [r3]
 2196 006a 93ED137A 		flds	s14, [r3, #76]
 2197 006e D2ED007A 		flds	s15, [r2]
 2198 0072 B4EEE77A 		fcmpes	s14, s15
 2199 0076 F1EE10FA 		fmstat
 2200 007a D7D8     		bhi	.L192
 2201              	.LBB93:
 2202              	.LBB90:
 2203              		.loc 1 704 0
 2204 007c 6749     		ldr	r1, .L219+40
 2205 007e 684B     		ldr	r3, .L219+44
 2206 0080 91ED000A 		flds	s0, [r1]
 2207 0084 1B8A     		ldrh	r3, [r3, #16]
 2208              	.L213:
 2209 0086 DFED677A 		flds	s15, .L219+48
 2210 008a D2ED006A 		flds	s13, [r2]
 2211              	.LBE90:
 2212              	.LBE93:
 2213              		.loc 1 1314 0
 2214 008e 6648     		ldr	r0, .L219+52
 2215 0090 664A     		ldr	r2, .L219+56
 2216              	.LBB94:
 2217              	.LBB91:
 2218              		.loc 1 704 0
 2219 0092 9BB2     		uxth	r3, r3
 2220 0094 07EE103A 		fmsr	s14, r3	@ int
 2221 0098 B8EE477A 		fuitos	s14, s14
 2222 009c F0EEE66A 		fabss	s13, s13
 2223 00a0 27EE087A 		fmuls	s14, s14, s16
ARM GAS  /tmp/ccDJsI0n.s 			page 40


 2224              	.LBE91:
 2225              	.LBE94:
 2226              		.loc 1 1314 0
 2227 00a4 0721     		movs	r1, #7
 2228              	.LBB95:
 2229              	.LBB92:
 2230              		.loc 1 704 0
 2231 00a6 67EE277A 		fmuls	s15, s14, s15
 2232 00aa 67EEA67A 		fmuls	s15, s15, s13
 2233              	.LBE92:
 2234              	.LBE95:
 2235              		.loc 1 1314 0
 2236 00ae 80EE270A 		fdivs	s0, s0, s15
 2237 00b2 FFF7FEFF 		bl	filter_add_sample
 2238              	.LVL184:
 2239              		.loc 1 1320 0
 2240 00b6 0A20     		movs	r0, #10
 2241 00b8 FFF7FEFF 		bl	chThdSleep
 2242              	.LVL185:
 2243              		.loc 1 1224 0
 2244 00bc 2B78     		ldrb	r3, [r5]	@ zero_extendqisi2
 2245 00be 002B     		cmp	r3, #0
 2246 00c0 BAD0     		beq	.L169
 2247              	.L196:
 2248              	.LBE103:
 2249              		.loc 1 1322 0
 2250 00c2 BDEC028B 		fldmfdd	sp!, {d8}
 2251              		.cfi_remember_state
 2252              		.cfi_restore 80
 2253              		.cfi_restore 81
 2254              		.cfi_def_cfa_offset 32
 2255              	.LBB104:
 2256              		.loc 1 1225 0
 2257 00c6 0023     		movs	r3, #0
 2258 00c8 2B70     		strb	r3, [r5]
 2259              	.LBE104:
 2260              		.loc 1 1322 0
 2261 00ca BDE8F883 		pop	{r3, r4, r5, r6, r7, r8, r9, pc}
 2262              	.L214:
 2263              		.cfi_restore_state
 2264              	.LBB105:
 2265              		.loc 1 1232 0
 2266 00ce 584B     		ldr	r3, .L219+60
 2267 00d0 5848     		ldr	r0, .L219+64
 2268 00d2 1B68     		ldr	r3, [r3]
 2269 00d4 5849     		ldr	r1, .L219+68
 2270 00d6 0722     		movs	r2, #7
 2271 00d8 FFF7FEFF 		bl	filter_run_fir_iteration
 2272              	.LVL186:
 2273              		.loc 1 1236 0
 2274 00dc 4D4B     		ldr	r3, .L219+32
 2275 00de D3F800E0 		ldr	lr, [r3]
 2276 00e2 9EF80230 		ldrb	r3, [lr, #2]	@ zero_extendqisi2
 2277 00e6 DBB2     		uxtb	r3, r3
 2278 00e8 012B     		cmp	r3, #1
 2279 00ea 61D0     		beq	.L217
 2280              		.loc 1 1244 0
ARM GAS  /tmp/ccDJsI0n.s 			page 41


 2281 00ec 534B     		ldr	r3, .L219+72
 2282 00ee 1B78     		ldrb	r3, [r3]	@ zero_extendqisi2
 2283 00f0 03F0FF01 		and	r1, r3, #255
 2284 00f4 002B     		cmp	r3, #0
 2285 00f6 52D0     		beq	.L175
 2286 00f8 DFED517A 		flds	s15, .L219+76
 2287 00fc 9FED517A 		flds	s14, .L219+80
 2288 0100 5148     		ldr	r0, .L219+84
 2289 0102 4B46     		mov	r3, r9
 2290              	.L180:
 2291              	.LVL187:
 2292              	.LBB96:
 2293              		.loc 1 1249 0
 2294 0104 9A00     		lsls	r2, r3, #2
 2295 0106 8118     		adds	r1, r0, r2
 2296 0108 D1ED006A 		flds	s13, [r1]
 2297 010c F4EEC76A 		fcmpes	s13, s14
 2298 0110 F1EE10FA 		fmstat
 2299              		.loc 1 1250 0
 2300 0114 48BF     		it	mi
 2301 0116 91ED007A 		fldsmi	s14, [r1]
 2302              	.LVL188:
 2303              		.loc 1 1253 0
 2304 011a D1ED006A 		flds	s13, [r1]
 2305 011e F4EEE76A 		fcmpes	s13, s15
 2306 0122 F1EE10FA 		fmstat
 2307              		.loc 1 1248 0
 2308 0126 03F10103 		add	r3, r3, #1
 2309              	.LVL189:
 2310              		.loc 1 1254 0
 2311 012a C8BF     		it	gt
 2312 012c D1ED007A 		fldsgt	s15, [r1]
 2313              	.LVL190:
 2314              		.loc 1 1248 0
 2315 0130 062B     		cmp	r3, #6
 2316 0132 E7D1     		bne	.L180
 2317              	.LBE96:
 2318              		.loc 1 1266 0
 2319 0134 77EE876A 		fadds	s13, s15, s14
 2320 0138 B6EE006A 		fconsts	s12, #96
 2321 013c 77EEC77A 		fsubs	s15, s15, s14
 2322              	.LVL191:
 2323 0140 26EE867A 		fmuls	s14, s13, s12
 2324              	.LVL192:
 2325 0144 C7EE877A 		fdivs	s15, s15, s14
 2326 0148 F4EEE87A 		fcmpes	s15, s17
 2327 014c F1EE10FA 		fmstat
 2328 0150 41DD     		ble	.L208
 2329              		.loc 1 1267 0
 2330 0152 3368     		ldr	r3, [r6]
 2331              	.LVL193:
 2332              		.loc 1 1268 0
 2333 0154 3D4A     		ldr	r2, .L219+88
 2334              		.loc 1 1267 0
 2335 0156 0C2B     		cmp	r3, #12
 2336 0158 06DD     		ble	.L174
 2337              		.loc 1 1268 0
ARM GAS  /tmp/ccDJsI0n.s 			page 42


 2338 015a 1368     		ldr	r3, [r2]
 2339 015c 012B     		cmp	r3, #1
 2340 015e 46D0     		beq	.L218
 2341              	.L186:
 2342              		.loc 1 1285 0
 2343 0160 0123     		movs	r3, #1
 2344 0162 1360     		str	r3, [r2]
 2345              	.L187:
 2346              		.loc 1 1287 0
 2347 0164 0023     		movs	r3, #0
 2348 0166 3360     		str	r3, [r6]
 2349              	.L174:
 2350              		.loc 1 1294 0
 2351 0168 1368     		ldr	r3, [r2]
 2352              		.loc 1 1295 0
 2353 016a 2B4A     		ldr	r2, .L219+36
 2354              		.loc 1 1299 0
 2355 016c 2A48     		ldr	r0, .L219+36
 2356              		.loc 1 1294 0
 2357 016e 012B     		cmp	r3, #1
 2358              		.loc 1 1295 0
 2359 0170 2B4B     		ldr	r3, .L219+44
 2360 0172 1B8A     		ldrh	r3, [r3, #16]
 2361 0174 9BB2     		uxth	r3, r3
 2362 0176 07EE903A 		fmsr	s15, r3	@ int
 2363 017a F8EE677A 		fuitos	s15, s15
 2364              		.loc 1 1297 0
 2365 017e 18BF     		it	ne
 2366 0180 B1EE400A 		fnegsne	s0, s0
 2367              	.LVL194:
 2368 0184 80EE270A 		fdivs	s0, s0, s15
 2369 0188 82ED000A 		fsts	s0, [r2]
 2370              		.loc 1 1299 0
 2371 018c 9EED140A 		flds	s0, [lr, #80]
 2372 0190 DEED140A 		flds	s1, [lr, #80]
 2373 0194 B1EE400A 		fnegs	s0, s0
 2374 0198 FFF7FEFF 		bl	utils_truncate_number
 2375              	.LVL195:
 2376 019c 53E7     		b	.L190
 2377              	.LVL196:
 2378              	.L175:
 2379              		.loc 1 1281 0
 2380 019e 3368     		ldr	r3, [r6]
 2381 01a0 0333     		adds	r3, r3, #3
 2382 01a2 1CDA     		bge	.L185
 2383              		.loc 1 1282 0
 2384 01a4 294A     		ldr	r2, .L219+88
 2385 01a6 1368     		ldr	r3, [r2]
 2386 01a8 012B     		cmp	r3, #1
 2387 01aa D9D1     		bne	.L186
 2388              		.loc 1 1283 0
 2389 01ac 1160     		str	r1, [r2]
 2390 01ae D9E7     		b	.L187
 2391              	.L217:
 2392              		.loc 1 1237 0
 2393 01b0 B5EEC00A 		fcmpezs	s0
 2394              		.loc 1 1238 0
ARM GAS  /tmp/ccDJsI0n.s 			page 43


 2395 01b4 254A     		ldr	r2, .L219+88
 2396              		.loc 1 1237 0
 2397 01b6 F1EE10FA 		fmstat
 2398              		.loc 1 1238 0
 2399 01ba CEBF     		itee	gt
 2400 01bc C2F80090 		strgt	r9, [r2]
 2401              		.loc 1 1241 0
 2402 01c0 B1EE400A 		fnegsle	s0, s0
 2403              	.LVL197:
 2404              		.loc 1 1240 0
 2405 01c4 1360     		strle	r3, [r2]
 2406 01c6 CFE7     		b	.L174
 2407              	.LVL198:
 2408              	.L216:
 2409              	.LBB97:
 2410              	.LBB98:
 2411              		.loc 1 704 0
 2412 01c8 144A     		ldr	r2, .L219+40
 2413 01ca 154B     		ldr	r3, .L219+44
 2414 01cc 92ED000A 		flds	s0, [r2]
 2415 01d0 1B8A     		ldrh	r3, [r3, #16]
 2416 01d2 114A     		ldr	r2, .L219+36
 2417 01d4 57E7     		b	.L213
 2418              	.LVL199:
 2419              	.L208:
 2420              	.LBE98:
 2421              	.LBE97:
 2422              		.loc 1 1276 0
 2423 01d6 0023     		movs	r3, #0
 2424              	.LVL200:
 2425 01d8 3360     		str	r3, [r6]
 2426 01da 1C4A     		ldr	r2, .L219+88
 2427 01dc C4E7     		b	.L174
 2428              	.L185:
 2429              		.loc 1 1288 0
 2430 01de D8F80030 		ldr	r3, [r8]
 2431 01e2 1A4A     		ldr	r2, .L219+88
 2432 01e4 002B     		cmp	r3, #0
 2433              		.loc 1 1289 0
 2434 01e6 C8BF     		it	gt
 2435 01e8 C8F80010 		strgt	r1, [r8]
 2436 01ec BCE7     		b	.L174
 2437              	.L218:
 2438              		.loc 1 1269 0
 2439 01ee 0023     		movs	r3, #0
 2440 01f0 1360     		str	r3, [r2]
 2441 01f2 B7E7     		b	.L187
 2442              	.L220:
 2443              		.align	2
 2444              	.L219:
 2445 01f4 00000000 		.word	ch
 2446 01f8 00000000 		.word	.LANCHOR19
 2447 01fc 00000000 		.word	.LC1
 2448 0200 00000000 		.word	.LANCHOR7
 2449 0204 00000000 		.word	.LANCHOR2
 2450 0208 00000000 		.word	.LANCHOR24
 2451 020c 9A99993F 		.word	1067030938
ARM GAS  /tmp/ccDJsI0n.s 			page 44


 2452 0210 6740533A 		.word	978534503
 2453 0214 00000000 		.word	.LANCHOR0
 2454 0218 00000000 		.word	.LANCHOR23
 2455 021c 00000000 		.word	.LANCHOR10
 2456 0220 00000000 		.word	ADC_Value
 2457 0224 74D19541 		.word	1100337524
 2458 0228 00000000 		.word	.LANCHOR25
 2459 022c 00000000 		.word	.LANCHOR26
 2460 0230 00000000 		.word	.LANCHOR20
 2461 0234 00000000 		.word	.LANCHOR21
 2462 0238 00000000 		.word	.LANCHOR22
 2463 023c 00000000 		.word	.LANCHOR11
 2464 0240 00000000 		.word	0
 2465 0244 E7841155 		.word	1427211495
 2466 0248 00000000 		.word	.LANCHOR16
 2467 024c 00000000 		.word	.LANCHOR4
 2468              	.LBE105:
 2469              		.cfi_endproc
 2470              	.LFE294:
 2471              		.size	timer_thread, .-timer_thread
 2472              		.section	.text.set_switching_frequency.constprop.0,"ax",%progbits
 2473              		.align	2
 2474              		.p2align 4,,15
 2475              		.thumb
 2476              		.thumb_func
 2477              		.type	set_switching_frequency.constprop.0, %function
 2478              	set_switching_frequency.constprop.0:
 2479              	.LFB318:
 2480              		.loc 1 2422 0
 2481              		.cfi_startproc
 2482              		@ args = 0, pretend = 0, frame = 24
 2483              		@ frame_needed = 0, uses_anonymous_args = 0
 2484              	.LVL201:
 2485 0000 70B5     		push	{r4, r5, r6, lr}
 2486              		.cfi_def_cfa_offset 16
 2487              		.cfi_offset 4, -16
 2488              		.cfi_offset 5, -12
 2489              		.cfi_offset 6, -8
 2490              		.cfi_offset 14, -4
 2491              		.loc 1 2423 0
 2492 0002 114E     		ldr	r6, .L223
 2493              		.loc 1 2427 0
 2494 0004 114D     		ldr	r5, .L223+4
 2495              		.loc 1 2423 0
 2496 0006 124B     		ldr	r3, .L223+8
 2497 0008 3360     		str	r3, [r6]	@ float
 2498              		.loc 1 2422 0
 2499 000a 86B0     		sub	sp, sp, #24
 2500              		.cfi_def_cfa_offset 40
 2501              		.loc 1 2426 0
 2502 000c FFF7FEFF 		bl	utils_sys_lock_cnt
 2503              	.LVL202:
 2504              		.loc 1 2427 0
 2505 0010 0FCD     		ldmia	r5!, {r0, r1, r2, r3}
 2506 0012 6C46     		mov	r4, sp
 2507 0014 0FC4     		stmia	r4!, {r0, r1, r2, r3}
 2508 0016 95E80300 		ldmia	r5, {r0, r1}
ARM GAS  /tmp/ccDJsI0n.s 			page 45


 2509 001a 84E80300 		stmia	r4, {r0, r1}
 2510              		.loc 1 2428 0
 2511 001e FFF7FEFF 		bl	utils_sys_unlock_cnt
 2512              	.LVL203:
 2513              		.loc 1 2430 0
 2514 0022 D6ED007A 		flds	s15, [r6]
 2515 0026 0B4A     		ldr	r2, .L223+12
 2516 0028 FDEEE77A 		ftosizs	s15, s15
 2517              		.loc 1 2431 0
 2518 002c 6846     		mov	r0, sp
 2519              		.loc 1 2430 0
 2520 002e 17EE903A 		fmrs	r3, s15	@ int
 2521 0032 92FBF3F3 		sdiv	r3, r2, r3
 2522 0036 0193     		str	r3, [sp, #4]
 2523              		.loc 1 2431 0
 2524 0038 FFF7FEFF 		bl	update_adc_sample_pos
 2525              	.LVL204:
 2526              		.loc 1 2432 0
 2527 003c 6846     		mov	r0, sp
 2528 003e FFF7FEFF 		bl	set_next_timer_settings
 2529              	.LVL205:
 2530              		.loc 1 2433 0
 2531 0042 06B0     		add	sp, sp, #24
 2532              		.cfi_def_cfa_offset 16
 2533              		@ sp needed
 2534 0044 70BD     		pop	{r4, r5, r6, pc}
 2535              	.L224:
 2536 0046 00BF     		.align	2
 2537              	.L223:
 2538 0048 00000000 		.word	.LANCHOR13
 2539 004c 00000000 		.word	.LANCHOR12
 2540 0050 00401C47 		.word	1193033728
 2541 0054 007A030A 		.word	168000000
 2542              		.cfi_endproc
 2543              	.LFE318:
 2544              		.size	set_switching_frequency.constprop.0, .-set_switching_frequency.constprop.0
 2545              		.section	.text.stop_pwm_hw,"ax",%progbits
 2546              		.align	2
 2547              		.p2align 4,,15
 2548              		.thumb
 2549              		.thumb_func
 2550              		.type	stop_pwm_hw, %function
 2551              	stop_pwm_hw:
 2552              	.LFB285:
 2553              		.loc 1 845 0
 2554              		.cfi_startproc
 2555              		@ args = 0, pretend = 0, frame = 0
 2556              		@ frame_needed = 0, uses_anonymous_args = 0
 2557 0000 10B5     		push	{r4, lr}
 2558              		.cfi_def_cfa_offset 8
 2559              		.cfi_offset 4, -8
 2560              		.cfi_offset 14, -4
 2561              		.loc 1 846 0
 2562 0002 1B4C     		ldr	r4, .L227
 2563 0004 0021     		movs	r1, #0
 2564 0006 2046     		mov	r0, r4
 2565 0008 4022     		movs	r2, #64
ARM GAS  /tmp/ccDJsI0n.s 			page 46


 2566 000a FFF7FEFF 		bl	TIM_SelectOCxM
 2567              	.LVL206:
 2568              		.loc 1 847 0
 2569 000e 2046     		mov	r0, r4
 2570 0010 0021     		movs	r1, #0
 2571 0012 0122     		movs	r2, #1
 2572 0014 FFF7FEFF 		bl	TIM_CCxCmd
 2573              	.LVL207:
 2574              		.loc 1 848 0
 2575 0018 0021     		movs	r1, #0
 2576 001a 2046     		mov	r0, r4
 2577 001c 0A46     		mov	r2, r1
 2578 001e FFF7FEFF 		bl	TIM_CCxNCmd
 2579              	.LVL208:
 2580              		.loc 1 850 0
 2581 0022 2046     		mov	r0, r4
 2582 0024 0421     		movs	r1, #4
 2583 0026 4022     		movs	r2, #64
 2584 0028 FFF7FEFF 		bl	TIM_SelectOCxM
 2585              	.LVL209:
 2586              		.loc 1 851 0
 2587 002c 2046     		mov	r0, r4
 2588 002e 0421     		movs	r1, #4
 2589 0030 0122     		movs	r2, #1
 2590 0032 FFF7FEFF 		bl	TIM_CCxCmd
 2591              	.LVL210:
 2592              		.loc 1 852 0
 2593 0036 2046     		mov	r0, r4
 2594 0038 0421     		movs	r1, #4
 2595 003a 0022     		movs	r2, #0
 2596 003c FFF7FEFF 		bl	TIM_CCxNCmd
 2597              	.LVL211:
 2598              		.loc 1 854 0
 2599 0040 2046     		mov	r0, r4
 2600 0042 0821     		movs	r1, #8
 2601 0044 4022     		movs	r2, #64
 2602 0046 FFF7FEFF 		bl	TIM_SelectOCxM
 2603              	.LVL212:
 2604              		.loc 1 855 0
 2605 004a 2046     		mov	r0, r4
 2606 004c 0821     		movs	r1, #8
 2607 004e 0122     		movs	r2, #1
 2608 0050 FFF7FEFF 		bl	TIM_CCxCmd
 2609              	.LVL213:
 2610              		.loc 1 856 0
 2611 0054 2046     		mov	r0, r4
 2612 0056 0821     		movs	r1, #8
 2613 0058 0022     		movs	r2, #0
 2614 005a FFF7FEFF 		bl	TIM_CCxNCmd
 2615              	.LVL214:
 2616              		.loc 1 858 0
 2617 005e 2046     		mov	r0, r4
 2618 0060 2021     		movs	r1, #32
 2619 0062 FFF7FEFF 		bl	TIM_GenerateEvent
 2620              	.LVL215:
 2621              		.loc 1 861 0
 2622 0066 BDE81040 		pop	{r4, lr}
ARM GAS  /tmp/ccDJsI0n.s 			page 47


 2623              		.cfi_restore 14
 2624              		.cfi_restore 4
 2625              		.cfi_def_cfa_offset 0
 2626              		.loc 1 860 0
 2627 006a FFF7FEBF 		b	set_switching_frequency.constprop.0
 2628              	.LVL216:
 2629              	.L228:
 2630 006e 00BF     		.align	2
 2631              	.L227:
 2632 0070 00000140 		.word	1073807360
 2633              		.cfi_endproc
 2634              	.LFE285:
 2635              		.size	stop_pwm_hw, .-stop_pwm_hw
 2636              		.section	.text.full_brake_hw,"ax",%progbits
 2637              		.align	2
 2638              		.p2align 4,,15
 2639              		.thumb
 2640              		.thumb_func
 2641              		.type	full_brake_hw, %function
 2642              	full_brake_hw:
 2643              	.LFB287:
 2644              		.loc 1 869 0
 2645              		.cfi_startproc
 2646              		@ args = 0, pretend = 0, frame = 0
 2647              		@ frame_needed = 0, uses_anonymous_args = 0
 2648 0000 10B5     		push	{r4, lr}
 2649              		.cfi_def_cfa_offset 8
 2650              		.cfi_offset 4, -8
 2651              		.cfi_offset 14, -4
 2652              		.loc 1 870 0
 2653 0002 1B4C     		ldr	r4, .L231
 2654 0004 0021     		movs	r1, #0
 2655 0006 2046     		mov	r0, r4
 2656 0008 4022     		movs	r2, #64
 2657 000a FFF7FEFF 		bl	TIM_SelectOCxM
 2658              	.LVL217:
 2659              		.loc 1 871 0
 2660 000e 2046     		mov	r0, r4
 2661 0010 0021     		movs	r1, #0
 2662 0012 0122     		movs	r2, #1
 2663 0014 FFF7FEFF 		bl	TIM_CCxCmd
 2664              	.LVL218:
 2665              		.loc 1 872 0
 2666 0018 2046     		mov	r0, r4
 2667 001a 0021     		movs	r1, #0
 2668 001c 0422     		movs	r2, #4
 2669 001e FFF7FEFF 		bl	TIM_CCxNCmd
 2670              	.LVL219:
 2671              		.loc 1 874 0
 2672 0022 2046     		mov	r0, r4
 2673 0024 0421     		movs	r1, #4
 2674 0026 4022     		movs	r2, #64
 2675 0028 FFF7FEFF 		bl	TIM_SelectOCxM
 2676              	.LVL220:
 2677              		.loc 1 875 0
 2678 002c 2046     		mov	r0, r4
 2679 002e 0421     		movs	r1, #4
ARM GAS  /tmp/ccDJsI0n.s 			page 48


 2680 0030 0122     		movs	r2, #1
 2681 0032 FFF7FEFF 		bl	TIM_CCxCmd
 2682              	.LVL221:
 2683              		.loc 1 876 0
 2684 0036 0421     		movs	r1, #4
 2685 0038 2046     		mov	r0, r4
 2686 003a 0A46     		mov	r2, r1
 2687 003c FFF7FEFF 		bl	TIM_CCxNCmd
 2688              	.LVL222:
 2689              		.loc 1 878 0
 2690 0040 2046     		mov	r0, r4
 2691 0042 0821     		movs	r1, #8
 2692 0044 4022     		movs	r2, #64
 2693 0046 FFF7FEFF 		bl	TIM_SelectOCxM
 2694              	.LVL223:
 2695              		.loc 1 879 0
 2696 004a 2046     		mov	r0, r4
 2697 004c 0821     		movs	r1, #8
 2698 004e 0122     		movs	r2, #1
 2699 0050 FFF7FEFF 		bl	TIM_CCxCmd
 2700              	.LVL224:
 2701              		.loc 1 880 0
 2702 0054 2046     		mov	r0, r4
 2703 0056 0821     		movs	r1, #8
 2704 0058 0422     		movs	r2, #4
 2705 005a FFF7FEFF 		bl	TIM_CCxNCmd
 2706              	.LVL225:
 2707              		.loc 1 882 0
 2708 005e 2046     		mov	r0, r4
 2709 0060 2021     		movs	r1, #32
 2710 0062 FFF7FEFF 		bl	TIM_GenerateEvent
 2711              	.LVL226:
 2712              		.loc 1 885 0
 2713 0066 BDE81040 		pop	{r4, lr}
 2714              		.cfi_restore 14
 2715              		.cfi_restore 4
 2716              		.cfi_def_cfa_offset 0
 2717              		.loc 1 884 0
 2718 006a FFF7FEBF 		b	set_switching_frequency.constprop.0
 2719              	.LVL227:
 2720              	.L232:
 2721 006e 00BF     		.align	2
 2722              	.L231:
 2723 0070 00000140 		.word	1073807360
 2724              		.cfi_endproc
 2725              	.LFE287:
 2726              		.size	full_brake_hw, .-full_brake_hw
 2727              		.section	.text.mcpwm_deinit,"ax",%progbits
 2728              		.align	2
 2729              		.p2align 4,,15
 2730              		.global	mcpwm_deinit
 2731              		.thumb
 2732              		.thumb_func
 2733              		.type	mcpwm_deinit, %function
 2734              	mcpwm_deinit:
 2735              	.LFB257:
 2736              		.loc 1 458 0
ARM GAS  /tmp/ccDJsI0n.s 			page 49


 2737              		.cfi_startproc
 2738              		@ args = 0, pretend = 0, frame = 0
 2739              		@ frame_needed = 0, uses_anonymous_args = 0
 2740 0000 38B5     		push	{r3, r4, r5, lr}
 2741              		.cfi_def_cfa_offset 16
 2742              		.cfi_offset 3, -16
 2743              		.cfi_offset 4, -12
 2744              		.cfi_offset 5, -8
 2745              		.cfi_offset 14, -4
 2746              		.loc 1 461 0
 2747 0002 154C     		ldr	r4, .L237
 2748              		.loc 1 462 0
 2749 0004 154D     		ldr	r5, .L237+4
 2750              		.loc 1 459 0
 2751 0006 FFF7FEFF 		bl	WWDG_DeInit
 2752              	.LVL228:
 2753              		.loc 1 461 0
 2754 000a 0123     		movs	r3, #1
 2755 000c 2370     		strb	r3, [r4]
 2756              		.loc 1 462 0
 2757 000e 2B70     		strb	r3, [r5]
 2758              		.loc 1 464 0
 2759 0010 01E0     		b	.L234
 2760              	.L235:
 2761              		.loc 1 465 0
 2762 0012 FFF7FEFF 		bl	chThdSleep
 2763              	.LVL229:
 2764              	.L234:
 2765              		.loc 1 464 0
 2766 0016 2378     		ldrb	r3, [r4]	@ zero_extendqisi2
 2767              		.loc 1 465 0
 2768 0018 0A20     		movs	r0, #10
 2769              		.loc 1 464 0
 2770 001a 002B     		cmp	r3, #0
 2771 001c F9D1     		bne	.L235
 2772              		.loc 1 464 0 is_stmt 0 discriminator 1
 2773 001e 2B78     		ldrb	r3, [r5]	@ zero_extendqisi2
 2774 0020 002B     		cmp	r3, #0
 2775 0022 F6D1     		bne	.L235
 2776              		.loc 1 468 0 is_stmt 1
 2777 0024 0E48     		ldr	r0, .L237+8
 2778 0026 FFF7FEFF 		bl	TIM_DeInit
 2779              	.LVL230:
 2780              		.loc 1 469 0
 2781 002a 4FF08040 		mov	r0, #1073741824
 2782 002e FFF7FEFF 		bl	TIM_DeInit
 2783              	.LVL231:
 2784              		.loc 1 470 0
 2785 0032 0C48     		ldr	r0, .L237+12
 2786 0034 FFF7FEFF 		bl	TIM_DeInit
 2787              	.LVL232:
 2788              		.loc 1 471 0
 2789 0038 0B48     		ldr	r0, .L237+16
 2790 003a FFF7FEFF 		bl	TIM_DeInit
 2791              	.LVL233:
 2792              		.loc 1 472 0
 2793 003e FFF7FEFF 		bl	ADC_DeInit
ARM GAS  /tmp/ccDJsI0n.s 			page 50


 2794              	.LVL234:
 2795              		.loc 1 473 0
 2796 0042 0A48     		ldr	r0, .L237+20
 2797 0044 FFF7FEFF 		bl	DMA_DeInit
 2798              	.LVL235:
 2799              		.loc 1 474 0
 2800 0048 1220     		movs	r0, #18
 2801 004a FFF7FEFF 		bl	nvicDisableVector
 2802              	.LVL236:
 2803              		.loc 1 475 0
 2804 004e 0848     		ldr	r0, .L237+24
 2805              		.loc 1 476 0
 2806 0050 BDE83840 		pop	{r3, r4, r5, lr}
 2807              		.cfi_restore 14
 2808              		.cfi_restore 5
 2809              		.cfi_restore 4
 2810              		.cfi_restore 3
 2811              		.cfi_def_cfa_offset 0
 2812              		.loc 1 475 0
 2813 0054 FFF7FEBF 		b	dmaStreamRelease
 2814              	.LVL237:
 2815              	.L238:
 2816              		.align	2
 2817              	.L237:
 2818 0058 00000000 		.word	.LANCHOR19
 2819 005c 00000000 		.word	.LANCHOR27
 2820 0060 00000140 		.word	1073807360
 2821 0064 00040140 		.word	1073808384
 2822 0068 00180040 		.word	1073747968
 2823 006c 70640240 		.word	1073898608
 2824 0070 90000000 		.word	_stm32_dma_streams+144
 2825              		.cfi_endproc
 2826              	.LFE257:
 2827              		.size	mcpwm_deinit, .-mcpwm_deinit
 2828              		.section	.text.mcpwm_init_hall_table,"ax",%progbits
 2829              		.align	2
 2830              		.p2align 4,,15
 2831              		.global	mcpwm_init_hall_table
 2832              		.thumb
 2833              		.thumb_func
 2834              		.type	mcpwm_init_hall_table, %function
 2835              	mcpwm_init_hall_table:
 2836              	.LFB259:
 2837              		.loc 1 496 0
 2838              		.cfi_startproc
 2839              		@ args = 0, pretend = 0, frame = 32
 2840              		@ frame_needed = 0, uses_anonymous_args = 0
 2841              		@ link register save eliminated.
 2842              	.LVL238:
 2843 0000 F0B4     		push	{r4, r5, r6, r7}
 2844              		.cfi_def_cfa_offset 16
 2845              		.cfi_offset 4, -16
 2846              		.cfi_offset 5, -12
 2847              		.cfi_offset 6, -8
 2848              		.cfi_offset 7, -4
 2849              		.loc 1 497 0
 2850 0002 104F     		ldr	r7, .L246
ARM GAS  /tmp/ccDJsI0n.s 			page 51


 2851 0004 104C     		ldr	r4, .L246+4
 2852              		.loc 1 496 0
 2853 0006 0546     		mov	r5, r0
 2854              		.loc 1 497 0
 2855 0008 0FCF     		ldmia	r7!, {r0, r1, r2, r3}
 2856              	.LVL239:
 2857              		.loc 1 496 0
 2858 000a 88B0     		sub	sp, sp, #32
 2859              		.cfi_def_cfa_offset 48
 2860              		.loc 1 497 0
 2861 000c 01AE     		add	r6, sp, #4
 2862 000e 0FC6     		stmia	r6!, {r0, r1, r2, r3}
 2863 0010 97E80700 		ldmia	r7, {r0, r1, r2}
 2864 0014 86E80700 		stmia	r6, {r0, r1, r2}
 2865              	.LVL240:
 2866 0018 681E     		subs	r0, r5, #1
 2867 001a 04F12001 		add	r1, r4, #32
 2868              	.LVL241:
 2869              	.L242:
 2870              	.LBB106:
 2871              	.LBB107:
 2872              		.loc 1 500 0
 2873 001e 10F9013F 		ldrsb	r3, [r0, #1]!
 2874              	.LVL242:
 2875 0022 44F8043F 		str	r3, [r4, #4]!
 2876              	.LVL243:
 2877              		.loc 1 508 0
 2878 0026 08AA     		add	r2, sp, #32
 2879 0028 02EB8302 		add	r2, r2, r3, lsl #2
 2880              		.loc 1 503 0
 2881 002c 002B     		cmp	r3, #0
 2882              		.loc 1 508 0
 2883 002e C8BF     		it	gt
 2884 0030 52F81C3C 		ldrgt	r3, [r2, #-28]
 2885              	.LVL244:
 2886 0034 44F8203C 		str	r3, [r4, #-32]
 2887              	.LVL245:
 2888              	.LBE107:
 2889              		.loc 1 499 0
 2890 0038 8C42     		cmp	r4, r1
 2891 003a F0D1     		bne	.L242
 2892              	.LBE106:
 2893              		.loc 1 510 0
 2894 003c 08B0     		add	sp, sp, #32
 2895              		.cfi_def_cfa_offset 16
 2896              		@ sp needed
 2897 003e F0BC     		pop	{r4, r5, r6, r7}
 2898              		.cfi_restore 7
 2899              		.cfi_restore 6
 2900              		.cfi_restore 5
 2901              		.cfi_restore 4
 2902              		.cfi_def_cfa_offset 0
 2903              	.LVL246:
 2904 0040 7047     		bx	lr
 2905              	.L247:
 2906 0042 00BF     		.align	2
 2907              	.L246:
ARM GAS  /tmp/ccDJsI0n.s 			page 52


 2908 0044 00000000 		.word	.LANCHOR28
 2909 0048 1C000000 		.word	.LANCHOR29+28
 2910              		.cfi_endproc
 2911              	.LFE259:
 2912              		.size	mcpwm_init_hall_table, .-mcpwm_init_hall_table
 2913              		.section	.text.mcpwm_init,"ax",%progbits
 2914              		.align	2
 2915              		.p2align 4,,15
 2916              		.global	mcpwm_init
 2917              		.thumb
 2918              		.thumb_func
 2919              		.type	mcpwm_init, %function
 2920              	mcpwm_init:
 2921              	.LFB256:
 2922              		.loc 1 160 0
 2923              		.cfi_startproc
 2924              		@ args = 0, pretend = 0, frame = 184
 2925              		@ frame_needed = 0, uses_anonymous_args = 0
 2926              	.LVL247:
 2927 0000 2DE9F04F 		push	{r4, r5, r6, r7, r8, r9, r10, fp, lr}
 2928              		.cfi_def_cfa_offset 36
 2929              		.cfi_offset 4, -36
 2930              		.cfi_offset 5, -32
 2931              		.cfi_offset 6, -28
 2932              		.cfi_offset 7, -24
 2933              		.cfi_offset 8, -20
 2934              		.cfi_offset 9, -16
 2935              		.cfi_offset 10, -12
 2936              		.cfi_offset 11, -8
 2937              		.cfi_offset 14, -4
 2938 0004 B1B0     		sub	sp, sp, #196
 2939              		.cfi_def_cfa_offset 232
 2940              		.loc 1 160 0
 2941 0006 8346     		mov	fp, r0
 2942              		.loc 1 161 0
 2943 0008 FFF7FEFF 		bl	utils_sys_lock_cnt
 2944              	.LVL248:
 2945              		.loc 1 192 0
 2946 000c CC49     		ldr	r1, .L255
 2947              		.loc 1 167 0
 2948 000e CD4B     		ldr	r3, .L255+4
 2949              		.loc 1 173 0
 2950 0010 DFEDCD7A 		flds	s15, .L255+8
 2951              		.loc 1 167 0
 2952 0014 C3F800B0 		str	fp, [r3]
 2953              		.loc 1 171 0
 2954 0018 0024     		movs	r4, #0
 2955              		.loc 1 192 0
 2956 001a 0C60     		str	r4, [r1]
 2957 001c 4C60     		str	r4, [r1, #4]
 2958 001e 8C60     		str	r4, [r1, #8]
 2959 0020 CC60     		str	r4, [r1, #12]
 2960 0022 0C61     		str	r4, [r1, #16]
 2961 0024 4C61     		str	r4, [r1, #20]
 2962 0026 01F11803 		add	r3, r1, #24
 2963              		.loc 1 170 0
 2964 002a DFF8B0A3 		ldr	r10, .L255+156
ARM GAS  /tmp/ccDJsI0n.s 			page 53


 2965              		.loc 1 171 0
 2966 002e C74E     		ldr	r6, .L255+12
 2967              		.loc 1 172 0
 2968 0030 DFF8AC93 		ldr	r9, .L255+160
 2969              		.loc 1 173 0
 2970 0034 DFF8AC83 		ldr	r8, .L255+164
 2971              		.loc 1 174 0
 2972 0038 DFF8ACC3 		ldr	ip, .L255+168
 2973              		.loc 1 175 0
 2974 003c DFF8ACE3 		ldr	lr, .L255+172
 2975              		.loc 1 176 0
 2976 0040 C34F     		ldr	r7, .L255+16
 2977              		.loc 1 177 0
 2978 0042 C448     		ldr	r0, .L255+20
 2979              		.loc 1 178 0
 2980 0044 C449     		ldr	r1, .L255+24
 2981              		.loc 1 192 0
 2982 0046 1C60     		str	r4, [r3]
 2983              		.loc 1 170 0
 2984 0048 0125     		movs	r5, #1
 2985 004a CAF80050 		str	r5, [r10]
 2986              		.loc 1 180 0
 2987 004e C34B     		ldr	r3, .L255+28
 2988              		.loc 1 171 0
 2989 0050 3460     		str	r4, [r6]
 2990              		.loc 1 172 0
 2991 0052 C9F80050 		str	r5, [r9]
 2992              		.loc 1 173 0
 2993 0056 C8ED007A 		fsts	s15, [r8]
 2994              		.loc 1 174 0
 2995 005a CCED007A 		fsts	s15, [ip]
 2996              		.loc 1 175 0
 2997 005e CEED007A 		fsts	s15, [lr]
 2998              		.loc 1 176 0
 2999 0062 C7ED007A 		fsts	s15, [r7]
 3000              		.loc 1 177 0
 3001 0066 C0ED007A 		fsts	s15, [r0]
 3002              		.loc 1 178 0
 3003 006a C1ED007A 		fsts	s15, [r1]
 3004              		.loc 1 179 0
 3005 006e BC49     		ldr	r1, .L255+32
 3006              		.loc 1 186 0
 3007 0070 9FEDBC7A 		flds	s14, .L255+36
 3008              		.loc 1 179 0
 3009 0074 0C60     		str	r4, [r1]
 3010              		.loc 1 180 0
 3011 0076 1C60     		str	r4, [r3]
 3012              		.loc 1 181 0
 3013 0078 BB4B     		ldr	r3, .L255+40
 3014              		.loc 1 183 0
 3015 007a BC49     		ldr	r1, .L255+44
 3016              		.loc 1 181 0
 3017 007c 1C60     		str	r4, [r3]
 3018              		.loc 1 182 0
 3019 007e BC4B     		ldr	r3, .L255+48
 3020              		.loc 1 186 0
 3021 0080 BC4E     		ldr	r6, .L255+52
ARM GAS  /tmp/ccDJsI0n.s 			page 54


 3022              		.loc 1 182 0
 3023 0082 1C70     		strb	r4, [r3]
 3024              		.loc 1 183 0
 3025 0084 0523     		movs	r3, #5
 3026 0086 0B70     		strb	r3, [r1]
 3027              		.loc 1 184 0
 3028 0088 BB4B     		ldr	r3, .L255+56
 3029              		.loc 1 185 0
 3030 008a BC49     		ldr	r1, .L255+60
 3031              		.loc 1 184 0
 3032 008c C3ED007A 		fsts	s15, [r3]
 3033              		.loc 1 185 0
 3034 0090 C1ED007A 		fsts	s15, [r1]
 3035              		.loc 1 187 0
 3036 0094 BA49     		ldr	r1, .L255+64
 3037              		.loc 1 193 0
 3038 0096 DFF858E3 		ldr	lr, .L255+176
 3039              		.loc 1 191 0
 3040 009a DFF858C3 		ldr	ip, .L255+180
 3041              		.loc 1 188 0
 3042 009e DFF858A3 		ldr	r10, .L255+184
 3043              		.loc 1 189 0
 3044 00a2 DFF85893 		ldr	r9, .L255+188
 3045              		.loc 1 190 0
 3046 00a6 DFF85883 		ldr	r8, .L255+192
 3047              		.loc 1 194 0
 3048 00aa B64F     		ldr	r7, .L255+68
 3049              		.loc 1 186 0
 3050 00ac 86ED007A 		fsts	s14, [r6]
 3051              		.loc 1 198 0
 3052 00b0 B54A     		ldr	r2, .L255+72
 3053              		.loc 1 187 0
 3054 00b2 0C60     		str	r4, [r1]
 3055              		.loc 1 195 0
 3056 00b4 B548     		ldr	r0, .L255+76
 3057              		.loc 1 196 0
 3058 00b6 B649     		ldr	r1, .L255+80
 3059              		.loc 1 199 0
 3060 00b8 B64B     		ldr	r3, .L255+84
 3061              		.loc 1 188 0
 3062 00ba CAF80040 		str	r4, [r10]
 3063              		.loc 1 189 0
 3064 00be C9F80040 		str	r4, [r9]
 3065              		.loc 1 190 0
 3066 00c2 C8F80040 		str	r4, [r8]
 3067              		.loc 1 191 0
 3068 00c6 CCF80040 		str	r4, [ip]
 3069              		.loc 1 193 0
 3070 00ca CEED007A 		fsts	s15, [lr]
 3071              		.loc 1 194 0
 3072 00ce C7ED007A 		fsts	s15, [r7]
 3073              		.loc 1 197 0
 3074 00d2 B14F     		ldr	r7, .L255+88
 3075              		.loc 1 195 0
 3076 00d4 C0ED007A 		fsts	s15, [r0]
 3077              		.loc 1 196 0
 3078 00d8 0C60     		str	r4, [r1]
ARM GAS  /tmp/ccDJsI0n.s 			page 55


 3079              		.loc 1 200 0
 3080 00da B048     		ldr	r0, .L255+92
 3081              		.loc 1 198 0
 3082 00dc 1460     		str	r4, [r2]
 3083              		.loc 1 200 0
 3084 00de 2146     		mov	r1, r4
 3085              		.loc 1 198 0
 3086 00e0 5460     		str	r4, [r2, #4]
 3087 00e2 9460     		str	r4, [r2, #8]
 3088 00e4 D460     		str	r4, [r2, #12]
 3089 00e6 1461     		str	r4, [r2, #16]
 3090 00e8 5461     		str	r4, [r2, #20]
 3091              		.loc 1 200 0
 3092 00ea E022     		movs	r2, #224
 3093              		.loc 1 197 0
 3094 00ec C7ED007A 		fsts	s15, [r7]
 3095              		.loc 1 199 0
 3096 00f0 1C70     		strb	r4, [r3]
 3097              		.loc 1 200 0
 3098 00f2 FFF7FEFF 		bl	memset
 3099              	.LVL249:
 3100              		.loc 1 201 0
 3101 00f6 FFF7FEFF 		bl	update_sensor_mode
 3102              	.LVL250:
 3103              		.loc 1 203 0
 3104 00fa 0BF18000 		add	r0, fp, #128
 3105 00fe FFF7FEFF 		bl	mcpwm_init_hall_table
 3106              	.LVL251:
 3107              		.loc 1 206 0
 3108 0102 2A46     		mov	r2, r5
 3109 0104 A648     		ldr	r0, .L255+96
 3110 0106 9FEDA70A 		flds	s0, .L255+100
 3111              		.loc 1 214 0
 3112 010a A74F     		ldr	r7, .L255+104
 3113              		.loc 1 215 0
 3114 010c DFF8F482 		ldr	r8, .L255+196
 3115              		.loc 1 206 0
 3116 0110 0721     		movs	r1, #7
 3117 0112 FFF7FEFF 		bl	filter_create_fir_lowpass
 3118              	.LVL252:
 3119              		.loc 1 209 0
 3120 0116 2A46     		mov	r2, r5
 3121 0118 A448     		ldr	r0, .L255+108
 3122 011a 9FEDA20A 		flds	s0, .L255+100
 3123 011e 0721     		movs	r1, #7
 3124 0120 FFF7FEFF 		bl	filter_create_fir_lowpass
 3125              	.LVL253:
 3126              		.loc 1 212 0
 3127 0124 9FEDA20A 		flds	s0, .L255+112
 3128 0128 A248     		ldr	r0, .L255+116
 3129 012a 2A46     		mov	r2, r5
 3130 012c 0421     		movs	r1, #4
 3131 012e FFF7FEFF 		bl	filter_create_fir_lowpass
 3132              	.LVL254:
 3133              		.loc 1 214 0
 3134 0132 3846     		mov	r0, r7
 3135 0134 FFF7FEFF 		bl	TIM_DeInit
ARM GAS  /tmp/ccDJsI0n.s 			page 56


 3136              	.LVL255:
 3137              		.loc 1 215 0
 3138 0138 4046     		mov	r0, r8
 3139 013a FFF7FEFF 		bl	TIM_DeInit
 3140              	.LVL256:
 3141              		.loc 1 216 0
 3142 013e 7C62     		str	r4, [r7, #36]
 3143              		.loc 1 220 0
 3144 0140 2846     		mov	r0, r5
 3145 0142 2946     		mov	r1, r5
 3146              		.loc 1 217 0
 3147 0144 C8F82440 		str	r4, [r8, #36]
 3148              		.loc 1 220 0
 3149 0148 FFF7FEFF 		bl	RCC_APB2PeriphClockCmd
 3150              	.LVL257:
 3151              		.loc 1 225 0
 3152 014c D6ED007A 		flds	s15, [r6]
 3153 0150 994A     		ldr	r2, .L255+120
 3154              		.loc 1 223 0
 3155 0152 ADF81440 		strh	r4, [sp, #20]	@ movhi
 3156              		.loc 1 225 0
 3157 0156 FDEEE77A 		ftosizs	s15, s15
 3158              		.loc 1 229 0
 3159 015a 3846     		mov	r0, r7
 3160              		.loc 1 225 0
 3161 015c 17EE903A 		fmrs	r3, s15	@ int
 3162              		.loc 1 229 0
 3163 0160 05A9     		add	r1, sp, #20
 3164              		.loc 1 225 0
 3165 0162 92FBF3F3 		sdiv	r3, r2, r3
 3166              		.loc 1 224 0
 3167 0166 ADF81640 		strh	r4, [sp, #22]	@ movhi
 3168              		.loc 1 225 0
 3169 016a 0693     		str	r3, [sp, #24]
 3170              		.loc 1 226 0
 3171 016c ADF81C40 		strh	r4, [sp, #28]	@ movhi
 3172              		.loc 1 227 0
 3173 0170 8DF81E40 		strb	r4, [sp, #30]
 3174              		.loc 1 229 0
 3175 0174 FFF7FEFF 		bl	TIM_TimeBaseInit
 3176              	.LVL258:
 3177              		.loc 1 235 0
 3178 0178 FB6A     		ldr	r3, [r7, #44]
 3179              		.loc 1 233 0
 3180 017a ADF84250 		strh	r5, [sp, #66]	@ movhi
 3181              		.loc 1 235 0
 3182 017e EB40     		lsrs	r3, r3, r5
 3183              		.loc 1 234 0
 3184 0180 4FF00409 		mov	r9, #4
 3185              		.loc 1 238 0
 3186 0184 4FF4807A 		mov	r10, #256
 3187              		.loc 1 241 0
 3188 0188 3846     		mov	r0, r7
 3189 018a 10A9     		add	r1, sp, #64
 3190              		.loc 1 239 0
 3191 018c 4FF4007B 		mov	fp, #512
 3192              	.LVL259:
ARM GAS  /tmp/ccDJsI0n.s 			page 57


 3193              		.loc 1 235 0
 3194 0190 1293     		str	r3, [sp, #72]
 3195              		.loc 1 232 0
 3196 0192 4FF06003 		mov	r3, #96	@ movhi
 3197 0196 ADF84030 		strh	r3, [sp, #64]	@ movhi
 3198              		.loc 1 236 0
 3199 019a ADF84C40 		strh	r4, [sp, #76]	@ movhi
 3200              		.loc 1 237 0
 3201 019e ADF84E40 		strh	r4, [sp, #78]	@ movhi
 3202              		.loc 1 234 0
 3203 01a2 ADF84490 		strh	r9, [sp, #68]	@ movhi
 3204              		.loc 1 238 0
 3205 01a6 ADF850A0 		strh	r10, [sp, #80]	@ movhi
 3206              		.loc 1 239 0
 3207 01aa ADF852B0 		strh	fp, [sp, #82]	@ movhi
 3208              		.loc 1 241 0
 3209 01ae FFF7FEFF 		bl	TIM_OC1Init
 3210              	.LVL260:
 3211              		.loc 1 242 0
 3212 01b2 3846     		mov	r0, r7
 3213 01b4 10A9     		add	r1, sp, #64
 3214 01b6 FFF7FEFF 		bl	TIM_OC2Init
 3215              	.LVL261:
 3216              		.loc 1 243 0
 3217 01ba 3846     		mov	r0, r7
 3218 01bc 10A9     		add	r1, sp, #64
 3219 01be FFF7FEFF 		bl	TIM_OC3Init
 3220              	.LVL262:
 3221              		.loc 1 244 0
 3222 01c2 3846     		mov	r0, r7
 3223 01c4 10A9     		add	r1, sp, #64
 3224 01c6 FFF7FEFF 		bl	TIM_OC4Init
 3225              	.LVL263:
 3226              		.loc 1 246 0
 3227 01ca 3846     		mov	r0, r7
 3228 01cc 0821     		movs	r1, #8
 3229 01ce FFF7FEFF 		bl	TIM_OC1PreloadConfig
 3230              	.LVL264:
 3231              		.loc 1 247 0
 3232 01d2 3846     		mov	r0, r7
 3233 01d4 0821     		movs	r1, #8
 3234 01d6 FFF7FEFF 		bl	TIM_OC2PreloadConfig
 3235              	.LVL265:
 3236              		.loc 1 248 0
 3237 01da 3846     		mov	r0, r7
 3238 01dc 0821     		movs	r1, #8
 3239 01de FFF7FEFF 		bl	TIM_OC3PreloadConfig
 3240              	.LVL266:
 3241              		.loc 1 249 0
 3242 01e2 3846     		mov	r0, r7
 3243 01e4 0821     		movs	r1, #8
 3244 01e6 FFF7FEFF 		bl	TIM_OC4PreloadConfig
 3245              	.LVL267:
 3246              		.loc 1 255 0
 3247 01ea 3C23     		movs	r3, #60
 3248              		.loc 1 252 0
 3249 01ec 4FF4006C 		mov	ip, #2048
ARM GAS  /tmp/ccDJsI0n.s 			page 58


 3250              		.loc 1 253 0
 3251 01f0 4FF48066 		mov	r6, #1024
 3252              		.loc 1 260 0
 3253 01f4 3846     		mov	r0, r7
 3254 01f6 08A9     		add	r1, sp, #32
 3255              		.loc 1 255 0
 3256 01f8 ADF82630 		strh	r3, [sp, #38]	@ movhi
 3257              		.loc 1 257 0
 3258 01fc 4FF40053 		mov	r3, #8192	@ movhi
 3259              		.loc 1 252 0
 3260 0200 ADF820C0 		strh	ip, [sp, #32]	@ movhi
 3261 0204 CDF80CC0 		str	ip, [sp, #12]
 3262              		.loc 1 257 0
 3263 0208 ADF82A30 		strh	r3, [sp, #42]	@ movhi
 3264              		.loc 1 254 0
 3265 020c ADF82440 		strh	r4, [sp, #36]	@ movhi
 3266              		.loc 1 256 0
 3267 0210 ADF82840 		strh	r4, [sp, #40]	@ movhi
 3268              		.loc 1 258 0
 3269 0214 ADF82C40 		strh	r4, [sp, #44]	@ movhi
 3270              		.loc 1 253 0
 3271 0218 ADF82260 		strh	r6, [sp, #34]	@ movhi
 3272              		.loc 1 260 0
 3273 021c FFF7FEFF 		bl	TIM_BDTRConfig
 3274              	.LVL268:
 3275              		.loc 1 261 0
 3276 0220 3846     		mov	r0, r7
 3277 0222 2946     		mov	r1, r5
 3278 0224 FFF7FEFF 		bl	TIM_CCPreloadControl
 3279              	.LVL269:
 3280              		.loc 1 262 0
 3281 0228 3846     		mov	r0, r7
 3282 022a 2946     		mov	r1, r5
 3283 022c FFF7FEFF 		bl	TIM_ARRPreloadConfig
 3284              	.LVL270:
 3285              		.loc 1 272 0
 3286 0230 2946     		mov	r1, r5
 3287 0232 6248     		ldr	r0, .L255+124
 3288 0234 FFF7FEFF 		bl	RCC_AHB1PeriphClockCmd
 3289              	.LVL271:
 3290              		.loc 1 273 0
 3291 0238 2946     		mov	r1, r5
 3292 023a 4FF4E060 		mov	r0, #1792
 3293 023e FFF7FEFF 		bl	RCC_APB2PeriphClockCmd
 3294              	.LVL272:
 3295              		.loc 1 275 0
 3296 0242 2346     		mov	r3, r4
 3297 0244 5E4A     		ldr	r2, .L255+128
 3298 0246 5F48     		ldr	r0, .L255+132
 3299 0248 0321     		movs	r1, #3
 3300 024a FFF7FEFF 		bl	dmaStreamAllocate
 3301              	.LVL273:
 3302              		.loc 1 288 0
 3303 024e DDF80CC0 		ldr	ip, [sp, #12]
 3304              		.loc 1 282 0
 3305 0252 DFF8B4E1 		ldr	lr, .L255+200
 3306              		.loc 1 283 0
ARM GAS  /tmp/ccDJsI0n.s 			page 59


 3307 0256 5C4A     		ldr	r2, .L255+136
 3308              		.loc 1 296 0
 3309 0258 5C48     		ldr	r0, .L255+140
 3310              		.loc 1 288 0
 3311 025a CDF8A0C0 		str	ip, [sp, #160]
 3312              		.loc 1 289 0
 3313 025e 4FF40053 		mov	r3, #8192
 3314              		.loc 1 285 0
 3315 0262 4FF00C0C 		mov	ip, #12
 3316              		.loc 1 296 0
 3317 0266 21A9     		add	r1, sp, #132
 3318              		.loc 1 289 0
 3319 0268 2993     		str	r3, [sp, #164]
 3320              		.loc 1 291 0
 3321 026a 4FF40033 		mov	r3, #131072
 3322              		.loc 1 282 0
 3323 026e CDF88CE0 		str	lr, [sp, #140]
 3324              		.loc 1 285 0
 3325 0272 CDF894C0 		str	ip, [sp, #148]
 3326              		.loc 1 291 0
 3327 0276 2B93     		str	r3, [sp, #172]
 3328              		.loc 1 283 0
 3329 0278 2292     		str	r2, [sp, #136]
 3330              		.loc 1 281 0
 3331 027a 2194     		str	r4, [sp, #132]
 3332              		.loc 1 284 0
 3333 027c 2494     		str	r4, [sp, #144]
 3334              		.loc 1 286 0
 3335 027e 2694     		str	r4, [sp, #152]
 3336              		.loc 1 287 0
 3337 0280 2796     		str	r6, [sp, #156]
 3338              		.loc 1 290 0
 3339 0282 CDF8A8A0 		str	r10, [sp, #168]
 3340              		.loc 1 292 0
 3341 0286 2C94     		str	r4, [sp, #176]
 3342              		.loc 1 293 0
 3343 0288 2D94     		str	r4, [sp, #180]
 3344              		.loc 1 294 0
 3345 028a 2E94     		str	r4, [sp, #184]
 3346              		.loc 1 295 0
 3347 028c 2F94     		str	r4, [sp, #188]
 3348              		.loc 1 296 0
 3349 028e FFF7FEFF 		bl	DMA_Init
 3350              	.LVL274:
 3351              		.loc 1 299 0
 3352 0292 2946     		mov	r1, r5
 3353 0294 4D48     		ldr	r0, .L255+140
 3354 0296 FFF7FEFF 		bl	DMA_Cmd
 3355              	.LVL275:
 3356              		.loc 1 302 0
 3357 029a 1021     		movs	r1, #16
 3358 029c 2A46     		mov	r2, r5
 3359 029e 4B48     		ldr	r0, .L255+140
 3360 02a0 FFF7FEFF 		bl	DMA_ITConfig
 3361              	.LVL276:
 3362              		.loc 1 307 0
 3363 02a4 1622     		movs	r2, #22
ARM GAS  /tmp/ccDJsI0n.s 			page 60


 3364              		.loc 1 309 0
 3365 02a6 4FF48043 		mov	r3, #16384
 3366              		.loc 1 311 0
 3367 02aa 0CA8     		add	r0, sp, #48
 3368              		.loc 1 307 0
 3369 02ac 0C92     		str	r2, [sp, #48]
 3370              		.loc 1 309 0
 3371 02ae 0E93     		str	r3, [sp, #56]
 3372              		.loc 1 308 0
 3373 02b0 0D94     		str	r4, [sp, #52]
 3374              		.loc 1 310 0
 3375 02b2 0F94     		str	r4, [sp, #60]
 3376              		.loc 1 311 0
 3377 02b4 FFF7FEFF 		bl	ADC_CommonInit
 3378              	.LVL277:
 3379              		.loc 1 318 0
 3380 02b8 4FF05063 		mov	r3, #218103808
 3381              		.loc 1 317 0
 3382 02bc 4FF00052 		mov	r2, #536870912
 3383              		.loc 1 322 0
 3384 02c0 15A9     		add	r1, sp, #84
 3385 02c2 4348     		ldr	r0, .L255+144
 3386              		.loc 1 318 0
 3387 02c4 1893     		str	r3, [sp, #96]
 3388              		.loc 1 317 0
 3389 02c6 1792     		str	r2, [sp, #92]
 3390              		.loc 1 314 0
 3391 02c8 1594     		str	r4, [sp, #84]
 3392              		.loc 1 315 0
 3393 02ca 8DF85850 		strb	r5, [sp, #88]
 3394              		.loc 1 316 0
 3395 02ce 8DF85940 		strb	r4, [sp, #89]
 3396              		.loc 1 319 0
 3397 02d2 1994     		str	r4, [sp, #100]
 3398              		.loc 1 320 0
 3399 02d4 8DF86890 		strb	r9, [sp, #104]
 3400              		.loc 1 322 0
 3401 02d8 FFF7FEFF 		bl	ADC_Init
 3402              	.LVL278:
 3403              		.loc 1 325 0
 3404 02dc 15A9     		add	r1, sp, #84
 3405 02de 3D48     		ldr	r0, .L255+148
 3406              		.loc 1 323 0
 3407 02e0 1794     		str	r4, [sp, #92]
 3408              		.loc 1 324 0
 3409 02e2 1894     		str	r4, [sp, #96]
 3410              		.loc 1 325 0
 3411 02e4 FFF7FEFF 		bl	ADC_Init
 3412              	.LVL279:
 3413              		.loc 1 326 0
 3414 02e8 15A9     		add	r1, sp, #84
 3415 02ea 3B48     		ldr	r0, .L255+152
 3416 02ec FFF7FEFF 		bl	ADC_Init
 3417              	.LVL280:
 3418              		.loc 1 329 0
 3419 02f0 2846     		mov	r0, r5
 3420 02f2 FFF7FEFF 		bl	ADC_TempSensorVrefintCmd
ARM GAS  /tmp/ccDJsI0n.s 			page 61


 3421              	.LVL281:
 3422              		.loc 1 332 0
 3423 02f6 2846     		mov	r0, r5
 3424 02f8 FFF7FEFF 		bl	ADC_MultiModeDMARequestAfterLastTransferCmd
 3425              	.LVL282:
 3426              		.loc 1 335 0
 3427 02fc 2146     		mov	r1, r4
 3428 02fe 3448     		ldr	r0, .L255+144
 3429 0300 FFF7FEFF 		bl	ADC_ExternalTrigInjectedConvConfig
 3430              	.LVL283:
 3431              		.loc 1 336 0
 3432 0304 3348     		ldr	r0, .L255+148
 3433 0306 4FF44021 		mov	r1, #786432
 3434 030a FFF7FEFF 		bl	ADC_ExternalTrigInjectedConvConfig
 3435              	.LVL284:
 3436              		.loc 1 337 0
 3437 030e 3048     		ldr	r0, .L255+144
 3438 0310 4FF40011 		mov	r1, #2097152
 3439 0314 FFF7FEFF 		bl	ADC_ExternalTrigInjectedConvEdgeConfig
 3440              	.LVL285:
 3441              		.loc 1 338 0
 3442 0318 2E48     		ldr	r0, .L255+148
 3443 031a 4FF40011 		mov	r1, #2097152
 3444 031e FFF7FEFF 		bl	ADC_ExternalTrigInjectedConvEdgeConfig
 3445              	.LVL286:
 3446              		.loc 1 339 0
 3447 0322 2B48     		ldr	r0, .L255+144
 3448 0324 0221     		movs	r1, #2
 3449 0326 FFF7FEFF 		bl	ADC_InjectedSequencerLengthConfig
 3450              	.LVL287:
 3451              		.loc 1 340 0
 3452 032a 2A48     		ldr	r0, .L255+148
 3453 032c 0221     		movs	r1, #2
 3454 032e FFF7FEFF 		bl	ADC_InjectedSequencerLengthConfig
 3455              	.LVL288:
 3456              		.loc 1 342 0
 3457 0332 FFF7FEFF 		bl	hw_setup_adc_channels
 3458              	.LVL289:
 3459              		.loc 1 345 0
 3460 0336 2A46     		mov	r2, r5
 3461 0338 2548     		ldr	r0, .L255+144
 3462 033a 40F20741 		movw	r1, #1031
 3463 033e 65E0     		b	.L256
 3464              	.L257:
 3465              		.align	2
 3466              	.L255:
 3467 0340 00000000 		.word	.LANCHOR6
 3468 0344 00000000 		.word	.LANCHOR0
 3469 0348 00000000 		.word	0
 3470 034c 00000000 		.word	.LANCHOR30
 3471 0350 00000000 		.word	.LANCHOR32
 3472 0354 00000000 		.word	.LANCHOR33
 3473 0358 00000000 		.word	.LANCHOR34
 3474 035c 00000000 		.word	.LANCHOR8
 3475 0360 00000000 		.word	.LANCHOR9
 3476 0364 00401C47 		.word	1193033728
 3477 0368 00000000 		.word	.LANCHOR7
ARM GAS  /tmp/ccDJsI0n.s 			page 62


 3478 036c 00000000 		.word	.LANCHOR35
 3479 0370 00000000 		.word	.LANCHOR2
 3480 0374 00000000 		.word	.LANCHOR13
 3481 0378 00000000 		.word	.LANCHOR36
 3482 037c 00000000 		.word	.LANCHOR37
 3483 0380 00000000 		.word	.LANCHOR38
 3484 0384 00000000 		.word	.LANCHOR42
 3485 0388 00000000 		.word	.LANCHOR16
 3486 038c 00000000 		.word	.LANCHOR14
 3487 0390 00000000 		.word	.LANCHOR17
 3488 0394 00000000 		.word	.LANCHOR43
 3489 0398 00000000 		.word	.LANCHOR15
 3490 039c 00000000 		.word	.LANCHOR44
 3491 03a0 00000000 		.word	.LANCHOR45
 3492 03a4 0AD7A33C 		.word	1017370378
 3493 03a8 00000140 		.word	1073807360
 3494 03ac 00000000 		.word	.LANCHOR22
 3495 03b0 9A99193E 		.word	1041865114
 3496 03b4 00000000 		.word	.LANCHOR46
 3497 03b8 007A030A 		.word	168000000
 3498 03bc 05004000 		.word	4194309
 3499 03c0 00000000 		.word	mcpwm_adc_int_handler
 3500 03c4 90000000 		.word	_stm32_dma_streams+144
 3501 03c8 08230140 		.word	1073816328
 3502 03cc 70640240 		.word	1073898608
 3503 03d0 00200140 		.word	1073815552
 3504 03d4 00210140 		.word	1073815808
 3505 03d8 00220140 		.word	1073816064
 3506 03dc 00000000 		.word	.LANCHOR3
 3507 03e0 00000000 		.word	.LANCHOR4
 3508 03e4 00000000 		.word	.LANCHOR10
 3509 03e8 00000000 		.word	.LANCHOR31
 3510 03ec 00000000 		.word	.LANCHOR23
 3511 03f0 00000000 		.word	.LANCHOR41
 3512 03f4 00000000 		.word	.LANCHOR18
 3513 03f8 00000000 		.word	.LANCHOR1
 3514 03fc 00000000 		.word	.LANCHOR39
 3515 0400 00000000 		.word	.LANCHOR40
 3516 0404 00040140 		.word	1073808384
 3517 0408 00000000 		.word	ADC_Value
 3518              	.L256:
 3519 040c FFF7FEFF 		bl	ADC_ITConfig
 3520              	.LVL290:
 3521              		.loc 1 346 0
 3522 0410 1220     		movs	r0, #18
 3523 0412 0621     		movs	r1, #6
 3524 0414 FFF7FEFF 		bl	nvicEnableVector
 3525              	.LVL291:
 3526              		.loc 1 349 0
 3527 0418 2946     		mov	r1, r5
 3528 041a 7D48     		ldr	r0, .L258
 3529 041c FFF7FEFF 		bl	ADC_Cmd
 3530              	.LVL292:
 3531              		.loc 1 352 0
 3532 0420 2946     		mov	r1, r5
 3533 0422 7C48     		ldr	r0, .L258+4
 3534 0424 FFF7FEFF 		bl	ADC_Cmd
ARM GAS  /tmp/ccDJsI0n.s 			page 63


 3535              	.LVL293:
 3536              		.loc 1 355 0
 3537 0428 2946     		mov	r1, r5
 3538 042a 7B48     		ldr	r0, .L258+8
 3539 042c FFF7FEFF 		bl	ADC_Cmd
 3540              	.LVL294:
 3541              		.loc 1 359 0
 3542 0430 2946     		mov	r1, r5
 3543 0432 0220     		movs	r0, #2
 3544 0434 FFF7FEFF 		bl	RCC_APB2PeriphClockCmd
 3545              	.LVL295:
 3546              		.loc 1 363 0
 3547 0438 4FF6FF73 		movw	r3, #65535
 3548              		.loc 1 366 0
 3549 043c 4046     		mov	r0, r8
 3550 043e 05A9     		add	r1, sp, #20
 3551              		.loc 1 363 0
 3552 0440 0693     		str	r3, [sp, #24]
 3553              		.loc 1 361 0
 3554 0442 ADF81440 		strh	r4, [sp, #20]	@ movhi
 3555              		.loc 1 362 0
 3556 0446 ADF81640 		strh	r4, [sp, #22]	@ movhi
 3557              		.loc 1 364 0
 3558 044a ADF81C40 		strh	r4, [sp, #28]	@ movhi
 3559              		.loc 1 365 0
 3560 044e 8DF81E40 		strb	r4, [sp, #30]
 3561              		.loc 1 366 0
 3562 0452 FFF7FEFF 		bl	TIM_TimeBaseInit
 3563              	.LVL296:
 3564              		.loc 1 370 0
 3565 0456 4FF4FA73 		mov	r3, #500
 3566              		.loc 1 368 0
 3567 045a 4FF06002 		mov	r2, #96	@ movhi
 3568              		.loc 1 375 0
 3569 045e 4046     		mov	r0, r8
 3570 0460 10A9     		add	r1, sp, #64
 3571              		.loc 1 368 0
 3572 0462 ADF84020 		strh	r2, [sp, #64]	@ movhi
 3573              		.loc 1 370 0
 3574 0466 1293     		str	r3, [sp, #72]
 3575              		.loc 1 369 0
 3576 0468 ADF84250 		strh	r5, [sp, #66]	@ movhi
 3577              		.loc 1 371 0
 3578 046c ADF84C40 		strh	r4, [sp, #76]	@ movhi
 3579              		.loc 1 372 0
 3580 0470 ADF84E40 		strh	r4, [sp, #78]	@ movhi
 3581              		.loc 1 373 0
 3582 0474 ADF850A0 		strh	r10, [sp, #80]	@ movhi
 3583              		.loc 1 374 0
 3584 0478 ADF852B0 		strh	fp, [sp, #82]	@ movhi
 3585              		.loc 1 375 0
 3586 047c FFF7FEFF 		bl	TIM_OC1Init
 3587              	.LVL297:
 3588              		.loc 1 376 0
 3589 0480 4046     		mov	r0, r8
 3590 0482 0821     		movs	r1, #8
 3591 0484 FFF7FEFF 		bl	TIM_OC1PreloadConfig
ARM GAS  /tmp/ccDJsI0n.s 			page 64


 3592              	.LVL298:
 3593              		.loc 1 377 0
 3594 0488 4046     		mov	r0, r8
 3595 048a 10A9     		add	r1, sp, #64
 3596 048c FFF7FEFF 		bl	TIM_OC2Init
 3597              	.LVL299:
 3598              		.loc 1 378 0
 3599 0490 4046     		mov	r0, r8
 3600 0492 0821     		movs	r1, #8
 3601 0494 FFF7FEFF 		bl	TIM_OC2PreloadConfig
 3602              	.LVL300:
 3603              		.loc 1 380 0
 3604 0498 4046     		mov	r0, r8
 3605 049a 2946     		mov	r1, r5
 3606 049c FFF7FEFF 		bl	TIM_ARRPreloadConfig
 3607              	.LVL301:
 3608              		.loc 1 381 0
 3609 04a0 4046     		mov	r0, r8
 3610 04a2 2946     		mov	r1, r5
 3611 04a4 FFF7FEFF 		bl	TIM_CCPreloadControl
 3612              	.LVL302:
 3613              		.loc 1 384 0
 3614 04a8 4046     		mov	r0, r8
 3615 04aa 2946     		mov	r1, r5
 3616 04ac FFF7FEFF 		bl	TIM_CtrlPWMOutputs
 3617              	.LVL303:
 3618              		.loc 1 387 0
 3619 04b0 3846     		mov	r0, r7
 3620 04b2 2021     		movs	r1, #32
 3621 04b4 FFF7FEFF 		bl	TIM_SelectOutputTrigger
 3622              	.LVL304:
 3623              		.loc 1 388 0
 3624 04b8 3846     		mov	r0, r7
 3625 04ba 8021     		movs	r1, #128
 3626 04bc FFF7FEFF 		bl	TIM_SelectMasterSlaveMode
 3627              	.LVL305:
 3628              		.loc 1 389 0
 3629 04c0 4046     		mov	r0, r8
 3630 04c2 2146     		mov	r1, r4
 3631 04c4 FFF7FEFF 		bl	TIM_SelectInputTrigger
 3632              	.LVL306:
 3633              		.loc 1 390 0
 3634 04c8 4046     		mov	r0, r8
 3635 04ca 4946     		mov	r1, r9
 3636 04cc FFF7FEFF 		bl	TIM_SelectSlaveMode
 3637              	.LVL307:
 3638              		.loc 1 393 0
 3639 04d0 3846     		mov	r0, r7
 3640 04d2 2946     		mov	r1, r5
 3641 04d4 FFF7FEFF 		bl	TIM_Cmd
 3642              	.LVL308:
 3643              		.loc 1 394 0
 3644 04d8 4046     		mov	r0, r8
 3645 04da 2946     		mov	r1, r5
 3646 04dc FFF7FEFF 		bl	TIM_Cmd
 3647              	.LVL309:
 3648              		.loc 1 397 0
ARM GAS  /tmp/ccDJsI0n.s 			page 65


 3649 04e0 3846     		mov	r0, r7
 3650 04e2 2946     		mov	r1, r5
 3651 04e4 FFF7FEFF 		bl	TIM_CtrlPWMOutputs
 3652              	.LVL310:
 3653              		.loc 1 400 0
 3654 04e8 2846     		mov	r0, r5
 3655 04ea 2946     		mov	r1, r5
 3656 04ec FFF7FEFF 		bl	RCC_APB1PeriphClockCmd
 3657              	.LVL311:
 3658              		.loc 1 404 0
 3659 04f0 4FF0FF32 		mov	r2, #-1
 3660              		.loc 1 405 0
 3661 04f4 5323     		movs	r3, #83
 3662              		.loc 1 408 0
 3663 04f6 05A9     		add	r1, sp, #20
 3664 04f8 4FF08040 		mov	r0, #1073741824
 3665              		.loc 1 404 0
 3666 04fc 0692     		str	r2, [sp, #24]
 3667              		.loc 1 405 0
 3668 04fe ADF81430 		strh	r3, [sp, #20]	@ movhi
 3669              		.loc 1 406 0
 3670 0502 ADF81C40 		strh	r4, [sp, #28]	@ movhi
 3671              		.loc 1 407 0
 3672 0506 ADF81640 		strh	r4, [sp, #22]	@ movhi
 3673              		.loc 1 408 0
 3674 050a FFF7FEFF 		bl	TIM_TimeBaseInit
 3675              	.LVL312:
 3676              		.loc 1 411 0
 3677 050e 2946     		mov	r1, r5
 3678 0510 4FF08040 		mov	r0, #1073741824
 3679 0514 FFF7FEFF 		bl	TIM_Cmd
 3680              	.LVL313:
 3681              		.loc 1 414 0
 3682 0518 FFF7FEFF 		bl	stop_pwm_hw
 3683              	.LVL314:
 3684              		.loc 1 416 0
 3685 051c FB6A     		ldr	r3, [r7, #44]
 3686 051e 1C93     		str	r3, [sp, #112]
 3687              		.loc 1 417 0
 3688 0520 FB6A     		ldr	r3, [r7, #44]
 3689              		.loc 1 418 0
 3690 0522 1BA8     		add	r0, sp, #108
 3691              		.loc 1 417 0
 3692 0524 EB40     		lsrs	r3, r3, r5
 3693 0526 1D93     		str	r3, [sp, #116]
 3694              		.loc 1 418 0
 3695 0528 FFF7FEFF 		bl	update_adc_sample_pos
 3696              	.LVL315:
 3697              		.loc 1 419 0
 3698 052c 1BA8     		add	r0, sp, #108
 3699 052e FFF7FEFF 		bl	set_next_timer_settings
 3700              	.LVL316:
 3701              		.loc 1 421 0
 3702 0532 FFF7FEFF 		bl	utils_sys_unlock_cnt
 3703              	.LVL317:
 3704              		.loc 1 425 0
 3705 0536 394B     		ldr	r3, .L258+12
ARM GAS  /tmp/ccDJsI0n.s 			page 66


 3706              		.loc 1 424 0
 3707 0538 394A     		ldr	r2, .L258+16
 3708              		.loc 1 425 0
 3709 053a 4FF48051 		mov	r1, #4096
 3710              		.loc 1 424 0
 3711 053e 1683     		strh	r6, [r2, #24]	@ movhi
 3712              		.loc 1 425 0
 3713 0540 5983     		strh	r1, [r3, #26]	@ movhi
 3714              	.LBB110:
 3715              	.LBB111:
 3716              		.loc 1 513 0
 3717 0542 1983     		strh	r1, [r3, #24]	@ movhi
 3718              	.L249:
 3719              		.loc 1 514 0
 3720 0544 1369     		ldr	r3, [r2, #16]
 3721 0546 DB04     		lsls	r3, r3, #19
 3722 0548 FCD5     		bpl	.L249
 3723              		.loc 1 515 0
 3724 054a 42F21070 		movw	r0, #10000
 3725 054e FFF7FEFF 		bl	chThdSleep
 3726              	.LVL318:
 3727              		.loc 1 516 0
 3728 0552 344C     		ldr	r4, .L258+20
 3729              		.loc 1 517 0
 3730 0554 3448     		ldr	r0, .L258+24
 3731              		.loc 1 518 0
 3732 0556 3549     		ldr	r1, .L258+28
 3733              		.loc 1 516 0
 3734 0558 0023     		movs	r3, #0
 3735 055a 2360     		str	r3, [r4]
 3736              		.loc 1 517 0
 3737 055c 0360     		str	r3, [r0]
 3738              		.loc 1 518 0
 3739 055e 0B60     		str	r3, [r1]
 3740              	.L250:
 3741              		.loc 1 519 0
 3742 0560 0B68     		ldr	r3, [r1]
 3743 0562 324A     		ldr	r2, .L258+28
 3744 0564 B3F57A6F 		cmp	r3, #4000
 3745 0568 FADB     		blt	.L250
 3746              		.loc 1 520 0
 3747 056a 3149     		ldr	r1, .L258+32
 3748              		.loc 1 521 0
 3749 056c 314F     		ldr	r7, .L258+36
 3750              		.loc 1 520 0
 3751 056e 2368     		ldr	r3, [r4]
 3752              		.loc 1 522 0
 3753 0570 2A4E     		ldr	r6, .L258+12
 3754              		.loc 1 520 0
 3755 0572 1468     		ldr	r4, [r2]
 3756 0574 93FBF4F3 		sdiv	r3, r3, r4
 3757 0578 0B60     		str	r3, [r1]
 3758              		.loc 1 521 0
 3759 057a 0368     		ldr	r3, [r0]
 3760 057c 1268     		ldr	r2, [r2]
 3761 057e 93FBF2F3 		sdiv	r3, r3, r2
 3762              		.loc 1 523 0
ARM GAS  /tmp/ccDJsI0n.s 			page 67


 3763 0582 0125     		movs	r5, #1
 3764              		.loc 1 521 0
 3765 0584 3B60     		str	r3, [r7]
 3766              		.loc 1 522 0
 3767 0586 4FF48054 		mov	r4, #4096
 3768              		.loc 1 523 0
 3769 058a 2B4B     		ldr	r3, .L258+40
 3770              		.loc 1 522 0
 3771 058c 7483     		strh	r4, [r6, #26]	@ movhi
 3772              	.LBE111:
 3773              	.LBE110:
 3774              		.loc 1 429 0
 3775 058e 2946     		mov	r1, r5
 3776 0590 4020     		movs	r0, #64
 3777              		.loc 1 435 0
 3778 0592 0024     		movs	r4, #0
 3779              	.LBB113:
 3780              	.LBB112:
 3781              		.loc 1 523 0
 3782 0594 1D70     		strb	r5, [r3]
 3783              	.LBE112:
 3784              	.LBE113:
 3785              		.loc 1 429 0
 3786 0596 FFF7FEFF 		bl	RCC_APB1PeriphClockCmd
 3787              	.LVL319:
 3788              		.loc 1 433 0
 3789 059a 4FF0FF32 		mov	r2, #-1
 3790              		.loc 1 434 0
 3791 059e 0723     		movs	r3, #7
 3792              		.loc 1 437 0
 3793 05a0 05A9     		add	r1, sp, #20
 3794 05a2 2648     		ldr	r0, .L258+44
 3795              		.loc 1 433 0
 3796 05a4 0692     		str	r2, [sp, #24]
 3797              		.loc 1 434 0
 3798 05a6 ADF81430 		strh	r3, [sp, #20]	@ movhi
 3799              		.loc 1 435 0
 3800 05aa ADF81C40 		strh	r4, [sp, #28]	@ movhi
 3801              		.loc 1 436 0
 3802 05ae ADF81640 		strh	r4, [sp, #22]	@ movhi
 3803              		.loc 1 437 0
 3804 05b2 FFF7FEFF 		bl	TIM_TimeBaseInit
 3805              	.LVL320:
 3806              		.loc 1 439 0
 3807 05b6 2946     		mov	r1, r5
 3808 05b8 2048     		ldr	r0, .L258+44
 3809              		.loc 1 443 0
 3810 05ba 214E     		ldr	r6, .L258+48
 3811              		.loc 1 439 0
 3812 05bc FFF7FEFF 		bl	TIM_Cmd
 3813              	.LVL321:
 3814              		.loc 1 442 0
 3815 05c0 204A     		ldr	r2, .L258+52
 3816              		.loc 1 444 0
 3817 05c2 0094     		str	r4, [sp]
 3818 05c4 204B     		ldr	r3, .L258+56
 3819              		.loc 1 442 0
ARM GAS  /tmp/ccDJsI0n.s 			page 68


 3820 05c6 1470     		strb	r4, [r2]
 3821              		.loc 1 444 0
 3822 05c8 40F69811 		movw	r1, #2456
 3823 05cc 4022     		movs	r2, #64
 3824              		.loc 1 443 0
 3825 05ce 3470     		strb	r4, [r6]
 3826              		.loc 1 444 0
 3827 05d0 1E48     		ldr	r0, .L258+60
 3828 05d2 FFF7FEFF 		bl	chThdCreateStatic
 3829              	.LVL322:
 3830              		.loc 1 445 0
 3831 05d6 1E4B     		ldr	r3, .L258+64
 3832 05d8 0094     		str	r4, [sp]
 3833 05da 4022     		movs	r2, #64
 3834 05dc 4FF4B361 		mov	r1, #1432
 3835 05e0 1C48     		ldr	r0, .L258+68
 3836 05e2 FFF7FEFF 		bl	chThdCreateStatic
 3837              	.LVL323:
 3838              		.loc 1 448 0
 3839 05e6 2946     		mov	r1, r5
 3840 05e8 4FF40060 		mov	r0, #2048
 3841 05ec FFF7FEFF 		bl	RCC_APB1PeriphClockCmd
 3842              	.LVL324:
 3843              		.loc 1 449 0
 3844 05f0 2046     		mov	r0, r4
 3845 05f2 FFF7FEFF 		bl	WWDG_SetPrescaler
 3846              	.LVL325:
 3847              		.loc 1 450 0
 3848 05f6 FF20     		movs	r0, #255
 3849 05f8 FFF7FEFF 		bl	WWDG_SetWindowValue
 3850              	.LVL326:
 3851              		.loc 1 451 0
 3852 05fc 6420     		movs	r0, #100
 3853 05fe FFF7FEFF 		bl	WWDG_Enable
 3854              	.LVL327:
 3855              		.loc 1 454 0
 3856 0602 154B     		ldr	r3, .L258+72
 3857 0604 1C60     		str	r4, [r3]
 3858              		.loc 1 455 0
 3859 0606 154B     		ldr	r3, .L258+76
 3860 0608 1C60     		str	r4, [r3]
 3861              		.loc 1 456 0
 3862 060a 31B0     		add	sp, sp, #196
 3863              		.cfi_def_cfa_offset 36
 3864              		@ sp needed
 3865 060c BDE8F08F 		pop	{r4, r5, r6, r7, r8, r9, r10, fp, pc}
 3866              	.L259:
 3867              		.align	2
 3868              	.L258:
 3869 0610 00200140 		.word	1073815552
 3870 0614 00210140 		.word	1073815808
 3871 0618 00220140 		.word	1073816064
 3872 061c 00040240 		.word	1073873920
 3873 0620 00080240 		.word	1073874944
 3874 0624 00000000 		.word	.LANCHOR47
 3875 0628 00000000 		.word	.LANCHOR48
 3876 062c 00000000 		.word	.LANCHOR49
ARM GAS  /tmp/ccDJsI0n.s 			page 69


 3877 0630 00000000 		.word	.LANCHOR50
 3878 0634 00000000 		.word	.LANCHOR51
 3879 0638 00000000 		.word	.LANCHOR43
 3880 063c 00180040 		.word	1073747968
 3881 0640 00000000 		.word	.LANCHOR27
 3882 0644 00000000 		.word	.LANCHOR19
 3883 0648 00000000 		.word	timer_thread
 3884 064c 00000000 		.word	.LANCHOR52
 3885 0650 00000000 		.word	rpm_thread
 3886 0654 00000000 		.word	.LANCHOR53
 3887 0658 00000000 		.word	.LANCHOR9
 3888 065c 00000000 		.word	.LANCHOR8
 3889              		.cfi_endproc
 3890              	.LFE256:
 3891              		.size	mcpwm_init, .-mcpwm_init
 3892              		.section	.text.mcpwm_set_configuration,"ax",%progbits
 3893              		.align	2
 3894              		.p2align 4,,15
 3895              		.global	mcpwm_set_configuration
 3896              		.thumb
 3897              		.thumb_func
 3898              		.type	mcpwm_set_configuration, %function
 3899              	mcpwm_set_configuration:
 3900              	.LFB258:
 3901              		.loc 1 478 0
 3902              		.cfi_startproc
 3903              		@ args = 0, pretend = 0, frame = 0
 3904              		@ frame_needed = 0, uses_anonymous_args = 0
 3905              	.LVL328:
 3906 0000 70B5     		push	{r4, r5, r6, lr}
 3907              		.cfi_def_cfa_offset 16
 3908              		.cfi_offset 4, -16
 3909              		.cfi_offset 5, -12
 3910              		.cfi_offset 6, -8
 3911              		.cfi_offset 14, -4
 3912              	.LBB114:
 3913              	.LBB115:
 3914              		.loc 1 840 0
 3915 0002 0C49     		ldr	r1, .L262
 3916              		.loc 1 841 0
 3917 0004 0C4A     		ldr	r2, .L262+4
 3918              	.LBE115:
 3919              	.LBE114:
 3920              		.loc 1 480 0
 3921 0006 0D4D     		ldr	r5, .L262+8
 3922              	.LBB118:
 3923              	.LBB116:
 3924              		.loc 1 840 0
 3925 0008 0023     		movs	r3, #0
 3926              	.LBE116:
 3927              	.LBE118:
 3928              		.loc 1 480 0
 3929 000a 0526     		movs	r6, #5
 3930              		.loc 1 478 0
 3931 000c 0446     		mov	r4, r0
 3932              		.loc 1 480 0
 3933 000e 2E70     		strb	r6, [r5]
ARM GAS  /tmp/ccDJsI0n.s 			page 70


 3934              	.LBB119:
 3935              	.LBB117:
 3936              		.loc 1 840 0
 3937 0010 0B70     		strb	r3, [r1]
 3938              		.loc 1 841 0
 3939 0012 1360     		str	r3, [r2]
 3940              		.loc 1 842 0
 3941 0014 FFF7FEFF 		bl	stop_pwm_hw
 3942              	.LVL329:
 3943              	.LBE117:
 3944              	.LBE119:
 3945              		.loc 1 483 0
 3946 0018 FFF7FEFF 		bl	utils_sys_lock_cnt
 3947              	.LVL330:
 3948              		.loc 1 484 0
 3949 001c 084B     		ldr	r3, .L262+12
 3950              		.loc 1 485 0
 3951 001e 04F18000 		add	r0, r4, #128
 3952              		.loc 1 484 0
 3953 0022 1C60     		str	r4, [r3]
 3954              		.loc 1 485 0
 3955 0024 FFF7FEFF 		bl	mcpwm_init_hall_table
 3956              	.LVL331:
 3957              		.loc 1 486 0
 3958 0028 FFF7FEFF 		bl	update_sensor_mode
 3959              	.LVL332:
 3960              		.loc 1 488 0
 3961 002c BDE87040 		pop	{r4, r5, r6, lr}
 3962              		.cfi_restore 14
 3963              		.cfi_restore 6
 3964              		.cfi_restore 5
 3965              		.cfi_restore 4
 3966              		.cfi_def_cfa_offset 0
 3967              	.LVL333:
 3968              		.loc 1 487 0
 3969 0030 FFF7FEBF 		b	utils_sys_unlock_cnt
 3970              	.LVL334:
 3971              	.L263:
 3972              		.align	2
 3973              	.L262:
 3974 0034 00000000 		.word	.LANCHOR2
 3975 0038 00000000 		.word	.LANCHOR38
 3976 003c 00000000 		.word	.LANCHOR35
 3977 0040 00000000 		.word	.LANCHOR0
 3978              		.cfi_endproc
 3979              	.LFE258:
 3980              		.size	mcpwm_set_configuration, .-mcpwm_set_configuration
 3981              		.section	.text.mcpwm_set_pid_speed,"ax",%progbits
 3982              		.align	2
 3983              		.p2align 4,,15
 3984              		.global	mcpwm_set_pid_speed
 3985              		.thumb
 3986              		.thumb_func
 3987              		.type	mcpwm_set_pid_speed, %function
 3988              	mcpwm_set_pid_speed:
 3989              	.LFB263:
 3990              		.loc 1 567 0
ARM GAS  /tmp/ccDJsI0n.s 			page 71


 3991              		.cfi_startproc
 3992              		@ args = 0, pretend = 0, frame = 0
 3993              		@ frame_needed = 0, uses_anonymous_args = 0
 3994              		@ link register save eliminated.
 3995              	.LVL335:
 3996              		.loc 1 568 0
 3997 0000 034A     		ldr	r2, .L265
 3998              		.loc 1 569 0
 3999 0002 044B     		ldr	r3, .L265+4
 4000              		.loc 1 568 0
 4001 0004 0121     		movs	r1, #1
 4002 0006 1170     		strb	r1, [r2]
 4003              		.loc 1 569 0
 4004 0008 83ED000A 		fsts	s0, [r3]
 4005 000c 7047     		bx	lr
 4006              	.L266:
 4007 000e 00BF     		.align	2
 4008              	.L265:
 4009 0010 00000000 		.word	.LANCHOR35
 4010 0014 00000000 		.word	.LANCHOR32
 4011              		.cfi_endproc
 4012              	.LFE263:
 4013              		.size	mcpwm_set_pid_speed, .-mcpwm_set_pid_speed
 4014              		.section	.text.mcpwm_set_brake_current,"ax",%progbits
 4015              		.align	2
 4016              		.p2align 4,,15
 4017              		.global	mcpwm_set_brake_current
 4018              		.thumb
 4019              		.thumb_func
 4020              		.type	mcpwm_set_brake_current, %function
 4021              	mcpwm_set_brake_current:
 4022              	.LFB266:
 4023              		.loc 1 620 0
 4024              		.cfi_startproc
 4025              		@ args = 0, pretend = 0, frame = 8
 4026              		@ frame_needed = 0, uses_anonymous_args = 0
 4027              	.LVL336:
 4028 0000 30B5     		push	{r4, r5, lr}
 4029              		.cfi_def_cfa_offset 12
 4030              		.cfi_offset 4, -12
 4031              		.cfi_offset 5, -8
 4032              		.cfi_offset 14, -4
 4033              		.loc 1 621 0
 4034 0002 2E4C     		ldr	r4, .L292
 4035 0004 2368     		ldr	r3, [r4]
 4036 0006 D3ED447A 		flds	s15, [r3, #272]
 4037 000a B0EEC07A 		fabss	s14, s0
 4038 000e B4EEE77A 		fcmpes	s14, s15
 4039              		.loc 1 620 0
 4040 0012 83B0     		sub	sp, sp, #12
 4041              		.cfi_def_cfa_offset 24
 4042              		.loc 1 621 0
 4043 0014 F1EE10FA 		fmstat
 4044              		.loc 1 620 0
 4045 0018 8DED010A 		fsts	s0, [sp, #4]
 4046              		.loc 1 621 0
 4047 001c 2DD4     		bmi	.L290
ARM GAS  /tmp/ccDJsI0n.s 			page 72


 4048              		.loc 1 627 0
 4049 001e 93ED160A 		flds	s0, [r3, #88]
 4050              	.LVL337:
 4051 0022 D3ED160A 		flds	s1, [r3, #88]
 4052              		.loc 1 629 0
 4053 0026 264D     		ldr	r5, .L292+4
 4054              		.loc 1 627 0
 4055 0028 B0EEC00A 		fabss	s0, s0
 4056 002c B1EE400A 		fnegs	s0, s0
 4057 0030 F0EEE00A 		fabss	s1, s1
 4058 0034 01A8     		add	r0, sp, #4
 4059              	.LVL338:
 4060 0036 FFF7FEFF 		bl	utils_truncate_number
 4061              	.LVL339:
 4062              		.loc 1 630 0
 4063 003a 2249     		ldr	r1, .L292+8
 4064 003c 0198     		ldr	r0, [sp, #4]	@ float
 4065              		.loc 1 632 0
 4066 003e 224B     		ldr	r3, .L292+12
 4067              		.loc 1 629 0
 4068 0040 0322     		movs	r2, #3
 4069 0042 2A70     		strb	r2, [r5]
 4070              		.loc 1 630 0
 4071 0044 0860     		str	r0, [r1]	@ float
 4072              		.loc 1 632 0
 4073 0046 1978     		ldrb	r1, [r3]	@ zero_extendqisi2
 4074 0048 0229     		cmp	r1, #2
 4075 004a 14D0     		beq	.L267
 4076              		.loc 1 632 0 is_stmt 0 discriminator 1
 4077 004c 1978     		ldrb	r1, [r3]	@ zero_extendqisi2
 4078 004e 9142     		cmp	r1, r2
 4079 0050 11D0     		beq	.L267
 4080              		.loc 1 635 0 is_stmt 1
 4081 0052 2168     		ldr	r1, [r4]
 4082 0054 8878     		ldrb	r0, [r1, #2]	@ zero_extendqisi2
 4083 0056 0128     		cmp	r0, #1
 4084 0058 1BD0     		beq	.L291
 4085              		.loc 1 642 0
 4086 005a 1C48     		ldr	r0, .L292+16
 4087 005c D0ED007A 		flds	s15, [r0]
 4088 0060 91ED087A 		flds	s14, [r1, #32]
 4089 0064 F0EEE77A 		fabss	s15, s15
 4090 0068 F4EEC77A 		fcmpes	s15, s14
 4091 006c F1EE10FA 		fmstat
 4092 0070 1BDD     		ble	.L287
 4093              	.L289:
 4094              		.loc 1 643 0
 4095 0072 0222     		movs	r2, #2
 4096 0074 1A70     		strb	r2, [r3]
 4097              	.L267:
 4098              		.loc 1 649 0
 4099 0076 03B0     		add	sp, sp, #12
 4100              		.cfi_remember_state
 4101              		.cfi_def_cfa_offset 12
 4102              		@ sp needed
 4103 0078 30BD     		pop	{r4, r5, pc}
 4104              	.LVL340:
ARM GAS  /tmp/ccDJsI0n.s 			page 73


 4105              	.L290:
 4106              		.cfi_restore_state
 4107              		.loc 1 622 0
 4108 007a 1148     		ldr	r0, .L292+4
 4109              	.LBB120:
 4110              	.LBB121:
 4111              		.loc 1 840 0
 4112 007c 1249     		ldr	r1, .L292+12
 4113              		.loc 1 841 0
 4114 007e 144A     		ldr	r2, .L292+20
 4115              		.loc 1 840 0
 4116 0080 0023     		movs	r3, #0
 4117              	.LBE121:
 4118              	.LBE120:
 4119              		.loc 1 622 0
 4120 0082 0524     		movs	r4, #5
 4121 0084 0470     		strb	r4, [r0]
 4122              	.LBB123:
 4123              	.LBB122:
 4124              		.loc 1 840 0
 4125 0086 0B70     		strb	r3, [r1]
 4126              		.loc 1 841 0
 4127 0088 1360     		str	r3, [r2]
 4128              		.loc 1 842 0
 4129 008a FFF7FEFF 		bl	stop_pwm_hw
 4130              	.LVL341:
 4131              	.LBE122:
 4132              	.LBE123:
 4133              		.loc 1 649 0
 4134 008e 03B0     		add	sp, sp, #12
 4135              		.cfi_remember_state
 4136              		.cfi_def_cfa_offset 12
 4137              		@ sp needed
 4138 0090 30BD     		pop	{r4, r5, pc}
 4139              	.LVL342:
 4140              	.L291:
 4141              		.cfi_restore_state
 4142              		.loc 1 636 0
 4143 0092 1049     		ldr	r1, .L292+24
 4144 0094 9FED107A 		flds	s14, .L292+28
 4145 0098 D1ED007A 		flds	s15, [r1]
 4146 009c F0EEE77A 		fabss	s15, s15
 4147 00a0 F4EEC77A 		fcmpes	s15, s14
 4148 00a4 F1EE10FA 		fmstat
 4149 00a8 E3DC     		bgt	.L289
 4150              	.L287:
 4151              	.LBB124:
 4152              	.LBB125:
 4153              		.loc 1 865 0
 4154 00aa 0949     		ldr	r1, .L292+20
 4155              		.loc 1 864 0
 4156 00ac 1A70     		strb	r2, [r3]
 4157              		.loc 1 865 0
 4158 00ae 0023     		movs	r3, #0
 4159 00b0 0B60     		str	r3, [r1]
 4160              		.loc 1 866 0
 4161 00b2 FFF7FEFF 		bl	full_brake_hw
ARM GAS  /tmp/ccDJsI0n.s 			page 74


 4162              	.LVL343:
 4163              	.LBE125:
 4164              	.LBE124:
 4165              		.loc 1 649 0
 4166 00b6 03B0     		add	sp, sp, #12
 4167              		.cfi_def_cfa_offset 12
 4168              		@ sp needed
 4169 00b8 30BD     		pop	{r4, r5, pc}
 4170              	.LVL344:
 4171              	.L293:
 4172 00ba 00BF     		.align	2
 4173              	.L292:
 4174 00bc 00000000 		.word	.LANCHOR0
 4175 00c0 00000000 		.word	.LANCHOR35
 4176 00c4 00000000 		.word	.LANCHOR34
 4177 00c8 00000000 		.word	.LANCHOR2
 4178 00cc 00000000 		.word	.LANCHOR10
 4179 00d0 00000000 		.word	.LANCHOR38
 4180 00d4 00000000 		.word	.LANCHOR23
 4181 00d8 CDCCCC3D 		.word	1036831949
 4182              		.cfi_endproc
 4183              	.LFE266:
 4184              		.size	mcpwm_set_brake_current, .-mcpwm_set_brake_current
 4185              		.section	.text.mcpwm_get_comm_step,"ax",%progbits
 4186              		.align	2
 4187              		.p2align 4,,15
 4188              		.global	mcpwm_get_comm_step
 4189              		.thumb
 4190              		.thumb_func
 4191              		.type	mcpwm_get_comm_step, %function
 4192              	mcpwm_get_comm_step:
 4193              	.LFB267:
 4194              		.loc 1 657 0
 4195              		.cfi_startproc
 4196              		@ args = 0, pretend = 0, frame = 0
 4197              		@ frame_needed = 0, uses_anonymous_args = 0
 4198              		@ link register save eliminated.
 4199              		.loc 1 658 0
 4200 0000 014B     		ldr	r3, .L295
 4201 0002 1868     		ldr	r0, [r3]
 4202              		.loc 1 659 0
 4203 0004 7047     		bx	lr
 4204              	.L296:
 4205 0006 00BF     		.align	2
 4206              	.L295:
 4207 0008 00000000 		.word	.LANCHOR3
 4208              		.cfi_endproc
 4209              	.LFE267:
 4210              		.size	mcpwm_get_comm_step, .-mcpwm_get_comm_step
 4211              		.section	.text.mcpwm_get_duty_cycle_set,"ax",%progbits
 4212              		.align	2
 4213              		.p2align 4,,15
 4214              		.global	mcpwm_get_duty_cycle_set
 4215              		.thumb
 4216              		.thumb_func
 4217              		.type	mcpwm_get_duty_cycle_set, %function
 4218              	mcpwm_get_duty_cycle_set:
ARM GAS  /tmp/ccDJsI0n.s 			page 75


 4219              	.LFB268:
 4220              		.loc 1 661 0
 4221              		.cfi_startproc
 4222              		@ args = 0, pretend = 0, frame = 0
 4223              		@ frame_needed = 0, uses_anonymous_args = 0
 4224              		@ link register save eliminated.
 4225              		.loc 1 662 0
 4226 0000 014B     		ldr	r3, .L298
 4227 0002 93ED000A 		flds	s0, [r3]
 4228              		.loc 1 663 0
 4229 0006 7047     		bx	lr
 4230              	.L299:
 4231              		.align	2
 4232              	.L298:
 4233 0008 00000000 		.word	.LANCHOR31
 4234              		.cfi_endproc
 4235              	.LFE268:
 4236              		.size	mcpwm_get_duty_cycle_set, .-mcpwm_get_duty_cycle_set
 4237              		.section	.text.mcpwm_get_duty_cycle_now,"ax",%progbits
 4238              		.align	2
 4239              		.p2align 4,,15
 4240              		.global	mcpwm_get_duty_cycle_now
 4241              		.thumb
 4242              		.thumb_func
 4243              		.type	mcpwm_get_duty_cycle_now, %function
 4244              	mcpwm_get_duty_cycle_now:
 4245              	.LFB269:
 4246              		.loc 1 665 0
 4247              		.cfi_startproc
 4248              		@ args = 0, pretend = 0, frame = 0
 4249              		@ frame_needed = 0, uses_anonymous_args = 0
 4250              		@ link register save eliminated.
 4251              		.loc 1 666 0
 4252 0000 014B     		ldr	r3, .L301
 4253 0002 93ED000A 		flds	s0, [r3]
 4254              		.loc 1 667 0
 4255 0006 7047     		bx	lr
 4256              	.L302:
 4257              		.align	2
 4258              	.L301:
 4259 0008 00000000 		.word	.LANCHOR23
 4260              		.cfi_endproc
 4261              	.LFE269:
 4262              		.size	mcpwm_get_duty_cycle_now, .-mcpwm_get_duty_cycle_now
 4263              		.section	.text.mcpwm_get_switching_frequency_now,"ax",%progbits
 4264              		.align	2
 4265              		.p2align 4,,15
 4266              		.global	mcpwm_get_switching_frequency_now
 4267              		.thumb
 4268              		.thumb_func
 4269              		.type	mcpwm_get_switching_frequency_now, %function
 4270              	mcpwm_get_switching_frequency_now:
 4271              	.LFB270:
 4272              		.loc 1 675 0
 4273              		.cfi_startproc
 4274              		@ args = 0, pretend = 0, frame = 0
 4275              		@ frame_needed = 0, uses_anonymous_args = 0
ARM GAS  /tmp/ccDJsI0n.s 			page 76


 4276              		@ link register save eliminated.
 4277              		.loc 1 676 0
 4278 0000 014B     		ldr	r3, .L304
 4279 0002 93ED000A 		flds	s0, [r3]
 4280              		.loc 1 677 0
 4281 0006 7047     		bx	lr
 4282              	.L305:
 4283              		.align	2
 4284              	.L304:
 4285 0008 00000000 		.word	.LANCHOR13
 4286              		.cfi_endproc
 4287              	.LFE270:
 4288              		.size	mcpwm_get_switching_frequency_now, .-mcpwm_get_switching_frequency_now
 4289              		.section	.text.mcpwm_get_rpm,"ax",%progbits
 4290              		.align	2
 4291              		.p2align 4,,15
 4292              		.global	mcpwm_get_rpm
 4293              		.thumb
 4294              		.thumb_func
 4295              		.type	mcpwm_get_rpm, %function
 4296              	mcpwm_get_rpm:
 4297              	.LFB271:
 4298              		.loc 1 687 0
 4299              		.cfi_startproc
 4300              		@ args = 0, pretend = 0, frame = 0
 4301              		@ frame_needed = 0, uses_anonymous_args = 0
 4302              		@ link register save eliminated.
 4303              		.loc 1 688 0
 4304 0000 064B     		ldr	r3, .L310
 4305 0002 1B68     		ldr	r3, [r3]
 4306 0004 1BB1     		cbz	r3, .L309
 4307              		.loc 1 688 0 is_stmt 0 discriminator 2
 4308 0006 064B     		ldr	r3, .L310+4
 4309 0008 93ED000A 		flds	s0, [r3]
 4310              		.loc 1 689 0 is_stmt 1 discriminator 2
 4311 000c 7047     		bx	lr
 4312              	.L309:
 4313              		.loc 1 688 0 discriminator 1
 4314 000e 044B     		ldr	r3, .L310+4
 4315 0010 93ED000A 		flds	s0, [r3]
 4316 0014 B1EE400A 		fnegs	s0, s0
 4317 0018 7047     		bx	lr
 4318              	.L311:
 4319 001a 00BF     		.align	2
 4320              	.L310:
 4321 001c 00000000 		.word	.LANCHOR4
 4322 0020 00000000 		.word	.LANCHOR10
 4323              		.cfi_endproc
 4324              	.LFE271:
 4325              		.size	mcpwm_get_rpm, .-mcpwm_get_rpm
 4326              		.section	.text.mcpwm_get_state,"ax",%progbits
 4327              		.align	2
 4328              		.p2align 4,,15
 4329              		.global	mcpwm_get_state
 4330              		.thumb
 4331              		.thumb_func
 4332              		.type	mcpwm_get_state, %function
ARM GAS  /tmp/ccDJsI0n.s 			page 77


 4333              	mcpwm_get_state:
 4334              	.LFB272:
 4335              		.loc 1 691 0
 4336              		.cfi_startproc
 4337              		@ args = 0, pretend = 0, frame = 0
 4338              		@ frame_needed = 0, uses_anonymous_args = 0
 4339              		@ link register save eliminated.
 4340              		.loc 1 692 0
 4341 0000 014B     		ldr	r3, .L313
 4342 0002 1878     		ldrb	r0, [r3]	@ zero_extendqisi2
 4343              		.loc 1 693 0
 4344 0004 7047     		bx	lr
 4345              	.L314:
 4346 0006 00BF     		.align	2
 4347              	.L313:
 4348 0008 00000000 		.word	.LANCHOR2
 4349              		.cfi_endproc
 4350              	.LFE272:
 4351              		.size	mcpwm_get_state, .-mcpwm_get_state
 4352              		.section	.text.mcpwm_get_kv,"ax",%progbits
 4353              		.align	2
 4354              		.p2align 4,,15
 4355              		.global	mcpwm_get_kv
 4356              		.thumb
 4357              		.thumb_func
 4358              		.type	mcpwm_get_kv, %function
 4359              	mcpwm_get_kv:
 4360              	.LFB273:
 4361              		.loc 1 703 0
 4362              		.cfi_startproc
 4363              		@ args = 0, pretend = 0, frame = 0
 4364              		@ frame_needed = 0, uses_anonymous_args = 0
 4365              		@ link register save eliminated.
 4366              		.loc 1 704 0
 4367 0000 0D4A     		ldr	r2, .L316
 4368 0002 0E4B     		ldr	r3, .L316+4
 4369 0004 92ED000A 		flds	s0, [r2]
 4370 0008 1B8A     		ldrh	r3, [r3, #16]
 4371 000a 9FED0D6A 		flds	s12, .L316+8
 4372 000e 0D4A     		ldr	r2, .L316+12
 4373 0010 DFED0D7A 		flds	s15, .L316+16
 4374 0014 D2ED006A 		flds	s13, [r2]
 4375 0018 9BB2     		uxth	r3, r3
 4376 001a 07EE103A 		fmsr	s14, r3	@ int
 4377 001e B8EE477A 		fuitos	s14, s14
 4378 0022 F0EEE66A 		fabss	s13, s13
 4379 0026 27EE067A 		fmuls	s14, s14, s12
 4380 002a 67EE277A 		fmuls	s15, s14, s15
 4381 002e 67EEA67A 		fmuls	s15, s15, s13
 4382              		.loc 1 705 0
 4383 0032 80EE270A 		fdivs	s0, s0, s15
 4384 0036 7047     		bx	lr
 4385              	.L317:
 4386              		.align	2
 4387              	.L316:
 4388 0038 00000000 		.word	.LANCHOR10
 4389 003c 00000000 		.word	ADC_Value
ARM GAS  /tmp/ccDJsI0n.s 			page 78


 4390 0040 6740533A 		.word	978534503
 4391 0044 00000000 		.word	.LANCHOR23
 4392 0048 74D19541 		.word	1100337524
 4393              		.cfi_endproc
 4394              	.LFE273:
 4395              		.size	mcpwm_get_kv, .-mcpwm_get_kv
 4396              		.section	.text.mcpwm_get_kv_filtered,"ax",%progbits
 4397              		.align	2
 4398              		.p2align 4,,15
 4399              		.global	mcpwm_get_kv_filtered
 4400              		.thumb
 4401              		.thumb_func
 4402              		.type	mcpwm_get_kv_filtered, %function
 4403              	mcpwm_get_kv_filtered:
 4404              	.LFB274:
 4405              		.loc 1 715 0
 4406              		.cfi_startproc
 4407              		@ args = 0, pretend = 0, frame = 0
 4408              		@ frame_needed = 0, uses_anonymous_args = 0
 4409              		@ link register save eliminated.
 4410              		.loc 1 716 0
 4411 0000 034B     		ldr	r3, .L319
 4412 0002 0448     		ldr	r0, .L319+4
 4413 0004 1B68     		ldr	r3, [r3]
 4414 0006 0449     		ldr	r1, .L319+8
 4415 0008 0722     		movs	r2, #7
 4416 000a FFF7FEBF 		b	filter_run_fir_iteration
 4417              	.LVL345:
 4418              	.L320:
 4419 000e 00BF     		.align	2
 4420              	.L319:
 4421 0010 00000000 		.word	.LANCHOR26
 4422 0014 00000000 		.word	.LANCHOR25
 4423 0018 00000000 		.word	.LANCHOR45
 4424              		.cfi_endproc
 4425              	.LFE274:
 4426              		.size	mcpwm_get_kv_filtered, .-mcpwm_get_kv_filtered
 4427              		.section	.text.mcpwm_get_tot_current,"ax",%progbits
 4428              		.align	2
 4429              		.p2align 4,,15
 4430              		.global	mcpwm_get_tot_current
 4431              		.thumb
 4432              		.thumb_func
 4433              		.type	mcpwm_get_tot_current, %function
 4434              	mcpwm_get_tot_current:
 4435              	.LFB275:
 4436              		.loc 1 730 0
 4437              		.cfi_startproc
 4438              		@ args = 0, pretend = 0, frame = 0
 4439              		@ frame_needed = 0, uses_anonymous_args = 0
 4440              		@ link register save eliminated.
 4441              		.loc 1 731 0
 4442 0000 014B     		ldr	r3, .L322
 4443 0002 93ED000A 		flds	s0, [r3]
 4444              		.loc 1 732 0
 4445 0006 7047     		bx	lr
 4446              	.L323:
ARM GAS  /tmp/ccDJsI0n.s 			page 79


 4447              		.align	2
 4448              	.L322:
 4449 0008 00000000 		.word	.LANCHOR36
 4450              		.cfi_endproc
 4451              	.LFE275:
 4452              		.size	mcpwm_get_tot_current, .-mcpwm_get_tot_current
 4453              		.section	.text.mcpwm_get_tot_current_filtered,"ax",%progbits
 4454              		.align	2
 4455              		.p2align 4,,15
 4456              		.global	mcpwm_get_tot_current_filtered
 4457              		.thumb
 4458              		.thumb_func
 4459              		.type	mcpwm_get_tot_current_filtered, %function
 4460              	mcpwm_get_tot_current_filtered:
 4461              	.LFB276:
 4462              		.loc 1 742 0
 4463              		.cfi_startproc
 4464              		@ args = 0, pretend = 0, frame = 0
 4465              		@ frame_needed = 0, uses_anonymous_args = 0
 4466              		@ link register save eliminated.
 4467              		.loc 1 743 0
 4468 0000 014B     		ldr	r3, .L325
 4469 0002 93ED000A 		flds	s0, [r3]
 4470              		.loc 1 744 0
 4471 0006 7047     		bx	lr
 4472              	.L326:
 4473              		.align	2
 4474              	.L325:
 4475 0008 00000000 		.word	.LANCHOR37
 4476              		.cfi_endproc
 4477              	.LFE276:
 4478              		.size	mcpwm_get_tot_current_filtered, .-mcpwm_get_tot_current_filtered
 4479              		.section	.text.mcpwm_get_tot_current_directional,"ax",%progbits
 4480              		.align	2
 4481              		.p2align 4,,15
 4482              		.global	mcpwm_get_tot_current_directional
 4483              		.thumb
 4484              		.thumb_func
 4485              		.type	mcpwm_get_tot_current_directional, %function
 4486              	mcpwm_get_tot_current_directional:
 4487              	.LFB277:
 4488              		.loc 1 753 0
 4489              		.cfi_startproc
 4490              		@ args = 0, pretend = 0, frame = 0
 4491              		@ frame_needed = 0, uses_anonymous_args = 0
 4492              		@ link register save eliminated.
 4493              	.LBB126:
 4494              	.LBB127:
 4495              		.loc 1 731 0
 4496 0000 064A     		ldr	r2, .L330
 4497              	.LBE127:
 4498              	.LBE126:
 4499              		.loc 1 755 0
 4500 0002 074B     		ldr	r3, .L330+4
 4501              	.LBB129:
 4502              	.LBB128:
 4503              		.loc 1 731 0
ARM GAS  /tmp/ccDJsI0n.s 			page 80


 4504 0004 92ED000A 		flds	s0, [r2]
 4505              	.LBE128:
 4506              	.LBE129:
 4507              		.loc 1 755 0
 4508 0008 D3ED007A 		flds	s15, [r3]
 4509 000c F5EEC07A 		fcmpezs	s15
 4510 0010 F1EE10FA 		fmstat
 4511 0014 D8BF     		it	le
 4512 0016 B1EE400A 		fnegsle	s0, s0
 4513              		.loc 1 756 0
 4514 001a 7047     		bx	lr
 4515              	.L331:
 4516              		.align	2
 4517              	.L330:
 4518 001c 00000000 		.word	.LANCHOR36
 4519 0020 00000000 		.word	.LANCHOR23
 4520              		.cfi_endproc
 4521              	.LFE277:
 4522              		.size	mcpwm_get_tot_current_directional, .-mcpwm_get_tot_current_directional
 4523              		.section	.text.mcpwm_get_tot_current_directional_filtered,"ax",%progbits
 4524              		.align	2
 4525              		.p2align 4,,15
 4526              		.global	mcpwm_get_tot_current_directional_filtered
 4527              		.thumb
 4528              		.thumb_func
 4529              		.type	mcpwm_get_tot_current_directional_filtered, %function
 4530              	mcpwm_get_tot_current_directional_filtered:
 4531              	.LFB278:
 4532              		.loc 1 765 0
 4533              		.cfi_startproc
 4534              		@ args = 0, pretend = 0, frame = 0
 4535              		@ frame_needed = 0, uses_anonymous_args = 0
 4536              		@ link register save eliminated.
 4537              	.LBB130:
 4538              	.LBB131:
 4539              		.loc 1 743 0
 4540 0000 064A     		ldr	r2, .L335
 4541              	.LBE131:
 4542              	.LBE130:
 4543              		.loc 1 767 0
 4544 0002 074B     		ldr	r3, .L335+4
 4545              	.LBB133:
 4546              	.LBB132:
 4547              		.loc 1 743 0
 4548 0004 92ED000A 		flds	s0, [r2]
 4549              	.LBE132:
 4550              	.LBE133:
 4551              		.loc 1 767 0
 4552 0008 D3ED007A 		flds	s15, [r3]
 4553 000c F5EEC07A 		fcmpezs	s15
 4554 0010 F1EE10FA 		fmstat
 4555 0014 D8BF     		it	le
 4556 0016 B1EE400A 		fnegsle	s0, s0
 4557              		.loc 1 768 0
 4558 001a 7047     		bx	lr
 4559              	.L336:
 4560              		.align	2
ARM GAS  /tmp/ccDJsI0n.s 			page 81


 4561              	.L335:
 4562 001c 00000000 		.word	.LANCHOR37
 4563 0020 00000000 		.word	.LANCHOR23
 4564              		.cfi_endproc
 4565              	.LFE278:
 4566              		.size	mcpwm_get_tot_current_directional_filtered, .-mcpwm_get_tot_current_directional_filtered
 4567              		.section	.text.mcpwm_get_tot_current_in,"ax",%progbits
 4568              		.align	2
 4569              		.p2align 4,,15
 4570              		.global	mcpwm_get_tot_current_in
 4571              		.thumb
 4572              		.thumb_func
 4573              		.type	mcpwm_get_tot_current_in, %function
 4574              	mcpwm_get_tot_current_in:
 4575              	.LFB279:
 4576              		.loc 1 776 0
 4577              		.cfi_startproc
 4578              		@ args = 0, pretend = 0, frame = 0
 4579              		@ frame_needed = 0, uses_anonymous_args = 0
 4580              		@ link register save eliminated.
 4581              	.LBB134:
 4582              	.LBB135:
 4583              		.loc 1 731 0
 4584 0000 054A     		ldr	r2, .L338
 4585              	.LBE135:
 4586              	.LBE134:
 4587              		.loc 1 777 0
 4588 0002 064B     		ldr	r3, .L338+4
 4589              	.LBB137:
 4590              	.LBB136:
 4591              		.loc 1 731 0
 4592 0004 92ED000A 		flds	s0, [r2]
 4593              	.LBE136:
 4594              	.LBE137:
 4595              		.loc 1 777 0
 4596 0008 D3ED007A 		flds	s15, [r3]
 4597 000c F0EEE77A 		fabss	s15, s15
 4598              		.loc 1 778 0
 4599 0010 27EE800A 		fmuls	s0, s15, s0
 4600 0014 7047     		bx	lr
 4601              	.L339:
 4602 0016 00BF     		.align	2
 4603              	.L338:
 4604 0018 00000000 		.word	.LANCHOR36
 4605 001c 00000000 		.word	.LANCHOR23
 4606              		.cfi_endproc
 4607              	.LFE279:
 4608              		.size	mcpwm_get_tot_current_in, .-mcpwm_get_tot_current_in
 4609              		.section	.text.mcpwm_get_tot_current_in_filtered,"ax",%progbits
 4610              		.align	2
 4611              		.p2align 4,,15
 4612              		.global	mcpwm_get_tot_current_in_filtered
 4613              		.thumb
 4614              		.thumb_func
 4615              		.type	mcpwm_get_tot_current_in_filtered, %function
 4616              	mcpwm_get_tot_current_in_filtered:
 4617              	.LFB280:
ARM GAS  /tmp/ccDJsI0n.s 			page 82


 4618              		.loc 1 786 0
 4619              		.cfi_startproc
 4620              		@ args = 0, pretend = 0, frame = 0
 4621              		@ frame_needed = 0, uses_anonymous_args = 0
 4622              		@ link register save eliminated.
 4623              	.LBB138:
 4624              	.LBB139:
 4625              		.loc 1 743 0
 4626 0000 054A     		ldr	r2, .L341
 4627              	.LBE139:
 4628              	.LBE138:
 4629              		.loc 1 787 0
 4630 0002 064B     		ldr	r3, .L341+4
 4631              	.LBB141:
 4632              	.LBB140:
 4633              		.loc 1 743 0
 4634 0004 92ED000A 		flds	s0, [r2]
 4635              	.LBE140:
 4636              	.LBE141:
 4637              		.loc 1 787 0
 4638 0008 D3ED007A 		flds	s15, [r3]
 4639 000c F0EEE77A 		fabss	s15, s15
 4640              		.loc 1 788 0
 4641 0010 27EE800A 		fmuls	s0, s15, s0
 4642 0014 7047     		bx	lr
 4643              	.L342:
 4644 0016 00BF     		.align	2
 4645              	.L341:
 4646 0018 00000000 		.word	.LANCHOR37
 4647 001c 00000000 		.word	.LANCHOR23
 4648              		.cfi_endproc
 4649              	.LFE280:
 4650              		.size	mcpwm_get_tot_current_in_filtered, .-mcpwm_get_tot_current_in_filtered
 4651              		.section	.text.mcpwm_get_tachometer_value,"ax",%progbits
 4652              		.align	2
 4653              		.p2align 4,,15
 4654              		.global	mcpwm_get_tachometer_value
 4655              		.thumb
 4656              		.thumb_func
 4657              		.type	mcpwm_get_tachometer_value, %function
 4658              	mcpwm_get_tachometer_value:
 4659              	.LFB281:
 4660              		.loc 1 801 0
 4661              		.cfi_startproc
 4662              		@ args = 0, pretend = 0, frame = 0
 4663              		@ frame_needed = 0, uses_anonymous_args = 0
 4664              		@ link register save eliminated.
 4665              	.LVL346:
 4666              		.loc 1 802 0
 4667 0000 034B     		ldr	r3, .L348
 4668 0002 1A68     		ldr	r2, [r3]
 4669              	.LVL347:
 4670              		.loc 1 804 0
 4671 0004 08B1     		cbz	r0, .L344
 4672              		.loc 1 805 0
 4673 0006 0021     		movs	r1, #0
 4674 0008 1960     		str	r1, [r3]
ARM GAS  /tmp/ccDJsI0n.s 			page 83


 4675              	.L344:
 4676              		.loc 1 809 0
 4677 000a 1046     		mov	r0, r2
 4678              	.LVL348:
 4679 000c 7047     		bx	lr
 4680              	.L349:
 4681 000e 00BF     		.align	2
 4682              	.L348:
 4683 0010 00000000 		.word	.LANCHOR9
 4684              		.cfi_endproc
 4685              	.LFE281:
 4686              		.size	mcpwm_get_tachometer_value, .-mcpwm_get_tachometer_value
 4687              		.section	.text.mcpwm_get_tachometer_abs_value,"ax",%progbits
 4688              		.align	2
 4689              		.p2align 4,,15
 4690              		.global	mcpwm_get_tachometer_abs_value
 4691              		.thumb
 4692              		.thumb_func
 4693              		.type	mcpwm_get_tachometer_abs_value, %function
 4694              	mcpwm_get_tachometer_abs_value:
 4695              	.LFB282:
 4696              		.loc 1 821 0
 4697              		.cfi_startproc
 4698              		@ args = 0, pretend = 0, frame = 0
 4699              		@ frame_needed = 0, uses_anonymous_args = 0
 4700              		@ link register save eliminated.
 4701              	.LVL349:
 4702              		.loc 1 822 0
 4703 0000 034B     		ldr	r3, .L355
 4704 0002 1A68     		ldr	r2, [r3]
 4705              	.LVL350:
 4706              		.loc 1 824 0
 4707 0004 08B1     		cbz	r0, .L351
 4708              		.loc 1 825 0
 4709 0006 0021     		movs	r1, #0
 4710 0008 1960     		str	r1, [r3]
 4711              	.L351:
 4712              		.loc 1 829 0
 4713 000a 1046     		mov	r0, r2
 4714              	.LVL351:
 4715 000c 7047     		bx	lr
 4716              	.L356:
 4717 000e 00BF     		.align	2
 4718              	.L355:
 4719 0010 00000000 		.word	.LANCHOR8
 4720              		.cfi_endproc
 4721              	.LFE282:
 4722              		.size	mcpwm_get_tachometer_abs_value, .-mcpwm_get_tachometer_abs_value
 4723              		.section	.text.mcpwm_stop_pwm,"ax",%progbits
 4724              		.align	2
 4725              		.p2align 4,,15
 4726              		.global	mcpwm_stop_pwm
 4727              		.thumb
 4728              		.thumb_func
 4729              		.type	mcpwm_stop_pwm, %function
 4730              	mcpwm_stop_pwm:
 4731              	.LFB283:
ARM GAS  /tmp/ccDJsI0n.s 			page 84


 4732              		.loc 1 834 0
 4733              		.cfi_startproc
 4734              		@ args = 0, pretend = 0, frame = 0
 4735              		@ frame_needed = 0, uses_anonymous_args = 0
 4736              		@ link register save eliminated.
 4737              		.loc 1 835 0
 4738 0000 0648     		ldr	r0, .L359
 4739              	.LBB142:
 4740              	.LBB143:
 4741              		.loc 1 840 0
 4742 0002 0749     		ldr	r1, .L359+4
 4743              		.loc 1 841 0
 4744 0004 074A     		ldr	r2, .L359+8
 4745              	.LBE143:
 4746              	.LBE142:
 4747              		.loc 1 834 0
 4748 0006 10B4     		push	{r4}
 4749              		.cfi_def_cfa_offset 4
 4750              		.cfi_offset 4, -4
 4751              		.loc 1 835 0
 4752 0008 0524     		movs	r4, #5
 4753 000a 0470     		strb	r4, [r0]
 4754              	.LBB146:
 4755              	.LBB144:
 4756              		.loc 1 840 0
 4757 000c 0023     		movs	r3, #0
 4758              	.LBE144:
 4759              	.LBE146:
 4760              		.loc 1 837 0
 4761 000e 5DF8044B 		ldr	r4, [sp], #4
 4762              		.cfi_restore 4
 4763              		.cfi_def_cfa_offset 0
 4764              	.LBB147:
 4765              	.LBB145:
 4766              		.loc 1 840 0
 4767 0012 0B70     		strb	r3, [r1]
 4768              		.loc 1 841 0
 4769 0014 1360     		str	r3, [r2]
 4770              		.loc 1 842 0
 4771 0016 FFF7FEBF 		b	stop_pwm_hw
 4772              	.LVL352:
 4773              	.L360:
 4774 001a 00BF     		.align	2
 4775              	.L359:
 4776 001c 00000000 		.word	.LANCHOR35
 4777 0020 00000000 		.word	.LANCHOR2
 4778 0024 00000000 		.word	.LANCHOR38
 4779              	.LBE145:
 4780              	.LBE147:
 4781              		.cfi_endproc
 4782              	.LFE283:
 4783              		.size	mcpwm_stop_pwm, .-mcpwm_stop_pwm
 4784              		.section	.text.mcpwm_adc_inj_int_handler,"ax",%progbits
 4785              		.align	2
 4786              		.p2align 4,,15
 4787              		.global	mcpwm_adc_inj_int_handler
 4788              		.thumb
ARM GAS  /tmp/ccDJsI0n.s 			page 85


 4789              		.thumb_func
 4790              		.type	mcpwm_adc_inj_int_handler, %function
 4791              	mcpwm_adc_inj_int_handler:
 4792              	.LFB295:
 4793              		.loc 1 1324 0
 4794              		.cfi_startproc
 4795              		@ args = 0, pretend = 0, frame = 0
 4796              		@ frame_needed = 0, uses_anonymous_args = 0
 4797 0000 F8B5     		push	{r3, r4, r5, r6, r7, lr}
 4798              		.cfi_def_cfa_offset 24
 4799              		.cfi_offset 3, -24
 4800              		.cfi_offset 4, -20
 4801              		.cfi_offset 5, -16
 4802              		.cfi_offset 6, -12
 4803              		.cfi_offset 7, -8
 4804              		.cfi_offset 14, -4
 4805              		.loc 1 1325 0
 4806 0002 B64B     		ldr	r3, .L434
 4807              		.loc 1 1327 0
 4808 0004 B648     		ldr	r0, .L434+4
 4809              		.loc 1 1325 0
 4810 0006 0022     		movs	r2, #0
 4811              		.loc 1 1324 0
 4812 0008 2DED028B 		fstmfdd	sp!, {d8}
 4813              		.cfi_def_cfa_offset 32
 4814              		.cfi_offset 80, -32
 4815              		.cfi_offset 81, -28
 4816              		.loc 1 1327 0
 4817 000c 1421     		movs	r1, #20
 4818              		.loc 1 1325 0
 4819 000e 5A62     		str	r2, [r3, #36]
 4820              		.loc 1 1327 0
 4821 0010 FFF7FEFF 		bl	ADC_GetInjectedConversionValue
 4822              	.LVL353:
 4823              		.loc 1 1328 0
 4824 0014 1421     		movs	r1, #20
 4825              		.loc 1 1327 0
 4826 0016 0546     		mov	r5, r0
 4827              	.LVL354:
 4828              		.loc 1 1328 0
 4829 0018 B248     		ldr	r0, .L434+8
 4830              	.LVL355:
 4831 001a FFF7FEFF 		bl	ADC_GetInjectedConversionValue
 4832              	.LVL356:
 4833              		.loc 1 1330 0
 4834 001e 1821     		movs	r1, #24
 4835              		.loc 1 1328 0
 4836 0020 0646     		mov	r6, r0
 4837              	.LVL357:
 4838              		.loc 1 1330 0
 4839 0022 B048     		ldr	r0, .L434+8
 4840              	.LVL358:
 4841 0024 FFF7FEFF 		bl	ADC_GetInjectedConversionValue
 4842              	.LVL359:
 4843              		.loc 1 1331 0
 4844 0028 AD48     		ldr	r0, .L434+4
 4845 002a 1821     		movs	r1, #24
ARM GAS  /tmp/ccDJsI0n.s 			page 86


 4846 002c FFF7FEFF 		bl	ADC_GetInjectedConversionValue
 4847              	.LVL360:
 4848              		.loc 1 1336 0
 4849 0030 AD4B     		ldr	r3, .L434+12
 4850 0032 1A68     		ldr	r2, [r3]
 4851 0034 012A     		cmp	r2, #1
 4852 0036 00F0B780 		beq	.L425
 4853              		.loc 1 1338 0
 4854 003a 1A68     		ldr	r2, [r3]
 4855 003c 022A     		cmp	r2, #2
 4856 003e 00F0B780 		beq	.L426
 4857              		.loc 1 1340 0
 4858 0042 1B68     		ldr	r3, [r3]
 4859 0044 032B     		cmp	r3, #3
 4860 0046 00F0B780 		beq	.L427
 4861              	.LVL361:
 4862              	.L363:
 4863              		.loc 1 1358 0
 4864 004a A84A     		ldr	r2, .L434+16
 4865              		.loc 1 1359 0
 4866 004c DFF800C3 		ldr	ip, .L434+116
 4867              		.loc 1 1358 0
 4868 0050 1368     		ldr	r3, [r2]
 4869              		.loc 1 1360 0
 4870 0052 DFF800E3 		ldr	lr, .L434+120
 4871              		.loc 1 1362 0
 4872 0056 A649     		ldr	r1, .L434+20
 4873              		.loc 1 1363 0
 4874 0058 A648     		ldr	r0, .L434+24
 4875              		.loc 1 1387 0
 4876 005a A74C     		ldr	r4, .L434+28
 4877              		.loc 1 1392 0
 4878 005c A74F     		ldr	r7, .L434+32
 4879              		.loc 1 1358 0
 4880 005e 2B44     		add	r3, r3, r5
 4881 0060 1360     		str	r3, [r2]
 4882              		.loc 1 1359 0
 4883 0062 DCF80030 		ldr	r3, [ip]
 4884              		.loc 1 1392 0
 4885 0066 3A68     		ldr	r2, [r7]
 4886              		.loc 1 1359 0
 4887 0068 3344     		add	r3, r3, r6
 4888 006a CCF80030 		str	r3, [ip]
 4889              		.loc 1 1360 0
 4890 006e DEF80030 		ldr	r3, [lr]
 4891 0072 0133     		adds	r3, r3, #1
 4892 0074 CEF80030 		str	r3, [lr]
 4893              		.loc 1 1362 0
 4894 0078 0B68     		ldr	r3, [r1]
 4895              		.loc 1 1363 0
 4896 007a 0368     		ldr	r3, [r0]
 4897              		.loc 1 1364 0
 4898 007c D1F800E0 		ldr	lr, [r1]
 4899              		.loc 1 1365 0
 4900 0080 0368     		ldr	r3, [r0]
 4901              		.loc 1 1366 0
 4902 0082 D1F800C0 		ldr	ip, [r1]
ARM GAS  /tmp/ccDJsI0n.s 			page 87


 4903              		.loc 1 1367 0
 4904 0086 D0F800C0 		ldr	ip, [r0]
 4905              		.loc 1 1364 0
 4906 008a CEEB0505 		rsb	r5, lr, r5
 4907              	.LVL362:
 4908              		.loc 1 1365 0
 4909 008e F61A     		subs	r6, r6, r3
 4910              	.LVL363:
 4911              		.loc 1 1387 0
 4912 0090 2560     		str	r5, [r4]
 4913              		.loc 1 1388 0
 4914 0092 6660     		str	r6, [r4, #4]
 4915              		.loc 1 1389 0
 4916 0094 2568     		ldr	r5, [r4]
 4917              	.LVL364:
 4918 0096 6368     		ldr	r3, [r4, #4]
 4919 0098 2B44     		add	r3, r3, r5
 4920 009a 5B42     		negs	r3, r3
 4921 009c A360     		str	r3, [r4, #8]
 4922              	.LVL365:
 4923              		.loc 1 1392 0
 4924 009e 9378     		ldrb	r3, [r2, #2]	@ zero_extendqisi2
 4925 00a0 012B     		cmp	r3, #1
 4926 00a2 23D0     		beq	.L428
 4927              	.LBB148:
 4928              		.loc 1 1421 0
 4929 00a4 964D     		ldr	r5, .L434+36
 4930 00a6 2B78     		ldrb	r3, [r5]	@ zero_extendqisi2
 4931 00a8 032B     		cmp	r3, #3
 4932 00aa 00F0A781 		beq	.L429
 4933              	.LBB149:
 4934              		.loc 1 1427 0
 4935 00ae 954B     		ldr	r3, .L434+40
 4936 00b0 1B68     		ldr	r3, [r3]
 4937 00b2 6BB1     		cbz	r3, .L371
 4938              		.loc 1 1428 0
 4939 00b4 944B     		ldr	r3, .L434+44
 4940 00b6 1A68     		ldr	r2, [r3]
 4941 00b8 013A     		subs	r2, r2, #1
 4942 00ba 052A     		cmp	r2, #5
 4943 00bc 00F2D281 		bhi	.L405
 4944 00c0 DFE812F0 		tbh	[pc, r2, lsl #1]
 4945              	.L374:
 4946 00c4 8400     		.2byte	(.L384-.L374)/2
 4947 00c6 8400     		.2byte	(.L384-.L374)/2
 4948 00c8 0201     		.2byte	(.L382-.L374)/2
 4949 00ca 0701     		.2byte	(.L380-.L374)/2
 4950 00cc FB00     		.2byte	(.L386-.L374)/2
 4951 00ce FB00     		.2byte	(.L386-.L374)/2
 4952              		.p2align 1
 4953              	.L371:
 4954              		.loc 1 1438 0
 4955 00d0 8D4B     		ldr	r3, .L434+44
 4956 00d2 1A68     		ldr	r2, [r3]
 4957 00d4 013A     		subs	r2, r2, #1
 4958 00d6 052A     		cmp	r2, #5
 4959 00d8 00F2C481 		bhi	.L405
ARM GAS  /tmp/ccDJsI0n.s 			page 88


 4960 00dc DFE812F0 		tbh	[pc, r2, lsl #1]
 4961              	.L381:
 4962 00e0 F900     		.2byte	(.L380-.L381)/2
 4963 00e2 F400     		.2byte	(.L382-.L381)/2
 4964 00e4 7600     		.2byte	(.L384-.L381)/2
 4965 00e6 7600     		.2byte	(.L384-.L381)/2
 4966 00e8 ED00     		.2byte	(.L386-.L381)/2
 4967 00ea ED00     		.2byte	(.L386-.L381)/2
 4968              		.p2align 1
 4969              	.L428:
 4970              	.LBE149:
 4971              	.LBE148:
 4972              		.loc 1 1393 0
 4973 00ec 854B     		ldr	r3, .L434+40
 4974 00ee 1B68     		ldr	r3, [r3]
 4975 00f0 002B     		cmp	r3, #0
 4976 00f2 67D1     		bne	.L430
 4977              		.loc 1 1396 0
 4978 00f4 854B     		ldr	r3, .L434+48
 4979 00f6 1B89     		ldrh	r3, [r3, #8]
 4980 00f8 0968     		ldr	r1, [r1]
 4981              	.L423:
 4982 00fa 9BB2     		uxth	r3, r3
 4983 00fc 5B1A     		subs	r3, r3, r1
 4984 00fe 00EE103A 		fmsr	s0, r3	@ int
 4985 0102 B8EEC00A 		fsitos	s0, s0
 4986 0106 B1EE408A 		fnegs	s16, s0
 4987              	.LVL366:
 4988              	.L367:
 4989              		.loc 1 1527 0
 4990 010a 9FED810A 		flds	s0, .L434+52
 4991 010e DFED817A 		flds	s15, .L434+56
 4992 0112 814B     		ldr	r3, .L434+60
 4993              		.loc 1 1530 0
 4994 0114 9FED816A 		flds	s12, .L434+64
 4995              		.loc 1 1527 0
 4996 0118 28EE000A 		fmuls	s0, s16, s0
 4997 011c 80EE270A 		fdivs	s0, s0, s15
 4998 0120 83ED000A 		fsts	s0, [r3]
 4999              		.loc 1 1530 0
 5000 0124 D3ED006A 		flds	s13, [r3]
 5001 0128 92ED057A 		flds	s14, [r2, #20]
 5002 012c 27EE067A 		fmuls	s14, s14, s12
 5003 0130 F0EEE66A 		fabss	s13, s13
 5004 0134 F4EEC76A 		fcmpes	s13, s14
 5005 0138 F1EE10FA 		fmstat
 5006 013c 14DD     		ble	.L401
 5007              		.loc 1 1531 0
 5008 013e 93ED007A 		flds	s14, [r3]
 5009 0142 D2ED057A 		flds	s15, [r2, #20]
 5010 0146 B5EEC07A 		fcmpezs	s14
 5011 014a F1EE10FA 		fmstat
 5012 014e BFEE007A 		fconsts	s14, #240
 5013 0152 F7EE006A 		fconsts	s13, #112
 5014 0156 58BF     		it	pl
 5015 0158 B0EE667A 		fcpyspl	s14, s13
 5016 015c 67EE277A 		fmuls	s15, s14, s15
ARM GAS  /tmp/ccDJsI0n.s 			page 89


 5017 0160 67EE867A 		fmuls	s15, s15, s12
 5018 0164 C3ED007A 		fsts	s15, [r3]
 5019              	.L401:
 5020              		.loc 1 1534 0
 5021 0168 6D4C     		ldr	r4, .L434+68
 5022 016a 93ED000A 		flds	s0, [r3]
 5023 016e 6D48     		ldr	r0, .L434+72
 5024 0170 2246     		mov	r2, r4
 5025 0172 0421     		movs	r1, #4
 5026 0174 FFF7FEFF 		bl	filter_add_sample
 5027              	.LVL367:
 5028              		.loc 1 1536 0
 5029 0178 2368     		ldr	r3, [r4]
 5030 017a 6A48     		ldr	r0, .L434+72
 5031 017c 6A49     		ldr	r1, .L434+76
 5032 017e 0422     		movs	r2, #4
 5033 0180 FFF7FEFF 		bl	filter_run_fir_iteration
 5034              	.LVL368:
 5035 0184 694A     		ldr	r2, .L434+80
 5036              		.loc 1 1540 0
 5037 0186 554B     		ldr	r3, .L434
 5038              		.loc 1 1536 0
 5039 0188 82ED000A 		fsts	s0, [r2]
 5040              		.loc 1 1540 0
 5041 018c D3ED097A 		flds	s15, [r3, #36]	@ int
 5042 0190 9FED677A 		flds	s14, .L434+84
 5043 0194 674B     		ldr	r3, .L434+88
 5044 0196 F8EE677A 		fuitos	s15, s15
 5045              		.loc 1 1541 0
 5046 019a BDEC028B 		fldmfdd	sp!, {d8}
 5047              		.cfi_remember_state
 5048              		.cfi_restore 80
 5049              		.cfi_restore 81
 5050              		.cfi_def_cfa_offset 24
 5051              	.LVL369:
 5052              		.loc 1 1540 0
 5053 019e C7EE877A 		fdivs	s15, s15, s14
 5054 01a2 C3ED007A 		fsts	s15, [r3]
 5055              		.loc 1 1541 0
 5056 01a6 F8BD     		pop	{r3, r4, r5, r6, r7, pc}
 5057              	.LVL370:
 5058              	.L425:
 5059              		.cfi_restore_state
 5060              		.loc 1 1337 0
 5061 01a8 584B     		ldr	r3, .L434+48
 5062 01aa 1D89     		ldrh	r5, [r3, #8]
 5063              	.LVL371:
 5064 01ac ADB2     		uxth	r5, r5
 5065              	.LVL372:
 5066 01ae 4CE7     		b	.L363
 5067              	.LVL373:
 5068              	.L426:
 5069              		.loc 1 1339 0
 5070 01b0 564B     		ldr	r3, .L434+48
 5071 01b2 DE88     		ldrh	r6, [r3, #6]
 5072              	.LVL374:
 5073 01b4 B6B2     		uxth	r6, r6
ARM GAS  /tmp/ccDJsI0n.s 			page 90


 5074              	.LVL375:
 5075 01b6 48E7     		b	.L363
 5076              	.LVL376:
 5077              	.L427:
 5078              		.loc 1 1341 0
 5079 01b8 544B     		ldr	r3, .L434+48
 5080 01ba 1D89     		ldrh	r5, [r3, #8]
 5081              	.LVL377:
 5082              		.loc 1 1342 0
 5083 01bc DE88     		ldrh	r6, [r3, #6]
 5084              	.LVL378:
 5085              		.loc 1 1341 0
 5086 01be ADB2     		uxth	r5, r5
 5087              	.LVL379:
 5088              		.loc 1 1342 0
 5089 01c0 B6B2     		uxth	r6, r6
 5090              	.LVL380:
 5091 01c2 42E7     		b	.L363
 5092              	.LVL381:
 5093              	.L430:
 5094              		.loc 1 1394 0
 5095 01c4 514B     		ldr	r3, .L434+48
 5096 01c6 DB88     		ldrh	r3, [r3, #6]
 5097 01c8 0168     		ldr	r1, [r0]
 5098 01ca 96E7     		b	.L423
 5099              	.L384:
 5100              	.LBB157:
 5101              	.LBB150:
 5102              		.loc 1 1442 0
 5103 01cc D4ED017A 		flds	s15, [r4, #4]	@ int
 5104 01d0 F8EEE77A 		fsitos	s15, s15
 5105 01d4 F1EE677A 		fnegs	s15, s15
 5106              	.LVL382:
 5107              	.L372:
 5108              		.loc 1 1452 0
 5109 01d8 574A     		ldr	r2, .L434+92
 5110 01da 1868     		ldr	r0, [r3]
 5111 01dc 1168     		ldr	r1, [r2]
 5112              		.loc 1 1455 0
 5113 01de 1B68     		ldr	r3, [r3]
 5114 01e0 1360     		str	r3, [r2]
 5115              		.loc 1 1452 0
 5116 01e2 8842     		cmp	r0, r1
 5117              		.loc 1 1453 0
 5118 01e4 16BF     		itet	ne
 5119 01e6 5549     		ldrne	r1, .L434+96
 5120 01e8 5449     		ldreq	r1, .L434+96
 5121 01ea 91ED008A 		fldsne	s16, [r1]
 5122              	.LVL383:
 5123              		.loc 1 1456 0
 5124 01ee C1ED007A 		fsts	s15, [r1]
 5125 01f2 08BF     		it	eq
 5126 01f4 B0EE678A 		fcpyseq	s16, s15
 5127              	.LVL384:
 5128              	.L370:
 5129              	.LBE150:
 5130              		.loc 1 1459 0
ARM GAS  /tmp/ccDJsI0n.s 			page 91


 5131 01f8 514E     		ldr	r6, .L434+100
 5132              	.LVL385:
 5133 01fa 3368     		ldr	r3, [r6]
 5134 01fc 042B     		cmp	r3, #4
 5135 01fe 0AD0     		beq	.L431
 5136              	.L388:
 5137              		.loc 1 1506 0
 5138 0200 002B     		cmp	r3, #0
 5139 0202 00F0AB80 		beq	.L397
 5140              		.loc 1 1510 0
 5141 0206 2A78     		ldrb	r2, [r5]	@ zero_extendqisi2
 5142              		.loc 1 1507 0
 5143 0208 013B     		subs	r3, r3, #1
 5144              		.loc 1 1510 0
 5145 020a 012A     		cmp	r2, #1
 5146              		.loc 1 1507 0
 5147 020c 3360     		str	r3, [r6]
 5148              		.loc 1 1510 0
 5149 020e 00F0C480 		beq	.L432
 5150              	.L424:
 5151 0212 3A68     		ldr	r2, [r7]
 5152 0214 79E7     		b	.L367
 5153              	.L431:
 5154              	.LBB151:
 5155              		.loc 1 1460 0
 5156 0216 94ED007A 		flds	s14, [r4]	@ int
 5157              		.loc 1 1461 0
 5158 021a D4ED017A 		flds	s15, [r4, #4]	@ int
 5159              		.loc 1 1464 0
 5160 021e 494A     		ldr	r2, .L434+104
 5161 0220 494B     		ldr	r3, .L434+108
 5162 0222 1168     		ldr	r1, [r2]
 5163              		.loc 1 1469 0
 5164 0224 4748     		ldr	r0, .L434+104
 5165              		.loc 1 1460 0
 5166 0226 B8EEC77A 		fsitos	s14, s14
 5167              		.loc 1 1461 0
 5168 022a F8EEE77A 		fsitos	s15, s15
 5169              		.loc 1 1460 0
 5170 022e B0EEC77A 		fabss	s14, s14
 5171              	.LVL386:
 5172              		.loc 1 1461 0
 5173 0232 F0EEE77A 		fabss	s15, s15
 5174              	.LVL387:
 5175              		.loc 1 1463 0
 5176 0236 B4EEE77A 		fcmpes	s14, s15
 5177 023a F1EE10FA 		fmstat
 5178              		.loc 1 1464 0
 5179 023e 03EB8101 		add	r1, r3, r1, lsl #2
 5180 0242 CCBF     		ite	gt
 5181 0244 81ED007A 		fstsgt	s14, [r1]
 5182              		.loc 1 1466 0
 5183 0248 C1ED007A 		fstsle	s15, [r1]
 5184              		.loc 1 1469 0
 5185 024c 1168     		ldr	r1, [r2]
 5186 024e 0029     		cmp	r1, #0
 5187 0250 40F3F480 		ble	.L392
ARM GAS  /tmp/ccDJsI0n.s 			page 92


 5188              		.loc 1 1470 0
 5189 0254 D0F800E0 		ldr	lr, [r0]
 5190              		.loc 1 1471 0
 5191 0258 0168     		ldr	r1, [r0]
 5192              		.loc 1 1470 0
 5193 025a 3C4C     		ldr	r4, .L434+112
 5194              		.loc 1 1471 0
 5195 025c 0139     		subs	r1, r1, #1
 5196 025e 03EB8101 		add	r1, r3, r1, lsl #2
 5197 0262 D1ED007A 		flds	s15, [r1]
 5198              	.LVL388:
 5199 0266 0068     		ldr	r0, [r0]
 5200 0268 03EB8000 		add	r0, r3, r0, lsl #2
 5201 026c 90ED007A 		flds	s14, [r0]
 5202              	.LVL389:
 5203 0270 77EEC77A 		fsubs	s15, s15, s14
 5204              		.loc 1 1470 0
 5205 0274 04EB8E01 		add	r1, r4, lr, lsl #2
 5206 0278 C1ED007A 		fsts	s15, [r1]
 5207              	.L393:
 5208              		.loc 1 1477 0
 5209 027c 234C     		ldr	r4, .L434+48
 5210              		.loc 1 1480 0
 5211 027e 2249     		ldr	r1, .L434+44
 5212              		.loc 1 1477 0
 5213 0280 208A     		ldrh	r0, [r4, #16]
 5214              		.loc 1 1480 0
 5215 0282 0968     		ldr	r1, [r1]
 5216 0284 0139     		subs	r1, r1, #1
 5217 0286 0529     		cmp	r1, #5
 5218              		.loc 1 1477 0
 5219 0288 80B2     		uxth	r0, r0
 5220              	.LVL390:
 5221 028a 00F29880 		bhi	.L394
 5222 028e 4FF0010E 		mov	lr, #1
 5223 0292 0EFA01F1 		lsl	r1, lr, r1
 5224 0296 11F0240F 		tst	r1, #36
 5225 029a 20FA0EF0 		lsr	r0, r0, lr
 5226              	.LVL391:
 5227 029e 40F08080 		bne	.L395
 5228 02a2 11F0120F 		tst	r1, #18
 5229 02a6 40F0D980 		bne	.L396
 5230 02aa 11F0090F 		tst	r1, #9
 5231 02ae 00F08680 		beq	.L394
 5232              		.loc 1 1483 0
 5233 02b2 D2F800E0 		ldr	lr, [r2]
 5234 02b6 A188     		ldrh	r1, [r4, #4]
 5235 02b8 76E0     		b	.L422
 5236              	.LVL392:
 5237              	.L386:
 5238              	.LBE151:
 5239              	.LBB152:
 5240              		.loc 1 1444 0
 5241 02ba D4ED007A 		flds	s15, [r4]	@ int
 5242 02be F8EEE77A 		fsitos	s15, s15
 5243 02c2 F1EE677A 		fnegs	s15, s15
 5244              	.LVL393:
ARM GAS  /tmp/ccDJsI0n.s 			page 93


 5245 02c6 87E7     		b	.L372
 5246              	.LVL394:
 5247              	.L382:
 5248              		.loc 1 1440 0
 5249 02c8 D4ED007A 		flds	s15, [r4]	@ int
 5250 02cc F8EEE77A 		fsitos	s15, s15
 5251              	.LVL395:
 5252 02d0 82E7     		b	.L372
 5253              	.LVL396:
 5254              	.L380:
 5255              		.loc 1 1439 0
 5256 02d2 D4ED017A 		flds	s15, [r4, #4]	@ int
 5257 02d6 F8EEE77A 		fsitos	s15, s15
 5258              	.LVL397:
 5259 02da 7DE7     		b	.L372
 5260              	.L435:
 5261              		.align	2
 5262              	.L434:
 5263 02dc 00180040 		.word	1073747968
 5264 02e0 00200140 		.word	1073815552
 5265 02e4 00210140 		.word	1073815808
 5266 02e8 00000000 		.word	.LANCHOR1
 5267 02ec 00000000 		.word	.LANCHOR47
 5268 02f0 00000000 		.word	.LANCHOR50
 5269 02f4 00000000 		.word	.LANCHOR51
 5270 02f8 00000000 		.word	ADC_curr_norm_value
 5271 02fc 00000000 		.word	.LANCHOR0
 5272 0300 00000000 		.word	.LANCHOR2
 5273 0304 00000000 		.word	.LANCHOR4
 5274 0308 00000000 		.word	.LANCHOR3
 5275 030c 00000000 		.word	ADC_Value
 5276 0310 6740533A 		.word	978534503
 5277 0314 0BD7233C 		.word	1008981771
 5278 0318 00000000 		.word	.LANCHOR36
 5279 031c 9A99993F 		.word	1067030938
 5280 0320 00000000 		.word	.LANCHOR63
 5281 0324 00000000 		.word	.LANCHOR62
 5282 0328 00000000 		.word	.LANCHOR46
 5283 032c 00000000 		.word	.LANCHOR37
 5284 0330 8096184B 		.word	1259902592
 5285 0334 00000000 		.word	.LANCHOR64
 5286 0338 00000000 		.word	.LANCHOR54
 5287 033c 00000000 		.word	.LANCHOR55
 5288 0340 00000000 		.word	.LANCHOR56
 5289 0344 00000000 		.word	.LANCHOR30
 5290 0348 00000000 		.word	.LANCHOR57
 5291 034c 00000000 		.word	.LANCHOR58
 5292 0350 00000000 		.word	.LANCHOR48
 5293 0354 00000000 		.word	.LANCHOR49
 5294 0358 CDCC4C3E 		.word	1045220557
 5295              	.LVL398:
 5296              	.L397:
 5297              	.LBE152:
 5298              		.loc 1 1510 0
 5299 035c 2B78     		ldrb	r3, [r5]	@ zero_extendqisi2
 5300 035e 012B     		cmp	r3, #1
 5301 0360 7FF457AF 		bne	.L424
ARM GAS  /tmp/ccDJsI0n.s 			page 94


 5302              	.L399:
 5303              		.loc 1 1511 0
 5304 0364 0523     		movs	r3, #5
 5305              		.loc 1 1513 0
 5306 0366 1FED040A 		flds	s0, .L434+124
 5307              		.loc 1 1511 0
 5308 036a 3360     		str	r3, [r6]
 5309              		.loc 1 1513 0
 5310 036c FFF7FEFF 		bl	set_duty_cycle_hw
 5311              	.LVL399:
 5312              		.loc 1 1515 0
 5313 0370 404A     		ldr	r2, .L436
 5314 0372 1368     		ldr	r3, [r2]
 5315 0374 0133     		adds	r3, r3, #1
 5316 0376 1360     		str	r3, [r2]
 5317              		.loc 1 1516 0
 5318 0378 1368     		ldr	r3, [r2]
 5319 037a 052B     		cmp	r3, #5
 5320              		.loc 1 1517 0
 5321 037c C4BF     		itt	gt
 5322 037e 0023     		movgt	r3, #0
 5323 0380 1360     		strgt	r3, [r2]
 5324              		.loc 1 1520 0
 5325 0382 1368     		ldr	r3, [r2]
 5326 0384 3C4A     		ldr	r2, .L436+4
 5327 0386 0133     		adds	r3, r3, #1
 5328 0388 1360     		str	r3, [r2]
 5329              		.loc 1 1522 0
 5330 038a 1068     		ldr	r0, [r2]
 5331 038c FFF7FEFF 		bl	set_next_comm_step
 5332              	.LVL400:
 5333              		.loc 1 1523 0
 5334 0390 3A48     		ldr	r0, .L436+8
 5335 0392 2021     		movs	r1, #32
 5336 0394 FFF7FEFF 		bl	TIM_GenerateEvent
 5337              	.LVL401:
 5338 0398 3BE7     		b	.L424
 5339              	.L432:
 5340              		.loc 1 1510 0 discriminator 1
 5341 039a 002B     		cmp	r3, #0
 5342 039c 7FF439AF 		bne	.L424
 5343 03a0 E0E7     		b	.L399
 5344              	.L395:
 5345              	.LBB153:
 5346              		.loc 1 1493 0
 5347 03a2 D2F800E0 		ldr	lr, [r2]
 5348 03a6 2188     		ldrh	r1, [r4]
 5349              	.L422:
 5350 03a8 354C     		ldr	r4, .L436+12
 5351 03aa 89B2     		uxth	r1, r1
 5352 03ac 081A     		subs	r0, r1, r0
 5353 03ae 07EE900A 		fmsr	s15, r0	@ int
 5354 03b2 F8EEE77A 		fsitos	s15, s15
 5355 03b6 04EB8E01 		add	r1, r4, lr, lsl #2
 5356 03ba C1ED007A 		fsts	s15, [r1]
 5357              	.L394:
 5358              		.loc 1 1500 0
ARM GAS  /tmp/ccDJsI0n.s 			page 95


 5359 03be 1468     		ldr	r4, [r2]
 5360 03c0 3048     		ldr	r0, .L436+16
 5361              		.loc 1 1501 0
 5362 03c2 3149     		ldr	r1, .L436+20
 5363              		.loc 1 1500 0
 5364 03c4 03EB8403 		add	r3, r3, r4, lsl #2
 5365 03c8 93ED007A 		flds	s14, [r3]
 5366 03cc 1368     		ldr	r3, [r2]
 5367 03ce 00EB8303 		add	r3, r0, r3, lsl #2
 5368 03d2 D3ED007A 		flds	s15, [r3]
 5369 03d6 37EE877A 		fadds	s14, s15, s14
 5370              		.loc 1 1501 0
 5371 03da F7EE006A 		fconsts	s13, #112
 5372              		.loc 1 1500 0
 5373 03de 83ED007A 		fsts	s14, [r3]
 5374              		.loc 1 1501 0
 5375 03e2 1368     		ldr	r3, [r2]
 5376 03e4 01EB8303 		add	r3, r1, r3, lsl #2
 5377 03e8 D3ED007A 		flds	s15, [r3]
 5378 03ec 77EEA67A 		fadds	s15, s15, s13
 5379 03f0 C3ED007A 		fsts	s15, [r3]
 5380              		.loc 1 1503 0
 5381 03f4 FFF7FEFF 		bl	stop_pwm_hw
 5382              	.LVL402:
 5383 03f8 3368     		ldr	r3, [r6]
 5384 03fa 01E7     		b	.L388
 5385              	.LVL403:
 5386              	.L429:
 5387              	.LBE153:
 5388              	.LBB154:
 5389              		.loc 1 1422 0
 5390 03fc D4ED006A 		flds	s13, [r4]	@ int
 5391              		.loc 1 1423 0
 5392 0400 D4ED017A 		flds	s15, [r4, #4]	@ int
 5393              		.loc 1 1424 0
 5394 0404 94ED027A 		flds	s14, [r4, #8]	@ int
 5395              		.loc 1 1423 0
 5396 0408 F8EEE77A 		fsitos	s15, s15
 5397              		.loc 1 1422 0
 5398 040c F8EEE66A 		fsitos	s13, s13
 5399              	.LVL404:
 5400              		.loc 1 1425 0
 5401 0410 67EEA77A 		fmuls	s15, s15, s15
 5402              	.LVL405:
 5403              		.loc 1 1424 0
 5404 0414 B8EEC77A 		fsitos	s14, s14
 5405              	.LVL406:
 5406              		.loc 1 1425 0
 5407 0418 E6EEA67A 		vfma.f32	s15, s13, s13
 5408 041c B7EE080A 		fconsts	s0, #120
 5409 0420 E7EE077A 		vfma.f32	s15, s14, s14
 5410 0424 C7EE807A 		fdivs	s15, s15, s0
 5411 0428 B1EEE70A 		fsqrts	s0, s15
 5412 042c B4EE400A 		fcmps	s0, s0
 5413 0430 F1EE10FA 		fmstat
 5414 0434 19D1     		bne	.L433
 5415              	.LVL407:
ARM GAS  /tmp/ccDJsI0n.s 			page 96


 5416              	.L369:
 5417 0436 B0EE408A 		fcpys	s16, s0
 5418              	.LVL408:
 5419              	.LBE154:
 5420 043a DDE6     		b	.L370
 5421              	.LVL409:
 5422              	.L392:
 5423              	.LBB155:
 5424              		.loc 1 1473 0
 5425 043c 0468     		ldr	r4, [r0]
 5426              		.loc 1 1474 0
 5427 043e D3ED057A 		flds	s15, [r3, #20]
 5428              	.LVL410:
 5429 0442 0068     		ldr	r0, [r0]
 5430              		.loc 1 1473 0
 5431 0444 1149     		ldr	r1, .L436+24
 5432              		.loc 1 1474 0
 5433 0446 03EB8000 		add	r0, r3, r0, lsl #2
 5434 044a 90ED007A 		flds	s14, [r0]
 5435              	.LVL411:
 5436 044e 77EEC77A 		fsubs	s15, s15, s14
 5437              		.loc 1 1473 0
 5438 0452 01EB8401 		add	r1, r1, r4, lsl #2
 5439 0456 C1ED007A 		fsts	s15, [r1]
 5440 045a 0FE7     		b	.L393
 5441              	.L396:
 5442              		.loc 1 1488 0
 5443 045c D2F800E0 		ldr	lr, [r2]
 5444 0460 6188     		ldrh	r1, [r4, #2]
 5445 0462 A1E7     		b	.L422
 5446              	.LVL412:
 5447              	.L405:
 5448              	.LBE155:
 5449              	.LBE157:
 5450              		.loc 1 1391 0
 5451 0464 DFED0A7A 		flds	s15, .L436+28
 5452 0468 B6E6     		b	.L372
 5453              	.LVL413:
 5454              	.L433:
 5455              	.LBB158:
 5456              	.LBB156:
 5457              		.loc 1 1425 0
 5458 046a B0EE670A 		fcpys	s0, s15
 5459 046e FFF7FEFF 		bl	sqrtf
 5460              	.LVL414:
 5461 0472 E0E7     		b	.L369
 5462              	.L437:
 5463              		.align	2
 5464              	.L436:
 5465 0474 00000000 		.word	.LANCHOR30
 5466 0478 00000000 		.word	.LANCHOR3
 5467 047c 00000140 		.word	1073807360
 5468 0480 00000000 		.word	.LANCHOR59
 5469 0484 00000000 		.word	.LANCHOR60
 5470 0488 00000000 		.word	.LANCHOR61
 5471 048c 00000000 		.word	.LANCHOR58
 5472 0490 00000000 		.word	0
ARM GAS  /tmp/ccDJsI0n.s 			page 97


 5473              	.LBE156:
 5474              	.LBE158:
 5475              		.cfi_endproc
 5476              	.LFE295:
 5477              		.size	mcpwm_adc_inj_int_handler, .-mcpwm_adc_inj_int_handler
 5478              		.section	.text.mcpwm_set_detect,"ax",%progbits
 5479              		.align	2
 5480              		.p2align 4,,15
 5481              		.global	mcpwm_set_detect
 5482              		.thumb
 5483              		.thumb_func
 5484              		.type	mcpwm_set_detect, %function
 5485              	mcpwm_set_detect:
 5486              	.LFB297:
 5487              		.loc 1 1926 0
 5488              		.cfi_startproc
 5489              		@ args = 0, pretend = 0, frame = 0
 5490              		@ frame_needed = 0, uses_anonymous_args = 0
 5491 0000 F8B5     		push	{r3, r4, r5, r6, r7, lr}
 5492              		.cfi_def_cfa_offset 24
 5493              		.cfi_offset 3, -24
 5494              		.cfi_offset 4, -20
 5495              		.cfi_offset 5, -16
 5496              		.cfi_offset 6, -12
 5497              		.cfi_offset 7, -8
 5498              		.cfi_offset 14, -4
 5499              		.loc 1 1927 0
 5500 0002 FFF7FEFF 		bl	mc_interface_try_input
 5501              	.LVL415:
 5502 0006 0446     		mov	r4, r0
 5503 0008 00B1     		cbz	r0, .L443
 5504 000a F8BD     		pop	{r3, r4, r5, r6, r7, pc}
 5505              	.L443:
 5506              		.loc 1 1931 0
 5507 000c 0C4B     		ldr	r3, .L444
 5508 000e 0D4F     		ldr	r7, .L444+4
 5509 0010 0D4E     		ldr	r6, .L444+8
 5510 0012 0E4D     		ldr	r5, .L444+12
 5511 0014 0522     		movs	r2, #5
 5512 0016 1A70     		strb	r2, [r3]
 5513              		.loc 1 1932 0
 5514 0018 FFF7FEFF 		bl	stop_pwm_hw
 5515              	.LVL416:
 5516              		.loc 1 1934 0
 5517 001c FFF7FEFF 		bl	set_switching_frequency.constprop.0
 5518              	.LVL417:
 5519              	.LBB159:
 5520              		.loc 1 1937 0
 5521 0020 0022     		movs	r2, #0
 5522              		.loc 1 1936 0
 5523 0022 2046     		mov	r0, r4
 5524              	.LVL418:
 5525              	.L440:
 5526              		.loc 1 1937 0 discriminator 3
 5527 0024 8300     		lsls	r3, r0, #2
 5528 0026 FC18     		adds	r4, r7, r3
 5529              		.loc 1 1938 0 discriminator 3
ARM GAS  /tmp/ccDJsI0n.s 			page 98


 5530 0028 F118     		adds	r1, r6, r3
 5531              		.loc 1 1936 0 discriminator 3
 5532 002a 0130     		adds	r0, r0, #1
 5533              	.LVL419:
 5534              		.loc 1 1939 0 discriminator 3
 5535 002c 2B44     		add	r3, r3, r5
 5536              		.loc 1 1936 0 discriminator 3
 5537 002e 0628     		cmp	r0, #6
 5538              		.loc 1 1937 0 discriminator 3
 5539 0030 2260     		str	r2, [r4]	@ float
 5540              		.loc 1 1938 0 discriminator 3
 5541 0032 0A60     		str	r2, [r1]	@ float
 5542              		.loc 1 1939 0 discriminator 3
 5543 0034 1A60     		str	r2, [r3]	@ float
 5544              		.loc 1 1936 0 discriminator 3
 5545 0036 F5D1     		bne	.L440
 5546              	.LBE159:
 5547              		.loc 1 1942 0
 5548 0038 054B     		ldr	r3, .L444+16
 5549 003a 0122     		movs	r2, #1
 5550 003c 1A70     		strb	r2, [r3]
 5551 003e F8BD     		pop	{r3, r4, r5, r6, r7, pc}
 5552              	.L445:
 5553              		.align	2
 5554              	.L444:
 5555 0040 00000000 		.word	.LANCHOR35
 5556 0044 00000000 		.word	.LANCHOR57
 5557 0048 00000000 		.word	.LANCHOR60
 5558 004c 00000000 		.word	.LANCHOR61
 5559 0050 00000000 		.word	.LANCHOR2
 5560              		.cfi_endproc
 5561              	.LFE297:
 5562              		.size	mcpwm_set_detect, .-mcpwm_set_detect
 5563              		.section	.text.mcpwm_get_detect_pos,"ax",%progbits
 5564              		.align	2
 5565              		.p2align 4,,15
 5566              		.global	mcpwm_get_detect_pos
 5567              		.thumb
 5568              		.thumb_func
 5569              		.type	mcpwm_get_detect_pos, %function
 5570              	mcpwm_get_detect_pos:
 5571              	.LFB298:
 5572              		.loc 1 1945 0
 5573              		.cfi_startproc
 5574              		@ args = 0, pretend = 0, frame = 8
 5575              		@ frame_needed = 0, uses_anonymous_args = 0
 5576 0000 30B5     		push	{r4, r5, lr}
 5577              		.cfi_def_cfa_offset 12
 5578              		.cfi_offset 4, -12
 5579              		.cfi_offset 5, -8
 5580              		.cfi_offset 14, -4
 5581              		.loc 1 1947 0
 5582 0002 3F48     		ldr	r0, .L455
 5583 0004 3F4C     		ldr	r4, .L455+4
 5584              		.loc 1 1945 0
 5585 0006 2DED048B 		fstmfdd	sp!, {d8, d9}
 5586              		.cfi_def_cfa_offset 28
ARM GAS  /tmp/ccDJsI0n.s 			page 99


 5587              		.cfi_offset 80, -28
 5588              		.cfi_offset 81, -24
 5589              		.cfi_offset 82, -20
 5590              		.cfi_offset 83, -16
 5591              		.loc 1 1947 0
 5592 000a 94ED006A 		flds	s12, [r4]
 5593 000e D0ED003A 		flds	s7, [r0]
 5594              		.loc 1 1948 0
 5595 0012 D4ED016A 		flds	s13, [r4, #4]
 5596 0016 90ED014A 		flds	s8, [r0, #4]
 5597              		.loc 1 1949 0
 5598 001a 94ED027A 		flds	s14, [r4, #8]
 5599 001e D0ED027A 		flds	s15, [r0, #8]
 5600              		.loc 1 1950 0
 5601 0022 D4ED034A 		flds	s9, [r4, #12]
 5602 0026 90ED039A 		flds	s18, [r0, #12]
 5603              		.loc 1 1951 0
 5604 002a 94ED045A 		flds	s10, [r4, #16]
 5605 002e D0ED048A 		flds	s17, [r0, #16]
 5606              		.loc 1 1952 0
 5607 0032 D4ED055A 		flds	s11, [r4, #20]
 5608 0036 90ED058A 		flds	s16, [r0, #20]
 5609              		.loc 1 1947 0
 5610 003a 86EE236A 		fdivs	s12, s12, s7
 5611              	.LVL420:
 5612              		.loc 1 1945 0
 5613 003e 83B0     		sub	sp, sp, #12
 5614              		.cfi_def_cfa_offset 40
 5615              	.LBB160:
 5616              		.loc 1 1955 0
 5617 0040 0021     		movs	r1, #0
 5618              		.loc 1 1954 0
 5619 0042 0022     		movs	r2, #0
 5620              	.LBE160:
 5621              		.loc 1 1948 0
 5622 0044 C6EE846A 		fdivs	s13, s13, s8
 5623              	.LVL421:
 5624              		.loc 1 1949 0
 5625 0048 87EE277A 		fdivs	s14, s14, s15
 5626              	.LVL422:
 5627              		.loc 1 1950 0
 5628 004c 84EE899A 		fdivs	s18, s9, s18
 5629              	.LVL423:
 5630              		.loc 1 1951 0
 5631 0050 C5EE288A 		fdivs	s17, s10, s17
 5632              	.LVL424:
 5633              		.loc 1 1952 0
 5634 0054 85EE888A 		fdivs	s16, s11, s16
 5635              	.LVL425:
 5636              	.L447:
 5637              	.LBB161:
 5638              		.loc 1 1955 0 discriminator 3
 5639 0058 9300     		lsls	r3, r2, #2
 5640 005a E518     		adds	r5, r4, r3
 5641              		.loc 1 1954 0 discriminator 3
 5642 005c 0132     		adds	r2, r2, #1
 5643              	.LVL426:
ARM GAS  /tmp/ccDJsI0n.s 			page 100


 5644              		.loc 1 1956 0 discriminator 3
 5645 005e 0344     		add	r3, r3, r0
 5646              		.loc 1 1954 0 discriminator 3
 5647 0060 062A     		cmp	r2, #6
 5648              		.loc 1 1955 0 discriminator 3
 5649 0062 2960     		str	r1, [r5]	@ float
 5650              		.loc 1 1956 0 discriminator 3
 5651 0064 1960     		str	r1, [r3]	@ float
 5652              		.loc 1 1954 0 discriminator 3
 5653 0066 F7D1     		bne	.L447
 5654              	.LBE161:
 5655              		.loc 1 1960 0
 5656 0068 76EEA88A 		fadds	s17, s13, s17
 5657              	.LVL427:
 5658              		.loc 1 1959 0
 5659 006c 36EE099A 		fadds	s18, s12, s18
 5660              	.LVL428:
 5661              		.loc 1 1961 0
 5662 0070 77EE087A 		fadds	s15, s14, s16
 5663              	.LVL429:
 5664              		.loc 1 1963 0
 5665 0074 39EE287A 		fadds	s14, s18, s17
 5666              	.LVL430:
 5667 0078 B0EE088A 		fconsts	s16, #8
 5668              	.LVL431:
 5669 007c 37EE277A 		fadds	s14, s14, s15
 5670              		.loc 1 1968 0
 5671 0080 F7EE086A 		fconsts	s13, #120
 5672              	.LVL432:
 5673              		.loc 1 1963 0
 5674 0084 87EE088A 		fdivs	s16, s14, s16
 5675              	.LVL433:
 5676              		.loc 1 1965 0
 5677 0088 78EEC88A 		fsubs	s17, s17, s16
 5678              	.LVL434:
 5679              		.loc 1 1964 0
 5680 008c 39EE489A 		fsubs	s18, s18, s16
 5681              	.LVL435:
 5682              		.loc 1 1968 0
 5683 0090 28EEA80A 		fmuls	s0, s17, s17
 5684              		.loc 1 1966 0
 5685 0094 37EEC88A 		fsubs	s16, s15, s16
 5686              	.LVL436:
 5687              		.loc 1 1968 0
 5688 0098 A9EE090A 		vfma.f32	s0, s18, s18
 5689 009c A8EE080A 		vfma.f32	s0, s16, s16
 5690 00a0 80EE260A 		fdivs	s0, s0, s13
 5691 00a4 F1EEC09A 		fsqrts	s19, s0
 5692 00a8 F4EE699A 		fcmps	s19, s19
 5693 00ac F1EE10FA 		fmstat
 5694 00b0 21D1     		bne	.L454
 5695              	.LVL437:
 5696              	.L448:
 5697              		.loc 1 1974 0
 5698 00b2 89EE290A 		fdivs	s0, s18, s19
 5699              	.LVL438:
 5700 00b6 FFF7FEFF 		bl	asinf
ARM GAS  /tmp/ccDJsI0n.s 			page 101


 5701              	.LVL439:
 5702              		.loc 1 1981 0
 5703 00ba 01A8     		add	r0, sp, #4
 5704              		.loc 1 1974 0
 5705 00bc DFED127A 		flds	s15, .L455+8
 5706 00c0 9FED127A 		flds	s14, .L455+12
 5707 00c4 20EE270A 		fmuls	s0, s0, s15
 5708              		.loc 1 1970 0
 5709 00c8 C8EEA98A 		fdivs	s17, s17, s19
 5710              	.LVL440:
 5711              		.loc 1 1971 0
 5712 00cc 88EE298A 		fdivs	s16, s16, s19
 5713              	.LVL441:
 5714              		.loc 1 1974 0
 5715 00d0 80EE070A 		fdivs	s0, s0, s14
 5716              	.LVL442:
 5717              		.loc 1 1977 0
 5718 00d4 F4EEC88A 		fcmpes	s17, s16
 5719 00d8 F1EE10FA 		fmstat
 5720              		.loc 1 1978 0
 5721 00dc 48BF     		it	mi
 5722 00de 37EEC00A 		fsubsmi	s0, s15, s0
 5723              	.LVL443:
 5724 00e2 8DED010A 		fsts	s0, [sp, #4]
 5725              		.loc 1 1981 0
 5726 00e6 FFF7FEFF 		bl	utils_norm_angle
 5727              	.LVL444:
 5728              		.loc 1 1984 0
 5729 00ea 9DED010A 		flds	s0, [sp, #4]
 5730 00ee 03B0     		add	sp, sp, #12
 5731              		.cfi_remember_state
 5732              		.cfi_def_cfa_offset 28
 5733              		@ sp needed
 5734 00f0 BDEC048B 		fldmfdd	sp!, {d8-d9}
 5735              		.cfi_restore 82
 5736              		.cfi_restore 83
 5737              		.cfi_restore 80
 5738              		.cfi_restore 81
 5739              		.cfi_def_cfa_offset 12
 5740              	.LVL445:
 5741 00f4 30BD     		pop	{r4, r5, pc}
 5742              	.LVL446:
 5743              	.L454:
 5744              		.cfi_restore_state
 5745              		.loc 1 1968 0
 5746 00f6 FFF7FEFF 		bl	sqrtf
 5747              	.LVL447:
 5748 00fa F0EE409A 		fcpys	s19, s0
 5749 00fe D8E7     		b	.L448
 5750              	.L456:
 5751              		.align	2
 5752              	.L455:
 5753 0100 00000000 		.word	.LANCHOR61
 5754 0104 00000000 		.word	.LANCHOR60
 5755 0108 00003443 		.word	1127481344
 5756 010c DB0F4940 		.word	1078530011
 5757              		.cfi_endproc
ARM GAS  /tmp/ccDJsI0n.s 			page 102


 5758              	.LFE298:
 5759              		.size	mcpwm_get_detect_pos, .-mcpwm_get_detect_pos
 5760              		.section	.text.mcpwm_read_reset_avg_cycle_integrator,"ax",%progbits
 5761              		.align	2
 5762              		.p2align 4,,15
 5763              		.global	mcpwm_read_reset_avg_cycle_integrator
 5764              		.thumb
 5765              		.thumb_func
 5766              		.type	mcpwm_read_reset_avg_cycle_integrator, %function
 5767              	mcpwm_read_reset_avg_cycle_integrator:
 5768              	.LFB299:
 5769              		.loc 1 1986 0
 5770              		.cfi_startproc
 5771              		@ args = 0, pretend = 0, frame = 0
 5772              		@ frame_needed = 0, uses_anonymous_args = 0
 5773              		@ link register save eliminated.
 5774              		.loc 1 1987 0
 5775 0000 0549     		ldr	r1, .L458
 5776 0002 064B     		ldr	r3, .L458+4
 5777 0004 91ED000A 		flds	s0, [r1]
 5778 0008 D3ED007A 		flds	s15, [r3]
 5779              	.LVL448:
 5780              		.loc 1 1988 0
 5781 000c 0022     		movs	r2, #0
 5782 000e 0A60     		str	r2, [r1]	@ float
 5783              		.loc 1 1991 0
 5784 0010 80EE270A 		fdivs	s0, s0, s15
 5785              	.LVL449:
 5786              		.loc 1 1989 0
 5787 0014 1A60     		str	r2, [r3]	@ float
 5788              		.loc 1 1991 0
 5789 0016 7047     		bx	lr
 5790              	.L459:
 5791              		.align	2
 5792              	.L458:
 5793 0018 00000000 		.word	.LANCHOR41
 5794 001c 00000000 		.word	.LANCHOR42
 5795              		.cfi_endproc
 5796              	.LFE299:
 5797              		.size	mcpwm_read_reset_avg_cycle_integrator, .-mcpwm_read_reset_avg_cycle_integrator
 5798              		.section	.text.mcpwm_set_comm_mode,"ax",%progbits
 5799              		.align	2
 5800              		.p2align 4,,15
 5801              		.global	mcpwm_set_comm_mode
 5802              		.thumb
 5803              		.thumb_func
 5804              		.type	mcpwm_set_comm_mode, %function
 5805              	mcpwm_set_comm_mode:
 5806              	.LFB300:
 5807              		.loc 1 2002 0
 5808              		.cfi_startproc
 5809              		@ args = 0, pretend = 0, frame = 0
 5810              		@ frame_needed = 0, uses_anonymous_args = 0
 5811              		@ link register save eliminated.
 5812              	.LVL450:
 5813              		.loc 1 2003 0
 5814 0000 014B     		ldr	r3, .L461
ARM GAS  /tmp/ccDJsI0n.s 			page 103


 5815 0002 1B68     		ldr	r3, [r3]
 5816 0004 5870     		strb	r0, [r3, #1]
 5817 0006 7047     		bx	lr
 5818              	.L462:
 5819              		.align	2
 5820              	.L461:
 5821 0008 00000000 		.word	.LANCHOR0
 5822              		.cfi_endproc
 5823              	.LFE300:
 5824              		.size	mcpwm_set_comm_mode, .-mcpwm_set_comm_mode
 5825              		.section	.text.mcpwm_get_comm_mode,"ax",%progbits
 5826              		.align	2
 5827              		.p2align 4,,15
 5828              		.global	mcpwm_get_comm_mode
 5829              		.thumb
 5830              		.thumb_func
 5831              		.type	mcpwm_get_comm_mode, %function
 5832              	mcpwm_get_comm_mode:
 5833              	.LFB301:
 5834              		.loc 1 2006 0
 5835              		.cfi_startproc
 5836              		@ args = 0, pretend = 0, frame = 0
 5837              		@ frame_needed = 0, uses_anonymous_args = 0
 5838              		@ link register save eliminated.
 5839              		.loc 1 2007 0
 5840 0000 014B     		ldr	r3, .L464
 5841 0002 1B68     		ldr	r3, [r3]
 5842 0004 5878     		ldrb	r0, [r3, #1]	@ zero_extendqisi2
 5843              		.loc 1 2008 0
 5844 0006 7047     		bx	lr
 5845              	.L465:
 5846              		.align	2
 5847              	.L464:
 5848 0008 00000000 		.word	.LANCHOR0
 5849              		.cfi_endproc
 5850              	.LFE301:
 5851              		.size	mcpwm_get_comm_mode, .-mcpwm_get_comm_mode
 5852              		.section	.text.mcpwm_get_last_adc_isr_duration,"ax",%progbits
 5853              		.align	2
 5854              		.p2align 4,,15
 5855              		.global	mcpwm_get_last_adc_isr_duration
 5856              		.thumb
 5857              		.thumb_func
 5858              		.type	mcpwm_get_last_adc_isr_duration, %function
 5859              	mcpwm_get_last_adc_isr_duration:
 5860              	.LFB302:
 5861              		.loc 1 2010 0
 5862              		.cfi_startproc
 5863              		@ args = 0, pretend = 0, frame = 0
 5864              		@ frame_needed = 0, uses_anonymous_args = 0
 5865              		@ link register save eliminated.
 5866              		.loc 1 2011 0
 5867 0000 014B     		ldr	r3, .L467
 5868 0002 93ED000A 		flds	s0, [r3]
 5869              		.loc 1 2012 0
 5870 0006 7047     		bx	lr
 5871              	.L468:
ARM GAS  /tmp/ccDJsI0n.s 			page 104


 5872              		.align	2
 5873              	.L467:
 5874 0008 00000000 		.word	.LANCHOR65
 5875              		.cfi_endproc
 5876              	.LFE302:
 5877              		.size	mcpwm_get_last_adc_isr_duration, .-mcpwm_get_last_adc_isr_duration
 5878              		.section	.text.mcpwm_get_last_inj_adc_isr_duration,"ax",%progbits
 5879              		.align	2
 5880              		.p2align 4,,15
 5881              		.global	mcpwm_get_last_inj_adc_isr_duration
 5882              		.thumb
 5883              		.thumb_func
 5884              		.type	mcpwm_get_last_inj_adc_isr_duration, %function
 5885              	mcpwm_get_last_inj_adc_isr_duration:
 5886              	.LFB303:
 5887              		.loc 1 2014 0
 5888              		.cfi_startproc
 5889              		@ args = 0, pretend = 0, frame = 0
 5890              		@ frame_needed = 0, uses_anonymous_args = 0
 5891              		@ link register save eliminated.
 5892              		.loc 1 2015 0
 5893 0000 014B     		ldr	r3, .L470
 5894 0002 93ED000A 		flds	s0, [r3]
 5895              		.loc 1 2016 0
 5896 0006 7047     		bx	lr
 5897              	.L471:
 5898              		.align	2
 5899              	.L470:
 5900 0008 00000000 		.word	.LANCHOR64
 5901              		.cfi_endproc
 5902              	.LFE303:
 5903              		.size	mcpwm_get_last_inj_adc_isr_duration, .-mcpwm_get_last_inj_adc_isr_duration
 5904              		.section	.text.mcpwm_get_rpm_dep,"ax",%progbits
 5905              		.align	2
 5906              		.p2align 4,,15
 5907              		.global	mcpwm_get_rpm_dep
 5908              		.thumb
 5909              		.thumb_func
 5910              		.type	mcpwm_get_rpm_dep, %function
 5911              	mcpwm_get_rpm_dep:
 5912              	.LFB304:
 5913              		.loc 1 2018 0
 5914              		.cfi_startproc
 5915              		@ args = 0, pretend = 0, frame = 0
 5916              		@ frame_needed = 0, uses_anonymous_args = 0
 5917              		@ link register save eliminated.
 5918              	.LVL451:
 5919 0000 70B4     		push	{r4, r5, r6}
 5920              		.cfi_def_cfa_offset 12
 5921              		.cfi_offset 4, -12
 5922              		.cfi_offset 5, -8
 5923              		.cfi_offset 6, -4
 5924              		.loc 1 2019 0
 5925 0002 064D     		ldr	r5, .L474
 5926              		.loc 1 2018 0
 5927 0004 0646     		mov	r6, r0
 5928              		.loc 1 2019 0
ARM GAS  /tmp/ccDJsI0n.s 			page 105


 5929 0006 0FCD     		ldmia	r5!, {r0, r1, r2, r3}
 5930              	.LVL452:
 5931 0008 3446     		mov	r4, r6
 5932 000a 0FC4     		stmia	r4!, {r0, r1, r2, r3}
 5933 000c 95E80700 		ldmia	r5, {r0, r1, r2}
 5934 0010 84E80700 		stmia	r4, {r0, r1, r2}
 5935              		.loc 1 2020 0
 5936 0014 3046     		mov	r0, r6
 5937 0016 70BC     		pop	{r4, r5, r6}
 5938              		.cfi_restore 6
 5939              		.cfi_restore 5
 5940              		.cfi_restore 4
 5941              		.cfi_def_cfa_offset 0
 5942              	.LVL453:
 5943 0018 7047     		bx	lr
 5944              	.L475:
 5945 001a 00BF     		.align	2
 5946              	.L474:
 5947 001c 00000000 		.word	.LANCHOR6
 5948              		.cfi_endproc
 5949              	.LFE304:
 5950              		.size	mcpwm_get_rpm_dep, .-mcpwm_get_rpm_dep
 5951              		.section	.text.mcpwm_is_dccal_done,"ax",%progbits
 5952              		.align	2
 5953              		.p2align 4,,15
 5954              		.global	mcpwm_is_dccal_done
 5955              		.thumb
 5956              		.thumb_func
 5957              		.type	mcpwm_is_dccal_done, %function
 5958              	mcpwm_is_dccal_done:
 5959              	.LFB305:
 5960              		.loc 1 2022 0
 5961              		.cfi_startproc
 5962              		@ args = 0, pretend = 0, frame = 0
 5963              		@ frame_needed = 0, uses_anonymous_args = 0
 5964              		@ link register save eliminated.
 5965              		.loc 1 2023 0
 5966 0000 014B     		ldr	r3, .L477
 5967 0002 1878     		ldrb	r0, [r3]	@ zero_extendqisi2
 5968              		.loc 1 2024 0
 5969 0004 7047     		bx	lr
 5970              	.L478:
 5971 0006 00BF     		.align	2
 5972              	.L477:
 5973 0008 00000000 		.word	.LANCHOR43
 5974              		.cfi_endproc
 5975              	.LFE305:
 5976              		.size	mcpwm_is_dccal_done, .-mcpwm_is_dccal_done
 5977              		.section	.text.mcpwm_reset_hall_detect_table,"ax",%progbits
 5978              		.align	2
 5979              		.p2align 4,,15
 5980              		.global	mcpwm_reset_hall_detect_table
 5981              		.thumb
 5982              		.thumb_func
 5983              		.type	mcpwm_reset_hall_detect_table, %function
 5984              	mcpwm_reset_hall_detect_table:
 5985              	.LFB306:
ARM GAS  /tmp/ccDJsI0n.s 			page 106


 5986              		.loc 1 2029 0
 5987              		.cfi_startproc
 5988              		@ args = 0, pretend = 0, frame = 0
 5989              		@ frame_needed = 0, uses_anonymous_args = 0
 5990              		@ link register save eliminated.
 5991              		.loc 1 2030 0
 5992 0000 0248     		ldr	r0, .L480
 5993 0002 0021     		movs	r1, #0
 5994 0004 E022     		movs	r2, #224
 5995 0006 FFF7FEBF 		b	memset
 5996              	.LVL454:
 5997              	.L481:
 5998 000a 00BF     		.align	2
 5999              	.L480:
 6000 000c 00000000 		.word	.LANCHOR44
 6001              		.cfi_endproc
 6002              	.LFE306:
 6003              		.size	mcpwm_reset_hall_detect_table, .-mcpwm_reset_hall_detect_table
 6004              		.section	.text.mcpwm_get_hall_detect_result,"ax",%progbits
 6005              		.align	2
 6006              		.p2align 4,,15
 6007              		.global	mcpwm_get_hall_detect_result
 6008              		.thumb
 6009              		.thumb_func
 6010              		.type	mcpwm_get_hall_detect_result, %function
 6011              	mcpwm_get_hall_detect_result:
 6012              	.LFB307:
 6013              		.loc 1 2045 0
 6014              		.cfi_startproc
 6015              		@ args = 0, pretend = 0, frame = 32
 6016              		@ frame_needed = 0, uses_anonymous_args = 0
 6017              	.LVL455:
 6018              		.loc 1 2048 0
 6019 0000 294B     		ldr	r3, .L497
 6020              		.loc 1 2045 0
 6021 0002 F0B5     		push	{r4, r5, r6, r7, lr}
 6022              		.cfi_def_cfa_offset 20
 6023              		.cfi_offset 4, -20
 6024              		.cfi_offset 5, -16
 6025              		.cfi_offset 6, -12
 6026              		.cfi_offset 7, -8
 6027              		.cfi_offset 14, -4
 6028              		.loc 1 2048 0
 6029 0004 1B68     		ldr	r3, [r3]
 6030 0006 93F83031 		ldrb	r3, [r3, #304]	@ zero_extendqisi2
 6031              		.loc 1 2045 0
 6032 000a 89B0     		sub	sp, sp, #36
 6033              		.cfi_def_cfa_offset 56
 6034              		.loc 1 2048 0
 6035 000c 03F0FF06 		and	r6, r3, #255
 6036 0010 002B     		cmp	r3, #0
 6037 0012 45D1     		bne	.L491
 6038 0014 DFF894E0 		ldr	lr, .L497+4
 6039              	.LBB162:
 6040              	.LBB163:
 6041              	.LBB164:
 6042              		.loc 1 2056 0
ARM GAS  /tmp/ccDJsI0n.s 			page 107


 6043 0018 F446     		mov	ip, lr
 6044              	.L484:
 6045              	.LVL456:
 6046              	.LBE164:
 6047              	.LBE163:
 6048              	.LBE162:
 6049              		.loc 1 2045 0
 6050 001a 0123     		movs	r3, #1
 6051 001c 4FF0FF34 		mov	r4, #-1
 6052 0020 0021     		movs	r1, #0
 6053              	.LBB167:
 6054              	.LBB166:
 6055              	.LBB165:
 6056              		.loc 1 2056 0
 6057 0022 C6EBC607 		rsb	r7, r6, r6, lsl #3
 6058              	.LVL457:
 6059              	.L486:
 6060 0026 FA18     		adds	r2, r7, r3
 6061 0028 5EF82250 		ldr	r5, [lr, r2, lsl #2]
 6062 002c 8D42     		cmp	r5, r1
 6063 002e 04DD     		ble	.L485
 6064              		.loc 1 2057 0
 6065 0030 5CF82210 		ldr	r1, [ip, r2, lsl #2]
 6066              	.LVL458:
 6067              		.loc 1 2058 0
 6068 0034 0F29     		cmp	r1, #15
 6069 0036 C8BF     		it	gt
 6070 0038 1C46     		movgt	r4, r3
 6071              	.LVL459:
 6072              	.L485:
 6073              		.loc 1 2055 0 discriminator 2
 6074 003a 0133     		adds	r3, r3, #1
 6075              	.LVL460:
 6076 003c 072B     		cmp	r3, #7
 6077              		.loc 1 2062 0 discriminator 2
 6078 003e 8455     		strb	r4, [r0, r6]
 6079              		.loc 1 2055 0 discriminator 2
 6080 0040 F1D1     		bne	.L486
 6081              	.LBE165:
 6082              	.LBE166:
 6083              		.loc 1 2052 0 discriminator 2
 6084 0042 0136     		adds	r6, r6, #1
 6085              	.LVL461:
 6086 0044 082E     		cmp	r6, #8
 6087 0046 E8D1     		bne	.L484
 6088              	.LVL462:
 6089              	.LBE167:
 6090              		.loc 1 2067 0
 6091 0048 0023     		movs	r3, #0
 6092              	.LVL463:
 6093              		.loc 1 2068 0
 6094 004a 1C46     		mov	r4, r3
 6095              	.LVL464:
 6096              		.loc 1 2067 0
 6097 004c 0193     		str	r3, [sp, #4]
 6098 004e 0293     		str	r3, [sp, #8]
 6099 0050 0393     		str	r3, [sp, #12]
ARM GAS  /tmp/ccDJsI0n.s 			page 108


 6100 0052 0493     		str	r3, [sp, #16]
 6101 0054 0593     		str	r3, [sp, #20]
 6102 0056 0693     		str	r3, [sp, #24]
 6103 0058 0793     		str	r3, [sp, #28]
 6104              	.LVL465:
 6105              		.loc 1 2066 0
 6106 005a 1D46     		mov	r5, r3
 6107              	.LBB168:
 6108              		.loc 1 2074 0
 6109 005c 0126     		movs	r6, #1
 6110              	.LVL466:
 6111 005e 431E     		subs	r3, r0, #1
 6112 0060 0730     		adds	r0, r0, #7
 6113              	.LVL467:
 6114 0062 07E0     		b	.L490
 6115              	.LVL468:
 6116              	.L488:
 6117              		.loc 1 2073 0
 6118 0064 51F81C2C 		ldr	r2, [r1, #-28]
 6119 0068 12B9     		cbnz	r2, .L489
 6120              		.loc 1 2074 0
 6121 006a 41F81C6C 		str	r6, [r1, #-28]
 6122              		.loc 1 2075 0
 6123 006e 0134     		adds	r4, r4, #1
 6124              	.LVL469:
 6125              	.L489:
 6126              		.loc 1 2069 0 discriminator 2
 6127 0070 8342     		cmp	r3, r0
 6128 0072 0AD0     		beq	.L496
 6129              	.LVL470:
 6130              	.L490:
 6131              		.loc 1 2070 0
 6132 0074 13F9012F 		ldrsb	r2, [r3, #1]!
 6133              	.LVL471:
 6134              		.loc 1 2073 0
 6135 0078 08A9     		add	r1, sp, #32
 6136 007a 01EB8201 		add	r1, r1, r2, lsl #2
 6137              		.loc 1 2070 0
 6138 007e 0132     		adds	r2, r2, #1
 6139 0080 F0D1     		bne	.L488
 6140              		.loc 1 2069 0
 6141 0082 8342     		cmp	r3, r0
 6142              		.loc 1 2071 0
 6143 0084 05F10105 		add	r5, r5, #1
 6144              	.LVL472:
 6145              		.loc 1 2069 0
 6146 0088 F4D1     		bne	.L490
 6147              	.LVL473:
 6148              	.L496:
 6149              	.LBE168:
 6150              		.loc 1 2080 0
 6151 008a 022D     		cmp	r5, #2
 6152 008c 05D1     		bne	.L492
 6153              		.loc 1 2080 0 is_stmt 0 discriminator 1
 6154 008e A01F     		subs	r0, r4, #6
 6155              	.LVL474:
 6156 0090 18BF     		it	ne
ARM GAS  /tmp/ccDJsI0n.s 			page 109


 6157 0092 4FF0FF30 		movne	r0, #-1
 6158              	.LVL475:
 6159              	.L483:
 6160              		.loc 1 2085 0 is_stmt 1
 6161 0096 09B0     		add	sp, sp, #36
 6162              		.cfi_remember_state
 6163              		.cfi_def_cfa_offset 20
 6164              		@ sp needed
 6165 0098 F0BD     		pop	{r4, r5, r6, r7, pc}
 6166              	.LVL476:
 6167              	.L492:
 6168              		.cfi_restore_state
 6169              		.loc 1 2083 0
 6170 009a 4FF0FF30 		mov	r0, #-1
 6171              	.LVL477:
 6172 009e FAE7     		b	.L483
 6173              	.LVL478:
 6174              	.L491:
 6175              		.loc 1 2049 0
 6176 00a0 6FF00200 		mvn	r0, #2
 6177              	.LVL479:
 6178 00a4 F7E7     		b	.L483
 6179              	.L498:
 6180 00a6 00BF     		.align	2
 6181              	.L497:
 6182 00a8 00000000 		.word	.LANCHOR0
 6183 00ac 00000000 		.word	.LANCHOR44
 6184              		.cfi_endproc
 6185              	.LFE307:
 6186              		.size	mcpwm_get_hall_detect_result, .-mcpwm_get_hall_detect_result
 6187              		.section	.text.mcpwm_read_hall_phase,"ax",%progbits
 6188              		.align	2
 6189              		.p2align 4,,15
 6190              		.global	mcpwm_read_hall_phase
 6191              		.thumb
 6192              		.thumb_func
 6193              		.type	mcpwm_read_hall_phase, %function
 6194              	mcpwm_read_hall_phase:
 6195              	.LFB308:
 6196              		.loc 1 2092 0
 6197              		.cfi_startproc
 6198              		@ args = 0, pretend = 0, frame = 0
 6199              		@ frame_needed = 0, uses_anonymous_args = 0
 6200              		@ link register save eliminated.
 6201              	.LBB169:
 6202              	.LBB170:
 6203              		.loc 1 2097 0
 6204 0000 0D4B     		ldr	r3, .L503
 6205 0002 0E49     		ldr	r1, .L503+4
 6206 0004 1A69     		ldr	r2, [r3, #16]
 6207              	.LBE170:
 6208              	.LBE169:
 6209              		.loc 1 2093 0
 6210 0006 0E48     		ldr	r0, .L503+8
 6211              	.LBB175:
 6212              	.LBB171:
 6213              		.loc 1 2097 0
ARM GAS  /tmp/ccDJsI0n.s 			page 110


 6214 0008 1B69     		ldr	r3, [r3, #16]
 6215 000a 0969     		ldr	r1, [r1, #16]
 6216              	.LBE171:
 6217              	.LBE175:
 6218              		.loc 1 2093 0
 6219 000c 0068     		ldr	r0, [r0]
 6220              	.LBB176:
 6221              	.LBB172:
 6222              		.loc 1 2097 0
 6223 000e C1F3C021 		ubfx	r1, r1, #11, #1
 6224 0012 C3F3C013 		ubfx	r3, r3, #7, #1
 6225 0016 8900     		lsls	r1, r1, #2
 6226              	.LBE172:
 6227              	.LBE176:
 6228              		.loc 1 2093 0
 6229 0018 0028     		cmp	r0, #0
 6230              	.LBB177:
 6231              	.LBB173:
 6232              		.loc 1 2097 0
 6233 001a C2F38012 		ubfx	r2, r2, #6, #1
 6234 001e 41EA4303 		orr	r3, r1, r3, lsl #1
 6235              	.LBE173:
 6236              	.LBE177:
 6237              		.loc 1 2093 0
 6238 0022 18BF     		it	ne
 6239 0024 0820     		movne	r0, #8
 6240              	.LBB178:
 6241              	.LBB174:
 6242              		.loc 1 2097 0
 6243 0026 1343     		orrs	r3, r3, r2
 6244              	.LBE174:
 6245              	.LBE178:
 6246              		.loc 1 2092 0
 6247 0028 10B4     		push	{r4}
 6248              		.cfi_def_cfa_offset 4
 6249              		.cfi_offset 4, -4
 6250              		.loc 1 2093 0
 6251 002a 0344     		add	r3, r3, r0
 6252 002c 054C     		ldr	r4, .L503+12
 6253              		.loc 1 2094 0
 6254 002e 54F82300 		ldr	r0, [r4, r3, lsl #2]
 6255 0032 5DF8044B 		ldr	r4, [sp], #4
 6256              		.cfi_restore 4
 6257              		.cfi_def_cfa_offset 0
 6258 0036 7047     		bx	lr
 6259              	.L504:
 6260              		.align	2
 6261              	.L503:
 6262 0038 00040240 		.word	1073873920
 6263 003c 00080240 		.word	1073874944
 6264 0040 00000000 		.word	.LANCHOR4
 6265 0044 00000000 		.word	.LANCHOR29
 6266              		.cfi_endproc
 6267              	.LFE308:
 6268              		.size	mcpwm_read_hall_phase, .-mcpwm_read_hall_phase
 6269              		.section	.text.set_duty_cycle_ll,"ax",%progbits
 6270              		.align	2
ARM GAS  /tmp/ccDJsI0n.s 			page 111


 6271              		.p2align 4,,15
 6272              		.thumb
 6273              		.thumb_func
 6274              		.type	set_duty_cycle_ll, %function
 6275              	set_duty_cycle_ll:
 6276              	.LFB289:
 6277              		.loc 1 948 0
 6278              		.cfi_startproc
 6279              		@ args = 0, pretend = 0, frame = 0
 6280              		@ frame_needed = 0, uses_anonymous_args = 0
 6281              	.LVL480:
 6282 0000 38B5     		push	{r3, r4, r5, lr}
 6283              		.cfi_def_cfa_offset 16
 6284              		.cfi_offset 3, -16
 6285              		.cfi_offset 4, -12
 6286              		.cfi_offset 5, -8
 6287              		.cfi_offset 14, -4
 6288              		.loc 1 949 0
 6289 0002 624C     		ldr	r4, .L553
 6290 0004 2368     		ldr	r3, [r4]
 6291 0006 D3ED137A 		flds	s15, [r3, #76]
 6292 000a F4EEC07A 		fcmpes	s15, s0
 6293 000e F1EE10FA 		fmstat
 6294 0012 27D8     		bhi	.L544
 6295              		.loc 1 950 0
 6296 0014 5E4A     		ldr	r2, .L553+4
 6297 0016 0121     		movs	r1, #1
 6298 0018 1160     		str	r1, [r2]
 6299              	.L508:
 6300              		.loc 1 956 0
 6301 001a D3ED137A 		flds	s15, [r3, #76]
 6302 001e B4EEE70A 		fcmpes	s0, s15
 6303 0022 F1EE10FA 		fmstat
 6304 0026 32D5     		bpl	.L545
 6305              	.L550:
 6306              	.LBB179:
 6307              		.loc 1 958 0
 6308 0028 5A4A     		ldr	r2, .L553+8
 6309 002a 1178     		ldrb	r1, [r2]	@ zero_extendqisi2
 6310 002c 0229     		cmp	r1, #2
 6311 002e 69D0     		beq	.L512
 6312              		.loc 1 958 0 is_stmt 0 discriminator 1
 6313 0030 1278     		ldrb	r2, [r2]	@ zero_extendqisi2
 6314 0032 032A     		cmp	r2, #3
 6315 0034 66D0     		beq	.L512
 6316              		.loc 1 964 0 is_stmt 1
 6317 0036 584D     		ldr	r5, .L553+12
 6318              		.loc 1 961 0
 6319 0038 D3ED087A 		flds	s15, [r3, #32]
 6320              	.LVL481:
 6321              		.loc 1 964 0
 6322 003c 2A78     		ldrb	r2, [r5]	@ zero_extendqisi2
 6323 003e D2B2     		uxtb	r2, r2
 6324 0040 012A     		cmp	r2, #1
 6325 0042 66D0     		beq	.L516
 6326              	.L552:
 6327 0044 022A     		cmp	r2, #2
ARM GAS  /tmp/ccDJsI0n.s 			page 112


 6328 0046 4AD1     		bne	.L505
 6329              		.loc 1 967 0
 6330 0048 544A     		ldr	r2, .L553+16
 6331 004a 92ED007A 		flds	s14, [r2]
 6332 004e B0EEC77A 		fabss	s14, s14
 6333 0052 F4EEC77A 		fcmpes	s15, s14
 6334 0056 F1EE10FA 		fmstat
 6335 005a 40F18D80 		bpl	.L546
 6336              		.loc 1 968 0
 6337 005e 93ED130A 		flds	s0, [r3, #76]
 6338              	.LVL482:
 6339              		.loc 1 973 0
 6340 0062 1EE0     		b	.L520
 6341              	.LVL483:
 6342              	.L544:
 6343              	.LBE179:
 6344              		.loc 1 951 0
 6345 0064 D3ED137A 		flds	s15, [r3, #76]
 6346 0068 F1EE677A 		fnegs	s15, s15
 6347 006c B4EEE70A 		fcmpes	s0, s15
 6348 0070 F1EE10FA 		fmstat
 6349 0074 D1D8     		bhi	.L508
 6350              		.loc 1 953 0
 6351 0076 464A     		ldr	r2, .L553+4
 6352 0078 0021     		movs	r1, #0
 6353 007a 1160     		str	r1, [r2]
 6354              		.loc 1 956 0
 6355 007c D3ED137A 		flds	s15, [r3, #76]
 6356              		.loc 1 952 0
 6357 0080 B1EE400A 		fnegs	s0, s0
 6358              	.LVL484:
 6359              		.loc 1 956 0
 6360 0084 B4EEE70A 		fcmpes	s0, s15
 6361 0088 F1EE10FA 		fmstat
 6362 008c CCD4     		bmi	.L550
 6363              	.L545:
 6364              		.loc 1 983 0
 6365 008e D3ED147A 		flds	s15, [r3, #80]
 6366 0092 414D     		ldr	r5, .L553+12
 6367 0094 B4EEE70A 		fcmpes	s0, s15
 6368 0098 F1EE10FA 		fmstat
 6369              		.loc 1 984 0
 6370 009c C8BF     		it	gt
 6371 009e 93ED140A 		fldsgt	s0, [r3, #80]
 6372              	.LVL485:
 6373              	.L520:
 6374              		.loc 1 987 0
 6375 00a2 FFF7FEFF 		bl	set_duty_cycle_hw
 6376              	.LVL486:
 6377              		.loc 1 989 0
 6378 00a6 2368     		ldr	r3, [r4]
 6379 00a8 9C78     		ldrb	r4, [r3, #2]	@ zero_extendqisi2
 6380 00aa E4B2     		uxtb	r4, r4
 6381 00ac 012C     		cmp	r4, #1
 6382 00ae 58D0     		beq	.L551
 6383              		.loc 1 994 0
 6384 00b0 3B4A     		ldr	r2, .L553+20
ARM GAS  /tmp/ccDJsI0n.s 			page 113


 6385 00b2 1278     		ldrb	r2, [r2]	@ zero_extendqisi2
 6386 00b4 A2B1     		cbz	r2, .L523
 6387              		.loc 1 995 0
 6388 00b6 2978     		ldrb	r1, [r5]	@ zero_extendqisi2
 6389 00b8 374A     		ldr	r2, .L553+12
 6390 00ba 0229     		cmp	r1, #2
 6391 00bc 0FD0     		beq	.L505
 6392              		.loc 1 996 0
 6393 00be 1178     		ldrb	r1, [r2]	@ zero_extendqisi2
 6394 00c0 79BB     		cbnz	r1, .L525
 6395              		.loc 1 997 0
 6396 00c2 0220     		movs	r0, #2
 6397              		.loc 1 999 0
 6398 00c4 3549     		ldr	r1, .L553+16
 6399              		.loc 1 997 0
 6400 00c6 1070     		strb	r0, [r2]
 6401              		.loc 1 999 0
 6402 00c8 D1ED007A 		flds	s15, [r1]
 6403 00cc 93ED197A 		flds	s14, [r3, #100]
 6404 00d0 F0EEE77A 		fabss	s15, s15
 6405 00d4 F4EEC77A 		fcmpes	s15, s14
 6406 00d8 F1EE10FA 		fmstat
 6407 00dc 0DD4     		bmi	.L549
 6408              	.L505:
 6409 00de 38BD     		pop	{r3, r4, r5, pc}
 6410              	.L523:
 6411              		.loc 1 1010 0
 6412 00e0 2B78     		ldrb	r3, [r5]	@ zero_extendqisi2
 6413 00e2 2D4A     		ldr	r2, .L553+12
 6414 00e4 022B     		cmp	r3, #2
 6415 00e6 FAD0     		beq	.L505
 6416              		.loc 1 1011 0
 6417 00e8 0223     		movs	r3, #2
 6418 00ea 1370     		strb	r3, [r2]
 6419              		.loc 1 1012 0
 6420 00ec FFF7FEFF 		bl	mcpwm_read_hall_phase
 6421              	.LVL487:
 6422 00f0 2C4B     		ldr	r3, .L553+24
 6423 00f2 1860     		str	r0, [r3]
 6424              		.loc 1 1013 0
 6425 00f4 1868     		ldr	r0, [r3]
 6426 00f6 FFF7FEFF 		bl	set_next_comm_step
 6427              	.LVL488:
 6428              	.L549:
 6429              		.loc 1 1014 0
 6430 00fa 0120     		movs	r0, #1
 6431              		.loc 1 1018 0
 6432 00fc BDE83840 		pop	{r3, r4, r5, lr}
 6433              		.cfi_remember_state
 6434              		.cfi_restore 14
 6435              		.cfi_restore 5
 6436              		.cfi_restore 4
 6437              		.cfi_restore 3
 6438              		.cfi_def_cfa_offset 0
 6439              		.loc 1 1014 0
 6440 0100 FFF7FEBF 		b	commutate
 6441              	.LVL489:
ARM GAS  /tmp/ccDJsI0n.s 			page 114


 6442              	.L512:
 6443              		.cfi_restore_state
 6444              	.LBB188:
 6445              		.loc 1 964 0
 6446 0104 244D     		ldr	r5, .L553+12
 6447              		.loc 1 959 0
 6448 0106 D3ED097A 		flds	s15, [r3, #36]
 6449              	.LVL490:
 6450              		.loc 1 964 0
 6451 010a 2A78     		ldrb	r2, [r5]	@ zero_extendqisi2
 6452 010c D2B2     		uxtb	r2, r2
 6453 010e 012A     		cmp	r2, #1
 6454 0110 98D1     		bne	.L552
 6455              	.L516:
 6456              	.LBB180:
 6457              	.LBB181:
 6458              		.loc 1 841 0
 6459 0112 254A     		ldr	r2, .L553+28
 6460              		.loc 1 840 0
 6461 0114 0023     		movs	r3, #0
 6462 0116 2B70     		strb	r3, [r5]
 6463              		.loc 1 841 0
 6464 0118 1360     		str	r3, [r2]
 6465              	.LBE181:
 6466              	.LBE180:
 6467              	.LBE188:
 6468              		.loc 1 1018 0
 6469 011a BDE83840 		pop	{r3, r4, r5, lr}
 6470              		.cfi_remember_state
 6471              		.cfi_restore 14
 6472              		.cfi_restore 5
 6473              		.cfi_restore 4
 6474              		.cfi_restore 3
 6475              		.cfi_def_cfa_offset 0
 6476              	.LBB189:
 6477              	.LBB183:
 6478              	.LBB182:
 6479              		.loc 1 842 0
 6480 011e FFF7FEBF 		b	stop_pwm_hw
 6481              	.LVL491:
 6482              	.L525:
 6483              		.cfi_restore_state
 6484              	.LBE182:
 6485              	.LBE183:
 6486              	.LBE189:
 6487              		.loc 1 1002 0
 6488 0122 1178     		ldrb	r1, [r2]	@ zero_extendqisi2
 6489 0124 0329     		cmp	r1, #3
 6490 0126 DAD1     		bne	.L505
 6491              		.loc 1 1003 0
 6492 0128 1C49     		ldr	r1, .L553+16
 6493 012a D1ED007A 		flds	s15, [r1]
 6494 012e 93ED197A 		flds	s14, [r3, #100]
 6495 0132 F0EEE77A 		fabss	s15, s15
 6496 0136 F4EEC77A 		fcmpes	s15, s14
 6497 013a F1EE10FA 		fmstat
 6498 013e CED5     		bpl	.L505
ARM GAS  /tmp/ccDJsI0n.s 			page 115


 6499              	.LBB190:
 6500              	.LBB191:
 6501              		.loc 1 743 0
 6502 0140 1A49     		ldr	r1, .L553+32
 6503 0142 91ED007A 		flds	s14, [r1]
 6504              	.LBE191:
 6505              	.LBE190:
 6506              		.loc 1 1003 0
 6507 0146 D3ED1B7A 		flds	s15, [r3, #108]
 6508 014a B4EEE77A 		fcmpes	s14, s15
 6509 014e F1EE10FA 		fmstat
 6510 0152 C4D5     		bpl	.L505
 6511              		.loc 1 1004 0
 6512 0154 0223     		movs	r3, #2
 6513 0156 1370     		strb	r3, [r2]
 6514              		.loc 1 1005 0
 6515 0158 0120     		movs	r0, #1
 6516              		.loc 1 1018 0
 6517 015a BDE83840 		pop	{r3, r4, r5, lr}
 6518              		.cfi_remember_state
 6519              		.cfi_restore 14
 6520              		.cfi_restore 5
 6521              		.cfi_restore 4
 6522              		.cfi_restore 3
 6523              		.cfi_def_cfa_offset 0
 6524              		.loc 1 1005 0
 6525 015e FFF7FEBF 		b	commutate
 6526              	.LVL492:
 6527              	.L551:
 6528              		.cfi_restore_state
 6529              		.loc 1 991 0
 6530 0162 104B     		ldr	r3, .L553+24
 6531              		.loc 1 990 0
 6532 0164 0222     		movs	r2, #2
 6533 0166 2A70     		strb	r2, [r5]
 6534              		.loc 1 991 0
 6535 0168 1868     		ldr	r0, [r3]
 6536 016a FFF7FEFF 		bl	set_next_comm_step
 6537              	.LVL493:
 6538              		.loc 1 992 0
 6539 016e 2046     		mov	r0, r4
 6540              		.loc 1 1018 0
 6541 0170 BDE83840 		pop	{r3, r4, r5, lr}
 6542              		.cfi_remember_state
 6543              		.cfi_restore 14
 6544              		.cfi_restore 5
 6545              		.cfi_restore 4
 6546              		.cfi_restore 3
 6547              		.cfi_def_cfa_offset 0
 6548              		.loc 1 992 0
 6549 0174 FFF7FEBF 		b	commutate
 6550              	.LVL494:
 6551              	.L546:
 6552              		.cfi_restore_state
 6553              	.LBB192:
 6554              	.LBB184:
 6555              	.LBB185:
ARM GAS  /tmp/ccDJsI0n.s 			page 116


 6556              		.loc 1 865 0
 6557 0178 0B4B     		ldr	r3, .L553+28
 6558              		.loc 1 864 0
 6559 017a 0321     		movs	r1, #3
 6560              		.loc 1 865 0
 6561 017c 0022     		movs	r2, #0
 6562              		.loc 1 864 0
 6563 017e 2970     		strb	r1, [r5]
 6564              		.loc 1 865 0
 6565 0180 1A60     		str	r2, [r3]
 6566              	.LBE185:
 6567              	.LBE184:
 6568              	.LBE192:
 6569              		.loc 1 1018 0
 6570 0182 BDE83840 		pop	{r3, r4, r5, lr}
 6571              		.cfi_restore 14
 6572              		.cfi_restore 5
 6573              		.cfi_restore 4
 6574              		.cfi_restore 3
 6575              		.cfi_def_cfa_offset 0
 6576              	.LBB193:
 6577              	.LBB187:
 6578              	.LBB186:
 6579              		.loc 1 866 0
 6580 0186 FFF7FEBF 		b	full_brake_hw
 6581              	.LVL495:
 6582              	.L554:
 6583 018a 00BF     		.align	2
 6584              	.L553:
 6585 018c 00000000 		.word	.LANCHOR0
 6586 0190 00000000 		.word	.LANCHOR4
 6587 0194 00000000 		.word	.LANCHOR35
 6588 0198 00000000 		.word	.LANCHOR2
 6589 019c 00000000 		.word	.LANCHOR10
 6590 01a0 00000000 		.word	.LANCHOR11
 6591 01a4 00000000 		.word	.LANCHOR3
 6592 01a8 00000000 		.word	.LANCHOR38
 6593 01ac 00000000 		.word	.LANCHOR37
 6594              	.LBE186:
 6595              	.LBE187:
 6596              	.LBE193:
 6597              		.cfi_endproc
 6598              	.LFE289:
 6599              		.size	set_duty_cycle_ll, .-set_duty_cycle_ll
 6600              		.section	.text.set_duty_cycle_hl,"ax",%progbits
 6601              		.align	2
 6602              		.p2align 4,,15
 6603              		.thumb
 6604              		.thumb_func
 6605              		.type	set_duty_cycle_hl, %function
 6606              	set_duty_cycle_hl:
 6607              	.LFB288:
 6608              		.loc 1 897 0
 6609              		.cfi_startproc
 6610              		@ args = 0, pretend = 0, frame = 8
 6611              		@ frame_needed = 0, uses_anonymous_args = 0
 6612              	.LVL496:
ARM GAS  /tmp/ccDJsI0n.s 			page 117


 6613 0000 10B5     		push	{r4, lr}
 6614              		.cfi_def_cfa_offset 8
 6615              		.cfi_offset 4, -8
 6616              		.cfi_offset 14, -4
 6617              		.loc 1 898 0
 6618 0002 3B4C     		ldr	r4, .L583
 6619 0004 2368     		ldr	r3, [r4]
 6620              		.loc 1 897 0
 6621 0006 82B0     		sub	sp, sp, #8
 6622              		.cfi_def_cfa_offset 16
 6623              		.loc 1 898 0
 6624 0008 D3ED147A 		flds	s15, [r3, #80]
 6625 000c D3ED140A 		flds	s1, [r3, #80]
 6626              		.loc 1 897 0
 6627 0010 02A8     		add	r0, sp, #8
 6628 0012 20ED010A 		fstmdbs	r0!, {s0}
 6629              		.loc 1 898 0
 6630 0016 B1EE670A 		fnegs	s0, s15
 6631              	.LVL497:
 6632 001a FFF7FEFF 		bl	utils_truncate_number
 6633              	.LVL498:
 6634              		.loc 1 900 0
 6635 001e 354B     		ldr	r3, .L583+4
 6636 0020 1A78     		ldrb	r2, [r3]	@ zero_extendqisi2
 6637 0022 012A     		cmp	r2, #1
 6638 0024 5CD0     		beq	.L581
 6639              		.loc 1 905 0
 6640 0026 344A     		ldr	r2, .L583+8
 6641 0028 DDED017A 		flds	s15, [sp, #4]
 6642 002c C2ED007A 		fsts	s15, [r2]
 6643              		.loc 1 907 0
 6644 0030 1A78     		ldrb	r2, [r3]	@ zero_extendqisi2
 6645 0032 022A     		cmp	r2, #2
 6646 0034 2AD0     		beq	.L555
 6647              		.loc 1 908 0
 6648 0036 2268     		ldr	r2, [r4]
 6649 0038 92ED137A 		flds	s14, [r2, #76]
 6650 003c F0EEE76A 		fabss	s13, s15
 6651 0040 F4EEC76A 		fcmpes	s13, s14
 6652 0044 F1EE10FA 		fmstat
 6653 0048 22DB     		blt	.L576
 6654              		.loc 1 911 0
 6655 004a 2C4B     		ldr	r3, .L583+12
 6656 004c 93ED007A 		flds	s14, [r3]
 6657 0050 D2ED136A 		flds	s13, [r2, #76]
 6658 0054 B0EEC77A 		fabss	s14, s14
 6659 0058 B4EEE67A 		fcmpes	s14, s13
 6660 005c F1EE10FA 		fmstat
 6661 0060 10D5     		bpl	.L560
 6662              		.loc 1 912 0
 6663 0062 F5EEC07A 		fcmpezs	s15
 6664 0066 D2ED136A 		flds	s13, [r2, #76]
 6665 006a F1EE10FA 		fmstat
 6666 006e BFEE007A 		fconsts	s14, #240
 6667 0072 F7EE007A 		fconsts	s15, #112
 6668 0076 48BF     		it	mi
 6669 0078 F0EE477A 		fcpysmi	s15, s14
ARM GAS  /tmp/ccDJsI0n.s 			page 118


 6670 007c 67EEA67A 		fmuls	s15, s15, s13
 6671 0080 C3ED007A 		fsts	s15, [r3]
 6672              	.L560:
 6673              		.loc 1 915 0
 6674 0084 93ED000A 		flds	s0, [r3]
 6675 0088 FFF7FEFF 		bl	set_duty_cycle_ll
 6676              	.LVL499:
 6677              	.L555:
 6678              		.loc 1 934 0
 6679 008c 02B0     		add	sp, sp, #8
 6680              		.cfi_remember_state
 6681              		.cfi_def_cfa_offset 8
 6682              	.LVL500:
 6683              		@ sp needed
 6684 008e 10BD     		pop	{r4, pc}
 6685              	.LVL501:
 6686              	.L576:
 6687              		.cfi_restore_state
 6688              		.loc 1 919 0
 6689 0090 9178     		ldrb	r1, [r2, #2]	@ zero_extendqisi2
 6690 0092 0129     		cmp	r1, #1
 6691 0094 0FD0     		beq	.L582
 6692              		.loc 1 926 0
 6693 0096 1A49     		ldr	r1, .L583+16
 6694 0098 D1ED007A 		flds	s15, [r1]
 6695 009c 92ED087A 		flds	s14, [r2, #32]
 6696 00a0 F0EEE77A 		fabss	s15, s15
 6697 00a4 F4EEC77A 		fcmpes	s15, s14
 6698 00a8 F1EE10FA 		fmstat
 6699 00ac 0FDD     		ble	.L578
 6700              	.L580:
 6701              		.loc 1 927 0
 6702 00ae 0222     		movs	r2, #2
 6703 00b0 1A70     		strb	r2, [r3]
 6704              		.loc 1 934 0
 6705 00b2 02B0     		add	sp, sp, #8
 6706              		.cfi_remember_state
 6707              		.cfi_def_cfa_offset 8
 6708              	.LVL502:
 6709              		@ sp needed
 6710 00b4 10BD     		pop	{r4, pc}
 6711              	.LVL503:
 6712              	.L582:
 6713              		.cfi_restore_state
 6714              		.loc 1 920 0
 6715 00b6 114A     		ldr	r2, .L583+12
 6716 00b8 9FED127A 		flds	s14, .L583+20
