ARM GAS  /tmp/ccqexXde.s 			page 1


   1              		.syntax unified
   2              		.cpu cortex-m4
   3              		.eabi_attribute 27, 1
   4              		.eabi_attribute 28, 1
   5              		.fpu fpv4-sp-d16
   6              		.eabi_attribute 20, 1
   7              		.eabi_attribute 21, 1
   8              		.eabi_attribute 23, 3
   9              		.eabi_attribute 24, 1
  10              		.eabi_attribute 25, 1
  11              		.eabi_attribute 26, 1
  12              		.eabi_attribute 30, 2
  13              		.eabi_attribute 34, 1
  14              		.eabi_attribute 18, 4
  15              		.thumb
  16              		.file	"spi_lld.c"
  17              		.text
  18              	.Ltext0:
  19              		.cfi_sections	.debug_frame
  20              		.section	.text.spi_lld_serve_tx_interrupt,"ax",%progbits
  21              		.align	2
  22              		.p2align 4,,15
  23              		.thumb
  24              		.thumb_func
  25              		.type	spi_lld_serve_tx_interrupt, %function
  26              	spi_lld_serve_tx_interrupt:
  27              	.LFB257:
  28              		.file 1 "ChibiOS_3.0.2/os/hal/ports/STM32/LLD/SPIv1/spi_lld.c"
  29              		.loc 1 158 0
  30              		.cfi_startproc
  31              		@ args = 0, pretend = 0, frame = 0
  32              		@ frame_needed = 0, uses_anonymous_args = 0
  33              		@ link register save eliminated.
  34              	.LVL0:
  35              		.loc 1 163 0
  36 0000 11F00C0F 		tst	r1, #12
  37 0004 00D1     		bne	.L4
  38 0006 7047     		bx	lr
  39              	.L4:
  40              	.LVL1:
  41              	.LBB56:
  42              	.LBB57:
  43              		.file 2 "ChibiOS_3.0.2/os/hal/osal/rt/osal.h"
  44              		.loc 2 462 0
  45 0008 0148     		ldr	r0, .L5
  46              	.LVL2:
  47 000a FFF7FEBF 		b	chSysHalt
  48              	.LVL3:
  49              	.L6:
  50 000e 00BF     		.align	2
  51              	.L5:
  52 0010 00000000 		.word	.LC0
  53              	.LBE57:
  54              	.LBE56:
  55              		.cfi_endproc
  56              	.LFE257:
  57              		.size	spi_lld_serve_tx_interrupt, .-spi_lld_serve_tx_interrupt
ARM GAS  /tmp/ccqexXde.s 			page 2


  58              		.section	.text.spi_lld_serve_rx_interrupt,"ax",%progbits
  59              		.align	2
  60              		.p2align 4,,15
  61              		.thumb
  62              		.thumb_func
  63              		.type	spi_lld_serve_rx_interrupt, %function
  64              	spi_lld_serve_rx_interrupt:
  65              	.LFB256:
  66              		.loc 1 132 0
  67              		.cfi_startproc
  68              		@ args = 0, pretend = 0, frame = 0
  69              		@ frame_needed = 0, uses_anonymous_args = 0
  70              	.LVL4:
  71              		.loc 1 136 0
  72 0000 11F00C0F 		tst	r1, #12
  73              		.loc 1 132 0
  74 0004 38B5     		push	{r3, r4, r5, lr}
  75              		.cfi_def_cfa_offset 16
  76              		.cfi_offset 3, -16
  77              		.cfi_offset 4, -12
  78              		.cfi_offset 5, -8
  79              		.cfi_offset 14, -4
  80              		.loc 1 132 0
  81 0006 0446     		mov	r4, r0
  82              		.loc 1 136 0
  83 0008 34D1     		bne	.L22
  84              	.LVL5:
  85              	.L8:
  86              		.loc 1 144 0
  87 000a 606A     		ldr	r0, [r4, #36]
  88 000c 0268     		ldr	r2, [r0]
  89 000e 1368     		ldr	r3, [r2]
  90 0010 23F01F03 		bic	r3, r3, #31
  91 0014 1360     		str	r3, [r2]
  92              	.L9:
  93              		.loc 1 144 0 is_stmt 0 discriminator 2
  94 0016 1368     		ldr	r3, [r2]
  95 0018 D907     		lsls	r1, r3, #31
  96 001a FCD4     		bmi	.L9
  97              		.loc 1 144 0 discriminator 3
  98 001c 057A     		ldrb	r5, [r0, #8]	@ zero_extendqisi2
  99              		.loc 1 145 0 is_stmt 1 discriminator 3
 100 001e 216A     		ldr	r1, [r4, #32]
 101              		.loc 1 144 0 discriminator 3
 102 0020 4068     		ldr	r0, [r0, #4]
 103              		.loc 1 145 0 discriminator 3
 104 0022 0A68     		ldr	r2, [r1]
 105              		.loc 1 144 0 discriminator 3
 106 0024 3D23     		movs	r3, #61
 107 0026 AB40     		lsls	r3, r3, r5
 108 0028 0360     		str	r3, [r0]
 109              		.loc 1 145 0 discriminator 3
 110 002a 1368     		ldr	r3, [r2]
 111 002c 23F01F03 		bic	r3, r3, #31
 112 0030 1360     		str	r3, [r2]
 113              	.L10:
 114              		.loc 1 145 0 is_stmt 0 discriminator 2
ARM GAS  /tmp/ccqexXde.s 			page 3


 115 0032 1368     		ldr	r3, [r2]
 116 0034 DB07     		lsls	r3, r3, #31
 117 0036 FCD4     		bmi	.L10
 118              		.loc 1 149 0 is_stmt 1 discriminator 3
 119 0038 6368     		ldr	r3, [r4, #4]
 120              		.loc 1 145 0 discriminator 3
 121 003a 087A     		ldrb	r0, [r1, #8]	@ zero_extendqisi2
 122              		.loc 1 149 0 discriminator 3
 123 003c 1A68     		ldr	r2, [r3]
 124              		.loc 1 145 0 discriminator 3
 125 003e 4968     		ldr	r1, [r1, #4]
 126 0040 3D23     		movs	r3, #61
 127 0042 8340     		lsls	r3, r3, r0
 128 0044 0B60     		str	r3, [r1]
 129              		.loc 1 149 0 discriminator 3
 130 0046 92B1     		cbz	r2, .L11
 131              		.loc 1 149 0 is_stmt 0 discriminator 1
 132 0048 0423     		movs	r3, #4
 133 004a 2370     		strb	r3, [r4]
 134 004c 2046     		mov	r0, r4
 135 004e 9047     		blx	r2
 136              	.LVL6:
 137 0050 2378     		ldrb	r3, [r4]	@ zero_extendqisi2
 138 0052 042B     		cmp	r3, #4
 139 0054 0BD0     		beq	.L11
 140              	.L12:
 141              	.LVL7:
 142              	.LBB58:
 143              	.LBB59:
 144              	.LBB60:
 145              	.LBB61:
 146              	.LBB62:
 147              	.LBB63:
 148              		.file 3 "ChibiOS_3.0.2/os/ext/CMSIS/include/core_cmFunc.h"
 149              		.loc 3 546 0 is_stmt 1 discriminator 4
 150 0056 2023     		movs	r3, #32
 151              	@ 546 "ChibiOS_3.0.2/os/ext/CMSIS/include/core_cmFunc.h" 1
 152 0058 83F31188 		MSR basepri, r3
 153              	@ 0 "" 2
 154              	.LVL8:
 155              		.thumb
 156              	.LBE63:
 157              	.LBE62:
 158              	.LBE61:
 159              	.LBE60:
 160              	.LBE59:
 161              	.LBE58:
 162              	.LBB64:
 163              	.LBB65:
 164              		.loc 2 728 0 discriminator 4
 165 005c 0021     		movs	r1, #0
 166 005e 04F10800 		add	r0, r4, #8
 167              	.LVL9:
 168 0062 FFF7FEFF 		bl	chThdResumeI
 169              	.LVL10:
 170              	.LBE65:
 171              	.LBE64:
ARM GAS  /tmp/ccqexXde.s 			page 4


 172              	.LBB66:
 173              	.LBB67:
 174              	.LBB68:
 175              	.LBB69:
 176              	.LBB70:
 177              	.LBB71:
 178              		.loc 3 546 0 discriminator 4
 179 0066 0023     		movs	r3, #0
 180              	@ 546 "ChibiOS_3.0.2/os/ext/CMSIS/include/core_cmFunc.h" 1
 181 0068 83F31188 		MSR basepri, r3
 182              	@ 0 "" 2
 183              		.thumb
 184 006c 38BD     		pop	{r3, r4, r5, pc}
 185              	.LVL11:
 186              	.L11:
 187              	.LBE71:
 188              	.LBE70:
 189              	.LBE69:
 190              	.LBE68:
 191              	.LBE67:
 192              	.LBE66:
 193              		.loc 1 149 0 discriminator 3
 194 006e 0223     		movs	r3, #2
 195 0070 2370     		strb	r3, [r4]
 196 0072 F0E7     		b	.L12
 197              	.LVL12:
 198              	.L22:
 199              	.LBB72:
 200              	.LBB73:
 201              		.loc 2 462 0
 202 0074 0148     		ldr	r0, .L23
 203              	.LVL13:
 204 0076 FFF7FEFF 		bl	chSysHalt
 205              	.LVL14:
 206 007a C6E7     		b	.L8
 207              	.L24:
 208              		.align	2
 209              	.L23:
 210 007c 00000000 		.word	.LC0
 211              	.LBE73:
 212              	.LBE72:
 213              		.cfi_endproc
 214              	.LFE256:
 215              		.size	spi_lld_serve_rx_interrupt, .-spi_lld_serve_rx_interrupt
 216              		.section	.text.spi_lld_init,"ax",%progbits
 217              		.align	2
 218              		.p2align 4,,15
 219              		.global	spi_lld_init
 220              		.thumb
 221              		.thumb_func
 222              		.type	spi_lld_init, %function
 223              	spi_lld_init:
 224              	.LFB258:
 225              		.loc 1 185 0
 226              		.cfi_startproc
 227              		@ args = 0, pretend = 0, frame = 0
 228              		@ frame_needed = 0, uses_anonymous_args = 0
ARM GAS  /tmp/ccqexXde.s 			page 5


 229 0000 10B5     		push	{r4, lr}
 230              		.cfi_def_cfa_offset 8
 231              		.cfi_offset 4, -8
 232              		.cfi_offset 14, -4
 233              		.loc 1 190 0
 234 0002 0A4C     		ldr	r4, .L27
 235              		.loc 1 187 0
 236 0004 0A4B     		ldr	r3, .L27+4
 237 0006 4FF6FF72 		movw	r2, #65535
 238              		.loc 1 190 0
 239 000a 2046     		mov	r0, r4
 240              		.loc 1 187 0
 241 000c 1A80     		strh	r2, [r3]	@ movhi
 242              		.loc 1 190 0
 243 000e FFF7FEFF 		bl	spiObjectInit
 244              	.LVL15:
 245              		.loc 1 192 0
 246 0012 084B     		ldr	r3, .L27+8
 247              		.loc 1 191 0
 248 0014 0848     		ldr	r0, .L27+12
 249              		.loc 1 194 0
 250 0016 0949     		ldr	r1, .L27+16
 251              		.loc 1 200 0
 252 0018 094A     		ldr	r2, .L27+20
 253              		.loc 1 191 0
 254 001a E061     		str	r0, [r4, #28]
 255              		.loc 1 193 0
 256 001c 03F12400 		add	r0, r3, #36
 257              		.loc 1 192 0
 258 0020 2362     		str	r3, [r4, #32]
 259              		.loc 1 193 0
 260 0022 6062     		str	r0, [r4, #36]
 261              		.loc 1 194 0
 262 0024 A162     		str	r1, [r4, #40]
 263              		.loc 1 200 0
 264 0026 E262     		str	r2, [r4, #44]
 265 0028 10BD     		pop	{r4, pc}
 266              	.L28:
 267 002a 00BF     		.align	2
 268              	.L27:
 269 002c 00000000 		.word	.LANCHOR1
 270 0030 00000000 		.word	.LANCHOR0
 271 0034 60000000 		.word	_stm32_dma_streams+96
 272 0038 00300140 		.word	1073819648
 273 003c 16000106 		.word	100728854
 274 0040 46000106 		.word	100728902
 275              		.cfi_endproc
 276              	.LFE258:
 277              		.size	spi_lld_init, .-spi_lld_init
 278              		.section	.text.spi_lld_start,"ax",%progbits
 279              		.align	2
 280              		.p2align 4,,15
 281              		.global	spi_lld_start
 282              		.thumb
 283              		.thumb_func
 284              		.type	spi_lld_start, %function
 285              	spi_lld_start:
ARM GAS  /tmp/ccqexXde.s 			page 6


 286              	.LFB259:
 287              		.loc 1 305 0
 288              		.cfi_startproc
 289              		@ args = 0, pretend = 0, frame = 0
 290              		@ frame_needed = 0, uses_anonymous_args = 0
 291              	.LVL16:
 292              		.loc 1 308 0
 293 0000 0378     		ldrb	r3, [r0]	@ zero_extendqisi2
 294 0002 012B     		cmp	r3, #1
 295              		.loc 1 305 0
 296 0004 10B5     		push	{r4, lr}
 297              		.cfi_def_cfa_offset 8
 298              		.cfi_offset 4, -8
 299              		.cfi_offset 14, -4
 300              		.loc 1 305 0
 301 0006 0446     		mov	r4, r0
 302              		.loc 1 308 0
 303 0008 1DD0     		beq	.L35
 304 000a C369     		ldr	r3, [r0, #28]
 305              	.LVL17:
 306              	.L30:
 307              		.loc 1 412 0
 308 000c 6268     		ldr	r2, [r4, #4]
 309              		.loc 1 415 0
 310 000e A06A     		ldr	r0, [r4, #40]
 311              		.loc 1 412 0
 312 0010 5289     		ldrh	r2, [r2, #10]
 313              		.loc 1 417 0
 314 0012 E16A     		ldr	r1, [r4, #44]
 315              		.loc 1 415 0
 316 0014 20F4F040 		bic	r0, r0, #30720
 317              		.loc 1 417 0
 318 0018 21F4F041 		bic	r1, r1, #30720
 319              		.loc 1 412 0
 320 001c 12F4006F 		tst	r2, #2048
 321              		.loc 1 422 0
 322 0020 1CBF     		itt	ne
 323 0022 40F42050 		orrne	r0, r0, #10240
 324              		.loc 1 424 0
 325 0026 41F42051 		orrne	r1, r1, #10240
 326              		.loc 1 421 0
 327 002a A062     		str	r0, [r4, #40]
 328              		.loc 1 423 0
 329 002c E162     		str	r1, [r4, #44]
 330              		.loc 1 428 0
 331 002e 42F44172 		orr	r2, r2, #772
 332              		.loc 1 427 0
 333 0032 0020     		movs	r0, #0
 334              		.loc 1 430 0
 335 0034 0721     		movs	r1, #7
 336              		.loc 1 427 0
 337 0036 1860     		str	r0, [r3]
 338              		.loc 1 428 0
 339 0038 1A60     		str	r2, [r3]
 340              		.loc 1 430 0
 341 003a 5960     		str	r1, [r3, #4]
 342              		.loc 1 431 0
ARM GAS  /tmp/ccqexXde.s 			page 7


 343 003c 1A68     		ldr	r2, [r3]
 344 003e 42F04002 		orr	r2, r2, #64
 345 0042 1A60     		str	r2, [r3]
 346 0044 10BD     		pop	{r4, pc}
 347              	.LVL18:
 348              	.L35:
 349              		.loc 1 310 0
 350 0046 0F4B     		ldr	r3, .L39
 351 0048 9842     		cmp	r0, r3
 352 004a 09D0     		beq	.L38
 353              	.LVL19:
 354              	.L31:
 355              		.loc 1 407 0
 356 004c 216A     		ldr	r1, [r4, #32]
 357              		.loc 1 408 0
 358 004e 626A     		ldr	r2, [r4, #36]
 359              		.loc 1 407 0
 360 0050 E369     		ldr	r3, [r4, #28]
 361 0052 0868     		ldr	r0, [r1]
 362              		.loc 1 408 0
 363 0054 1168     		ldr	r1, [r2]
 364              		.loc 1 407 0
 365 0056 03F10C02 		add	r2, r3, #12
 366 005a 8260     		str	r2, [r0, #8]
 367              		.loc 1 408 0
 368 005c 8A60     		str	r2, [r1, #8]
 369 005e D5E7     		b	.L30
 370              	.LVL20:
 371              	.L38:
 372              	.LBB74:
 373              		.loc 1 312 0
 374 0060 094A     		ldr	r2, .L39+4
 375 0062 006A     		ldr	r0, [r0, #32]
 376              	.LVL21:
 377 0064 0A21     		movs	r1, #10
 378 0066 2346     		mov	r3, r4
 379 0068 FFF7FEFF 		bl	dmaStreamAllocate
 380              	.LVL22:
 381              		.loc 1 317 0
 382 006c 074A     		ldr	r2, .L39+8
 383 006e 606A     		ldr	r0, [r4, #36]
 384 0070 2346     		mov	r3, r4
 385 0072 0A21     		movs	r1, #10
 386 0074 FFF7FEFF 		bl	dmaStreamAllocate
 387              	.LVL23:
 388              		.loc 1 322 0
 389 0078 054A     		ldr	r2, .L39+12
 390 007a 536C     		ldr	r3, [r2, #68]
 391 007c 43F48053 		orr	r3, r3, #4096
 392 0080 5364     		str	r3, [r2, #68]
 393 0082 E3E7     		b	.L31
 394              	.L40:
 395              		.align	2
 396              	.L39:
 397 0084 00000000 		.word	.LANCHOR1
 398 0088 00000000 		.word	spi_lld_serve_rx_interrupt
 399 008c 00000000 		.word	spi_lld_serve_tx_interrupt
ARM GAS  /tmp/ccqexXde.s 			page 8


 400 0090 00380240 		.word	1073887232
 401              	.LBE74:
 402              		.cfi_endproc
 403              	.LFE259:
 404              		.size	spi_lld_start, .-spi_lld_start
 405              		.section	.text.spi_lld_stop,"ax",%progbits
 406              		.align	2
 407              		.p2align 4,,15
 408              		.global	spi_lld_stop
 409              		.thumb
 410              		.thumb_func
 411              		.type	spi_lld_stop, %function
 412              	spi_lld_stop:
 413              	.LFB260:
 414              		.loc 1 441 0
 415              		.cfi_startproc
 416              		@ args = 0, pretend = 0, frame = 0
 417              		@ frame_needed = 0, uses_anonymous_args = 0
 418              	.LVL24:
 419              		.loc 1 444 0
 420 0000 0378     		ldrb	r3, [r0]	@ zero_extendqisi2
 421 0002 022B     		cmp	r3, #2
 422 0004 00D0     		beq	.L47
 423 0006 7047     		bx	lr
 424              	.L47:
 425              		.loc 1 447 0
 426 0008 C369     		ldr	r3, [r0, #28]
 427              		.loc 1 441 0
 428 000a 10B5     		push	{r4, lr}
 429              		.cfi_def_cfa_offset 8
 430              		.cfi_offset 4, -8
 431              		.cfi_offset 14, -4
 432              		.loc 1 447 0
 433 000c 0022     		movs	r2, #0
 434 000e 0446     		mov	r4, r0
 435              		.loc 1 449 0
 436 0010 006A     		ldr	r0, [r0, #32]
 437              	.LVL25:
 438              		.loc 1 447 0
 439 0012 1A60     		str	r2, [r3]
 440              		.loc 1 448 0
 441 0014 5A60     		str	r2, [r3, #4]
 442              		.loc 1 449 0
 443 0016 FFF7FEFF 		bl	dmaStreamRelease
 444              	.LVL26:
 445              		.loc 1 450 0
 446 001a 606A     		ldr	r0, [r4, #36]
 447 001c FFF7FEFF 		bl	dmaStreamRelease
 448              	.LVL27:
 449              		.loc 1 453 0
 450 0020 044B     		ldr	r3, .L49
 451 0022 9C42     		cmp	r4, r3
 452 0024 00D0     		beq	.L48
 453              	.L41:
 454 0026 10BD     		pop	{r4, pc}
 455              	.LVL28:
 456              	.L48:
ARM GAS  /tmp/ccqexXde.s 			page 9


 457              		.loc 1 454 0
 458 0028 034A     		ldr	r2, .L49+4
 459 002a 536C     		ldr	r3, [r2, #68]
 460 002c 23F48053 		bic	r3, r3, #4096
 461 0030 5364     		str	r3, [r2, #68]
 462 0032 F8E7     		b	.L41
 463              	.L50:
 464              		.align	2
 465              	.L49:
 466 0034 00000000 		.word	.LANCHOR1
 467 0038 00380240 		.word	1073887232
 468              		.cfi_endproc
 469              	.LFE260:
 470              		.size	spi_lld_stop, .-spi_lld_stop
 471              		.section	.text.spi_lld_select,"ax",%progbits
 472              		.align	2
 473              		.p2align 4,,15
 474              		.global	spi_lld_select
 475              		.thumb
 476              		.thumb_func
 477              		.type	spi_lld_select, %function
 478              	spi_lld_select:
 479              	.LFB261:
 480              		.loc 1 486 0
 481              		.cfi_startproc
 482              		@ args = 0, pretend = 0, frame = 0
 483              		@ frame_needed = 0, uses_anonymous_args = 0
 484              		@ link register save eliminated.
 485              	.LVL29:
 486              		.loc 1 488 0
 487 0000 4368     		ldr	r3, [r0, #4]
 488 0002 1989     		ldrh	r1, [r3, #8]
 489 0004 5A68     		ldr	r2, [r3, #4]
 490 0006 0123     		movs	r3, #1
 491 0008 8B40     		lsls	r3, r3, r1
 492 000a 9BB2     		uxth	r3, r3
 493 000c 5383     		strh	r3, [r2, #26]	@ movhi
 494 000e 7047     		bx	lr
 495              		.cfi_endproc
 496              	.LFE261:
 497              		.size	spi_lld_select, .-spi_lld_select
 498              		.section	.text.spi_lld_unselect,"ax",%progbits
 499              		.align	2
 500              		.p2align 4,,15
 501              		.global	spi_lld_unselect
 502              		.thumb
 503              		.thumb_func
 504              		.type	spi_lld_unselect, %function
 505              	spi_lld_unselect:
 506              	.LFB262:
 507              		.loc 1 499 0
 508              		.cfi_startproc
 509              		@ args = 0, pretend = 0, frame = 0
 510              		@ frame_needed = 0, uses_anonymous_args = 0
 511              		@ link register save eliminated.
 512              	.LVL30:
 513              		.loc 1 501 0
ARM GAS  /tmp/ccqexXde.s 			page 10


 514 0000 4368     		ldr	r3, [r0, #4]
 515 0002 1989     		ldrh	r1, [r3, #8]
 516 0004 5A68     		ldr	r2, [r3, #4]
 517 0006 0123     		movs	r3, #1
 518 0008 8B40     		lsls	r3, r3, r1
 519 000a 9BB2     		uxth	r3, r3
 520 000c 1383     		strh	r3, [r2, #24]	@ movhi
 521 000e 7047     		bx	lr
 522              		.cfi_endproc
 523              	.LFE262:
 524              		.size	spi_lld_unselect, .-spi_lld_unselect
 525              		.section	.text.spi_lld_ignore,"ax",%progbits
 526              		.align	2
 527              		.p2align 4,,15
 528              		.global	spi_lld_ignore
 529              		.thumb
 530              		.thumb_func
 531              		.type	spi_lld_ignore, %function
 532              	spi_lld_ignore:
 533              	.LFB263:
 534              		.loc 1 515 0
 535              		.cfi_startproc
 536              		@ args = 0, pretend = 0, frame = 0
 537              		@ frame_needed = 0, uses_anonymous_args = 0
 538              		@ link register save eliminated.
 539              	.LVL31:
 540              		.loc 1 517 0
 541 0000 026A     		ldr	r2, [r0, #32]
 542              		.loc 1 521 0
 543 0002 436A     		ldr	r3, [r0, #36]
 544              		.loc 1 517 0
 545 0004 1268     		ldr	r2, [r2]
 546              		.loc 1 521 0
 547 0006 1B68     		ldr	r3, [r3]
 548              		.loc 1 515 0
 549 0008 70B4     		push	{r4, r5, r6}
 550              		.cfi_def_cfa_offset 12
 551              		.cfi_offset 4, -12
 552              		.cfi_offset 5, -8
 553              		.cfi_offset 6, -4
 554              		.loc 1 519 0
 555 000a 856A     		ldr	r5, [r0, #40]
 556              		.loc 1 517 0
 557 000c 094E     		ldr	r6, .L55
 558              		.loc 1 523 0
 559 000e C06A     		ldr	r0, [r0, #44]
 560              	.LVL32:
 561              		.loc 1 521 0
 562 0010 094C     		ldr	r4, .L55+4
 563              		.loc 1 517 0
 564 0012 D660     		str	r6, [r2, #12]
 565              		.loc 1 518 0
 566 0014 5160     		str	r1, [r2, #4]
 567              		.loc 1 519 0
 568 0016 1560     		str	r5, [r2]
 569              		.loc 1 521 0
 570 0018 DC60     		str	r4, [r3, #12]
ARM GAS  /tmp/ccqexXde.s 			page 11


 571              		.loc 1 522 0
 572 001a 5960     		str	r1, [r3, #4]
 573              		.loc 1 523 0
 574 001c 1860     		str	r0, [r3]
 575              		.loc 1 525 0
 576 001e 1168     		ldr	r1, [r2]
 577              	.LVL33:
 578 0020 41F00101 		orr	r1, r1, #1
 579 0024 1160     		str	r1, [r2]
 580              		.loc 1 526 0
 581 0026 1A68     		ldr	r2, [r3]
 582 0028 42F00102 		orr	r2, r2, #1
 583 002c 1A60     		str	r2, [r3]
 584              		.loc 1 527 0
 585 002e 70BC     		pop	{r4, r5, r6}
 586              		.cfi_restore 6
 587              		.cfi_restore 5
 588              		.cfi_restore 4
 589              		.cfi_def_cfa_offset 0
 590 0030 7047     		bx	lr
 591              	.L56:
 592 0032 00BF     		.align	2
 593              	.L55:
 594 0034 00000000 		.word	.LANCHOR2
 595 0038 00000000 		.word	.LANCHOR0
 596              		.cfi_endproc
 597              	.LFE263:
 598              		.size	spi_lld_ignore, .-spi_lld_ignore
 599              		.section	.text.spi_lld_exchange,"ax",%progbits
 600              		.align	2
 601              		.p2align 4,,15
 602              		.global	spi_lld_exchange
 603              		.thumb
 604              		.thumb_func
 605              		.type	spi_lld_exchange, %function
 606              	spi_lld_exchange:
 607              	.LFB264:
 608              		.loc 1 545 0
 609              		.cfi_startproc
 610              		@ args = 0, pretend = 0, frame = 0
 611              		@ frame_needed = 0, uses_anonymous_args = 0
 612              		@ link register save eliminated.
 613              	.LVL34:
 614 0000 F0B4     		push	{r4, r5, r6, r7}
 615              		.cfi_def_cfa_offset 16
 616              		.cfi_offset 4, -16
 617              		.cfi_offset 5, -12
 618              		.cfi_offset 6, -8
 619              		.cfi_offset 7, -4
 620              		.loc 1 547 0
 621 0002 046A     		ldr	r4, [r0, #32]
 622              		.loc 1 551 0
 623 0004 476A     		ldr	r7, [r0, #36]
 624              		.loc 1 549 0
 625 0006 866A     		ldr	r6, [r0, #40]
 626              		.loc 1 553 0
 627 0008 C56A     		ldr	r5, [r0, #44]
ARM GAS  /tmp/ccqexXde.s 			page 12


 628              		.loc 1 547 0
 629 000a 2468     		ldr	r4, [r4]
 630              		.loc 1 551 0
 631 000c 3868     		ldr	r0, [r7]
 632              	.LVL35:
 633              		.loc 1 547 0
 634 000e E360     		str	r3, [r4, #12]
 635              		.loc 1 549 0
 636 0010 46F48066 		orr	r6, r6, #1024
 637              		.loc 1 553 0
 638 0014 45F48065 		orr	r5, r5, #1024
 639              		.loc 1 548 0
 640 0018 6160     		str	r1, [r4, #4]
 641              		.loc 1 549 0
 642 001a 2660     		str	r6, [r4]
 643              		.loc 1 551 0
 644 001c C260     		str	r2, [r0, #12]
 645              		.loc 1 552 0
 646 001e 4160     		str	r1, [r0, #4]
 647              		.loc 1 553 0
 648 0020 0560     		str	r5, [r0]
 649              		.loc 1 555 0
 650 0022 2368     		ldr	r3, [r4]
 651              	.LVL36:
 652 0024 43F00103 		orr	r3, r3, #1
 653 0028 2360     		str	r3, [r4]
 654              		.loc 1 556 0
 655 002a 0368     		ldr	r3, [r0]
 656 002c 43F00103 		orr	r3, r3, #1
 657 0030 0360     		str	r3, [r0]
 658              		.loc 1 557 0
 659 0032 F0BC     		pop	{r4, r5, r6, r7}
 660              		.cfi_restore 7
 661              		.cfi_restore 6
 662              		.cfi_restore 5
 663              		.cfi_restore 4
 664              		.cfi_def_cfa_offset 0
 665 0034 7047     		bx	lr
 666              		.cfi_endproc
 667              	.LFE264:
 668              		.size	spi_lld_exchange, .-spi_lld_exchange
 669 0036 00BF     		.section	.text.spi_lld_send,"ax",%progbits
 670              		.align	2
 671              		.p2align 4,,15
 672              		.global	spi_lld_send
 673              		.thumb
 674              		.thumb_func
 675              		.type	spi_lld_send, %function
 676              	spi_lld_send:
 677              	.LFB265:
 678              		.loc 1 572 0
 679              		.cfi_startproc
 680              		@ args = 0, pretend = 0, frame = 0
 681              		@ frame_needed = 0, uses_anonymous_args = 0
 682              		@ link register save eliminated.
 683              	.LVL37:
 684 0000 70B4     		push	{r4, r5, r6}
ARM GAS  /tmp/ccqexXde.s 			page 13


 685              		.cfi_def_cfa_offset 12
 686              		.cfi_offset 4, -12
 687              		.cfi_offset 5, -8
 688              		.cfi_offset 6, -4
 689              		.loc 1 578 0
 690 0002 436A     		ldr	r3, [r0, #36]
 691              		.loc 1 574 0
 692 0004 046A     		ldr	r4, [r0, #32]
 693              		.loc 1 580 0
 694 0006 C56A     		ldr	r5, [r0, #44]
 695              		.loc 1 574 0
 696 0008 2468     		ldr	r4, [r4]
 697              		.loc 1 578 0
 698 000a 1B68     		ldr	r3, [r3]
 699              		.loc 1 576 0
 700 000c 806A     		ldr	r0, [r0, #40]
 701              	.LVL38:
 702              		.loc 1 574 0
 703 000e 094E     		ldr	r6, .L61
 704 0010 E660     		str	r6, [r4, #12]
 705              		.loc 1 580 0
 706 0012 45F48065 		orr	r5, r5, #1024
 707              		.loc 1 575 0
 708 0016 6160     		str	r1, [r4, #4]
 709              		.loc 1 576 0
 710 0018 2060     		str	r0, [r4]
 711              		.loc 1 578 0
 712 001a DA60     		str	r2, [r3, #12]
 713              		.loc 1 579 0
 714 001c 5960     		str	r1, [r3, #4]
 715              		.loc 1 580 0
 716 001e 1D60     		str	r5, [r3]
 717              		.loc 1 582 0
 718 0020 2268     		ldr	r2, [r4]
 719              	.LVL39:
 720 0022 42F00102 		orr	r2, r2, #1
 721 0026 2260     		str	r2, [r4]
 722              		.loc 1 583 0
 723 0028 1A68     		ldr	r2, [r3]
 724 002a 42F00102 		orr	r2, r2, #1
 725 002e 1A60     		str	r2, [r3]
 726              		.loc 1 584 0
 727 0030 70BC     		pop	{r4, r5, r6}
 728              		.cfi_restore 6
 729              		.cfi_restore 5
 730              		.cfi_restore 4
 731              		.cfi_def_cfa_offset 0
 732 0032 7047     		bx	lr
 733              	.L62:
 734              		.align	2
 735              	.L61:
 736 0034 00000000 		.word	.LANCHOR2
 737              		.cfi_endproc
 738              	.LFE265:
 739              		.size	spi_lld_send, .-spi_lld_send
 740              		.section	.text.spi_lld_receive,"ax",%progbits
 741              		.align	2
ARM GAS  /tmp/ccqexXde.s 			page 14


 742              		.p2align 4,,15
 743              		.global	spi_lld_receive
 744              		.thumb
 745              		.thumb_func
 746              		.type	spi_lld_receive, %function
 747              	spi_lld_receive:
 748              	.LFB266:
 749              		.loc 1 599 0
 750              		.cfi_startproc
 751              		@ args = 0, pretend = 0, frame = 0
 752              		@ frame_needed = 0, uses_anonymous_args = 0
 753              		@ link register save eliminated.
 754              	.LVL40:
 755 0000 70B4     		push	{r4, r5, r6}
 756              		.cfi_def_cfa_offset 12
 757              		.cfi_offset 4, -12
 758              		.cfi_offset 5, -8
 759              		.cfi_offset 6, -4
 760              		.loc 1 605 0
 761 0002 436A     		ldr	r3, [r0, #36]
 762              		.loc 1 601 0
 763 0004 046A     		ldr	r4, [r0, #32]
 764              		.loc 1 603 0
 765 0006 856A     		ldr	r5, [r0, #40]
 766              		.loc 1 601 0
 767 0008 2468     		ldr	r4, [r4]
 768              		.loc 1 605 0
 769 000a 1B68     		ldr	r3, [r3]
 770              		.loc 1 607 0
 771 000c C06A     		ldr	r0, [r0, #44]
 772              	.LVL41:
 773              		.loc 1 605 0
 774 000e 094E     		ldr	r6, .L65
 775              		.loc 1 601 0
 776 0010 E260     		str	r2, [r4, #12]
 777              		.loc 1 603 0
 778 0012 45F48065 		orr	r5, r5, #1024
 779              		.loc 1 602 0
 780 0016 6160     		str	r1, [r4, #4]
 781              		.loc 1 603 0
 782 0018 2560     		str	r5, [r4]
 783              		.loc 1 605 0
 784 001a DE60     		str	r6, [r3, #12]
 785              		.loc 1 606 0
 786 001c 5960     		str	r1, [r3, #4]
 787              		.loc 1 607 0
 788 001e 1860     		str	r0, [r3]
 789              		.loc 1 609 0
 790 0020 2268     		ldr	r2, [r4]
 791              	.LVL42:
 792 0022 42F00102 		orr	r2, r2, #1
 793 0026 2260     		str	r2, [r4]
 794              		.loc 1 610 0
 795 0028 1A68     		ldr	r2, [r3]
 796 002a 42F00102 		orr	r2, r2, #1
 797 002e 1A60     		str	r2, [r3]
 798              		.loc 1 611 0
ARM GAS  /tmp/ccqexXde.s 			page 15


 799 0030 70BC     		pop	{r4, r5, r6}
 800              		.cfi_restore 6
 801              		.cfi_restore 5
 802              		.cfi_restore 4
 803              		.cfi_def_cfa_offset 0
 804 0032 7047     		bx	lr
 805              	.L66:
 806              		.align	2
 807              	.L65:
 808 0034 00000000 		.word	.LANCHOR0
 809              		.cfi_endproc
 810              	.LFE266:
 811              		.size	spi_lld_receive, .-spi_lld_receive
 812              		.section	.text.spi_lld_polled_exchange,"ax",%progbits
 813              		.align	2
 814              		.p2align 4,,15
 815              		.global	spi_lld_polled_exchange
 816              		.thumb
 817              		.thumb_func
 818              		.type	spi_lld_polled_exchange, %function
 819              	spi_lld_polled_exchange:
 820              	.LFB267:
 821              		.loc 1 625 0
 822              		.cfi_startproc
 823              		@ args = 0, pretend = 0, frame = 0
 824              		@ frame_needed = 0, uses_anonymous_args = 0
 825              		@ link register save eliminated.
 826              	.LVL43:
 827              		.loc 1 627 0
 828 0000 C269     		ldr	r2, [r0, #28]
 829 0002 D160     		str	r1, [r2, #12]
 830              	.L68:
 831              		.loc 1 628 0 discriminator 1
 832 0004 9368     		ldr	r3, [r2, #8]
 833 0006 DB07     		lsls	r3, r3, #31
 834 0008 FCD5     		bpl	.L68
 835              		.loc 1 630 0
 836 000a D068     		ldr	r0, [r2, #12]
 837              	.LVL44:
 838              		.loc 1 631 0
 839 000c 80B2     		uxth	r0, r0
 840 000e 7047     		bx	lr
 841              		.cfi_endproc
 842              	.LFE267:
 843              		.size	spi_lld_polled_exchange, .-spi_lld_polled_exchange
 844              		.global	SPID1
 845              		.section	.bss.dummytx,"aw",%nobits
 846              		.align	1
 847              		.set	.LANCHOR0,. + 0
 848              		.type	dummytx, %object
 849              		.size	dummytx, 2
 850              	dummytx:
 851 0000 0000     		.space	2
 852              		.section	.bss.SPID1,"aw",%nobits
 853              		.align	2
 854              		.set	.LANCHOR1,. + 0
 855              		.type	SPID1, %object
ARM GAS  /tmp/ccqexXde.s 			page 16


 856              		.size	SPID1, 48
 857              	SPID1:
 858 0000 00000000 		.space	48
 858      00000000 
 858      00000000 
 858      00000000 
 858      00000000 
 859              		.section	.rodata.str1.4,"aMS",%progbits,1
 860              		.align	2
 861              	.LC0:
 862 0000 444D4120 		.ascii	"DMA failure\000"
 862      6661696C 
 862      75726500 
 863              		.section	.bss.dummyrx,"aw",%nobits
 864              		.align	1
 865              		.set	.LANCHOR2,. + 0
 866              		.type	dummyrx, %object
 867              		.size	dummyrx, 2
 868              	dummyrx:
 869 0000 0000     		.space	2
 870              		.text
 871              	.Letext0:
 872              		.file 4 "/usr/lib/gcc/arm-none-eabi/4.9.3/include/stddef.h"
 873              		.file 5 "/usr/arm-none-eabi/include/machine/_default_types.h"
 874              		.file 6 "/usr/arm-none-eabi/include/sys/_stdint.h"
 875              		.file 7 "ChibiOS_3.0.2/os/rt/ports/ARMCMx/compilers/GCC/chtypes.h"
 876              		.file 8 "ChibiOS_3.0.2/os/rt/include/chsystypes.h"
 877              		.file 9 "ChibiOS_3.0.2/os/rt/include/chschd.h"
 878              		.file 10 "ChibiOS_3.0.2/os/ext/CMSIS/ST/stm32f407xx.h"
 879              		.file 11 "ChibiOS_3.0.2/os/rt/ports/ARMCMx/chcore.h"
 880              		.file 12 "ChibiOS_3.0.2/os/rt/ports/ARMCMx/chcore_v7m.h"
 881              		.file 13 "ChibiOS_3.0.2/os/rt/include/chtm.h"
 882              		.file 14 "ChibiOS_3.0.2/os/rt/include/chsem.h"
 883              		.file 15 "ChibiOS_3.0.2/os/rt/include/chmtx.h"
 884              		.file 16 "ChibiOS_3.0.2/os/hal/ports/STM32/STM32F4xx/stm32_dma.h"
 885              		.file 17 "ChibiOS_3.0.2/os/hal/ports/STM32/LLD/GPIOv2/pal_lld.h"
 886              		.file 18 "ChibiOS_3.0.2/os/hal/include/spi.h"
 887              		.file 19 "ChibiOS_3.0.2/os/hal/ports/STM32/LLD/SPIv1/spi_lld.h"
 888              		.file 20 "ChibiOS_3.0.2/os/rt/include/chsys.h"
 889              		.file 21 "ChibiOS_3.0.2/os/ext/CMSIS/include/core_cm4.h"
 890              		.file 22 "ChibiOS_3.0.2/os/rt/include/chthreads.h"